---
triple:          'arm64-apple-darwin'
binary-path:     '/Volumes/CrucialP2/Programming/JUCEProjects/IRFx/Builds/MacOSX/build/Release/IRFx.app/Contents/MacOS/IRFx'
relocations:
  - { offset: 0x8E2F, size: 0x8, addend: 0x0, symName: __ZN4juce7ColoursL16transparentBlackE, symObjAddr: 0x463DFD0, symBinAddr: 0x100783140, symSize: 0x0 }
  - { offset: 0x8E48, size: 0x8, addend: 0x0, symName: __ZN4juce7ColoursL16transparentWhiteE, symObjAddr: 0x463DFD4, symBinAddr: 0x100783144, symSize: 0x0 }
  - { offset: 0x8E61, size: 0x8, addend: 0x0, symName: __ZN4juce7ColoursL9aliceblueE, symObjAddr: 0x463DFD8, symBinAddr: 0x100783148, symSize: 0x0 }
  - { offset: 0x8E7A, size: 0x8, addend: 0x0, symName: __ZN4juce7ColoursL12antiquewhiteE, symObjAddr: 0x463DFDC, symBinAddr: 0x10078314C, symSize: 0x0 }
  - { offset: 0x8E93, size: 0x8, addend: 0x0, symName: __ZN4juce7ColoursL4aquaE, symObjAddr: 0x463DFE0, symBinAddr: 0x100783150, symSize: 0x0 }
  - { offset: 0x8EAC, size: 0x8, addend: 0x0, symName: __ZN4juce7ColoursL10aquamarineE, symObjAddr: 0x463DFE4, symBinAddr: 0x100783154, symSize: 0x0 }
  - { offset: 0x8EC5, size: 0x8, addend: 0x0, symName: __ZN4juce7ColoursL5azureE, symObjAddr: 0x463DFE8, symBinAddr: 0x100783158, symSize: 0x0 }
  - { offset: 0x8EDE, size: 0x8, addend: 0x0, symName: __ZN4juce7ColoursL5beigeE, symObjAddr: 0x463DFEC, symBinAddr: 0x10078315C, symSize: 0x0 }
  - { offset: 0x8EF7, size: 0x8, addend: 0x0, symName: __ZN4juce7ColoursL6bisqueE, symObjAddr: 0x463DFF0, symBinAddr: 0x100783160, symSize: 0x0 }
  - { offset: 0x8F10, size: 0x8, addend: 0x0, symName: __ZN4juce7ColoursL5blackE, symObjAddr: 0x463DFF4, symBinAddr: 0x100783164, symSize: 0x0 }
  - { offset: 0x8F29, size: 0x8, addend: 0x0, symName: __ZN4juce7ColoursL14blanchedalmondE, symObjAddr: 0x463DFF8, symBinAddr: 0x100783168, symSize: 0x0 }
  - { offset: 0x8F42, size: 0x8, addend: 0x0, symName: __ZN4juce7ColoursL4blueE, symObjAddr: 0x463DFFC, symBinAddr: 0x10078316C, symSize: 0x0 }
  - { offset: 0x8F5B, size: 0x8, addend: 0x0, symName: __ZN4juce7ColoursL10bluevioletE, symObjAddr: 0x463E000, symBinAddr: 0x100783170, symSize: 0x0 }
  - { offset: 0x8F74, size: 0x8, addend: 0x0, symName: __ZN4juce7ColoursL5brownE, symObjAddr: 0x463E004, symBinAddr: 0x100783174, symSize: 0x0 }
  - { offset: 0x8F8D, size: 0x8, addend: 0x0, symName: __ZN4juce7ColoursL9burlywoodE, symObjAddr: 0x463E008, symBinAddr: 0x100783178, symSize: 0x0 }
  - { offset: 0x8FA6, size: 0x8, addend: 0x0, symName: __ZN4juce7ColoursL9cadetblueE, symObjAddr: 0x463E00C, symBinAddr: 0x10078317C, symSize: 0x0 }
  - { offset: 0x8FBF, size: 0x8, addend: 0x0, symName: __ZN4juce7ColoursL10chartreuseE, symObjAddr: 0x463E010, symBinAddr: 0x100783180, symSize: 0x0 }
  - { offset: 0x8FD8, size: 0x8, addend: 0x0, symName: __ZN4juce7ColoursL9chocolateE, symObjAddr: 0x463E014, symBinAddr: 0x100783184, symSize: 0x0 }
  - { offset: 0x8FF1, size: 0x8, addend: 0x0, symName: __ZN4juce7ColoursL5coralE, symObjAddr: 0x463E018, symBinAddr: 0x100783188, symSize: 0x0 }
  - { offset: 0x900A, size: 0x8, addend: 0x0, symName: __ZN4juce7ColoursL14cornflowerblueE, symObjAddr: 0x463E01C, symBinAddr: 0x10078318C, symSize: 0x0 }
  - { offset: 0x9023, size: 0x8, addend: 0x0, symName: __ZN4juce7ColoursL8cornsilkE, symObjAddr: 0x463E020, symBinAddr: 0x100783190, symSize: 0x0 }
  - { offset: 0x903C, size: 0x8, addend: 0x0, symName: __ZN4juce7ColoursL7crimsonE, symObjAddr: 0x463E024, symBinAddr: 0x100783194, symSize: 0x0 }
  - { offset: 0x9055, size: 0x8, addend: 0x0, symName: __ZN4juce7ColoursL4cyanE, symObjAddr: 0x463E028, symBinAddr: 0x100783198, symSize: 0x0 }
  - { offset: 0x906E, size: 0x8, addend: 0x0, symName: __ZN4juce7ColoursL8darkblueE, symObjAddr: 0x463E02C, symBinAddr: 0x10078319C, symSize: 0x0 }
  - { offset: 0x9087, size: 0x8, addend: 0x0, symName: __ZN4juce7ColoursL8darkcyanE, symObjAddr: 0x463E030, symBinAddr: 0x1007831A0, symSize: 0x0 }
  - { offset: 0x90A0, size: 0x8, addend: 0x0, symName: __ZN4juce7ColoursL13darkgoldenrodE, symObjAddr: 0x463E034, symBinAddr: 0x1007831A4, symSize: 0x0 }
  - { offset: 0x90B9, size: 0x8, addend: 0x0, symName: __ZN4juce7ColoursL8darkgreyE, symObjAddr: 0x463E038, symBinAddr: 0x1007831A8, symSize: 0x0 }
  - { offset: 0x90D2, size: 0x8, addend: 0x0, symName: __ZN4juce7ColoursL9darkgreenE, symObjAddr: 0x463E03C, symBinAddr: 0x1007831AC, symSize: 0x0 }
  - { offset: 0x90EB, size: 0x8, addend: 0x0, symName: __ZN4juce7ColoursL9darkkhakiE, symObjAddr: 0x463E040, symBinAddr: 0x1007831B0, symSize: 0x0 }
  - { offset: 0x9104, size: 0x8, addend: 0x0, symName: __ZN4juce7ColoursL11darkmagentaE, symObjAddr: 0x463E044, symBinAddr: 0x1007831B4, symSize: 0x0 }
  - { offset: 0x911D, size: 0x8, addend: 0x0, symName: __ZN4juce7ColoursL14darkolivegreenE, symObjAddr: 0x463E048, symBinAddr: 0x1007831B8, symSize: 0x0 }
  - { offset: 0x9136, size: 0x8, addend: 0x0, symName: __ZN4juce7ColoursL10darkorangeE, symObjAddr: 0x463E04C, symBinAddr: 0x1007831BC, symSize: 0x0 }
  - { offset: 0x914F, size: 0x8, addend: 0x0, symName: __ZN4juce7ColoursL10darkorchidE, symObjAddr: 0x463E050, symBinAddr: 0x1007831C0, symSize: 0x0 }
  - { offset: 0x9168, size: 0x8, addend: 0x0, symName: __ZN4juce7ColoursL7darkredE, symObjAddr: 0x463E054, symBinAddr: 0x1007831C4, symSize: 0x0 }
  - { offset: 0x9181, size: 0x8, addend: 0x0, symName: __ZN4juce7ColoursL10darksalmonE, symObjAddr: 0x463E058, symBinAddr: 0x1007831C8, symSize: 0x0 }
  - { offset: 0x919A, size: 0x8, addend: 0x0, symName: __ZN4juce7ColoursL12darkseagreenE, symObjAddr: 0x463E05C, symBinAddr: 0x1007831CC, symSize: 0x0 }
  - { offset: 0x91B3, size: 0x8, addend: 0x0, symName: __ZN4juce7ColoursL13darkslateblueE, symObjAddr: 0x463E060, symBinAddr: 0x1007831D0, symSize: 0x0 }
  - { offset: 0x91CC, size: 0x8, addend: 0x0, symName: __ZN4juce7ColoursL13darkslategreyE, symObjAddr: 0x463E064, symBinAddr: 0x1007831D4, symSize: 0x0 }
  - { offset: 0x91E5, size: 0x8, addend: 0x0, symName: __ZN4juce7ColoursL13darkturquoiseE, symObjAddr: 0x463E068, symBinAddr: 0x1007831D8, symSize: 0x0 }
  - { offset: 0x91FE, size: 0x8, addend: 0x0, symName: __ZN4juce7ColoursL10darkvioletE, symObjAddr: 0x463E06C, symBinAddr: 0x1007831DC, symSize: 0x0 }
  - { offset: 0x9217, size: 0x8, addend: 0x0, symName: __ZN4juce7ColoursL8deeppinkE, symObjAddr: 0x463E070, symBinAddr: 0x1007831E0, symSize: 0x0 }
  - { offset: 0x9230, size: 0x8, addend: 0x0, symName: __ZN4juce7ColoursL11deepskyblueE, symObjAddr: 0x463E074, symBinAddr: 0x1007831E4, symSize: 0x0 }
  - { offset: 0x9249, size: 0x8, addend: 0x0, symName: __ZN4juce7ColoursL7dimgreyE, symObjAddr: 0x463E078, symBinAddr: 0x1007831E8, symSize: 0x0 }
  - { offset: 0x9262, size: 0x8, addend: 0x0, symName: __ZN4juce7ColoursL10dodgerblueE, symObjAddr: 0x463E07C, symBinAddr: 0x1007831EC, symSize: 0x0 }
  - { offset: 0x927B, size: 0x8, addend: 0x0, symName: __ZN4juce7ColoursL9firebrickE, symObjAddr: 0x463E080, symBinAddr: 0x1007831F0, symSize: 0x0 }
  - { offset: 0x9294, size: 0x8, addend: 0x0, symName: __ZN4juce7ColoursL11floralwhiteE, symObjAddr: 0x463E084, symBinAddr: 0x1007831F4, symSize: 0x0 }
  - { offset: 0x92AD, size: 0x8, addend: 0x0, symName: __ZN4juce7ColoursL11forestgreenE, symObjAddr: 0x463E088, symBinAddr: 0x1007831F8, symSize: 0x0 }
  - { offset: 0x92C6, size: 0x8, addend: 0x0, symName: __ZN4juce7ColoursL7fuchsiaE, symObjAddr: 0x463E08C, symBinAddr: 0x1007831FC, symSize: 0x0 }
  - { offset: 0x92DF, size: 0x8, addend: 0x0, symName: __ZN4juce7ColoursL9gainsboroE, symObjAddr: 0x463E090, symBinAddr: 0x100783200, symSize: 0x0 }
  - { offset: 0x92F8, size: 0x8, addend: 0x0, symName: __ZN4juce7ColoursL10ghostwhiteE, symObjAddr: 0x463E094, symBinAddr: 0x100783204, symSize: 0x0 }
  - { offset: 0x9311, size: 0x8, addend: 0x0, symName: __ZN4juce7ColoursL4goldE, symObjAddr: 0x463E098, symBinAddr: 0x100783208, symSize: 0x0 }
  - { offset: 0x932A, size: 0x8, addend: 0x0, symName: __ZN4juce7ColoursL9goldenrodE, symObjAddr: 0x463E09C, symBinAddr: 0x10078320C, symSize: 0x0 }
  - { offset: 0x9343, size: 0x8, addend: 0x0, symName: __ZN4juce7ColoursL4greyE, symObjAddr: 0x463E0A0, symBinAddr: 0x100783210, symSize: 0x0 }
  - { offset: 0x935C, size: 0x8, addend: 0x0, symName: __ZN4juce7ColoursL5greenE, symObjAddr: 0x463E0A4, symBinAddr: 0x100783214, symSize: 0x0 }
  - { offset: 0x9375, size: 0x8, addend: 0x0, symName: __ZN4juce7ColoursL11greenyellowE, symObjAddr: 0x463E0A8, symBinAddr: 0x100783218, symSize: 0x0 }
  - { offset: 0x938E, size: 0x8, addend: 0x0, symName: __ZN4juce7ColoursL8honeydewE, symObjAddr: 0x463E0AC, symBinAddr: 0x10078321C, symSize: 0x0 }
  - { offset: 0x93A7, size: 0x8, addend: 0x0, symName: __ZN4juce7ColoursL7hotpinkE, symObjAddr: 0x463E0B0, symBinAddr: 0x100783220, symSize: 0x0 }
  - { offset: 0x93C0, size: 0x8, addend: 0x0, symName: __ZN4juce7ColoursL9indianredE, symObjAddr: 0x463E0B4, symBinAddr: 0x100783224, symSize: 0x0 }
  - { offset: 0x93D9, size: 0x8, addend: 0x0, symName: __ZN4juce7ColoursL6indigoE, symObjAddr: 0x463E0B8, symBinAddr: 0x100783228, symSize: 0x0 }
  - { offset: 0x93F2, size: 0x8, addend: 0x0, symName: __ZN4juce7ColoursL5ivoryE, symObjAddr: 0x463E0BC, symBinAddr: 0x10078322C, symSize: 0x0 }
  - { offset: 0x940B, size: 0x8, addend: 0x0, symName: __ZN4juce7ColoursL5khakiE, symObjAddr: 0x463E0C0, symBinAddr: 0x100783230, symSize: 0x0 }
  - { offset: 0x9424, size: 0x8, addend: 0x0, symName: __ZN4juce7ColoursL8lavenderE, symObjAddr: 0x463E0C4, symBinAddr: 0x100783234, symSize: 0x0 }
  - { offset: 0x943D, size: 0x8, addend: 0x0, symName: __ZN4juce7ColoursL13lavenderblushE, symObjAddr: 0x463E0C8, symBinAddr: 0x100783238, symSize: 0x0 }
  - { offset: 0x9456, size: 0x8, addend: 0x0, symName: __ZN4juce7ColoursL9lawngreenE, symObjAddr: 0x463E0CC, symBinAddr: 0x10078323C, symSize: 0x0 }
  - { offset: 0x946F, size: 0x8, addend: 0x0, symName: __ZN4juce7ColoursL12lemonchiffonE, symObjAddr: 0x463E0D0, symBinAddr: 0x100783240, symSize: 0x0 }
  - { offset: 0x9488, size: 0x8, addend: 0x0, symName: __ZN4juce7ColoursL9lightblueE, symObjAddr: 0x463E0D4, symBinAddr: 0x100783244, symSize: 0x0 }
  - { offset: 0x94A1, size: 0x8, addend: 0x0, symName: __ZN4juce7ColoursL10lightcoralE, symObjAddr: 0x463E0D8, symBinAddr: 0x100783248, symSize: 0x0 }
  - { offset: 0x94BA, size: 0x8, addend: 0x0, symName: __ZN4juce7ColoursL9lightcyanE, symObjAddr: 0x463E0DC, symBinAddr: 0x10078324C, symSize: 0x0 }
  - { offset: 0x94D3, size: 0x8, addend: 0x0, symName: __ZN4juce7ColoursL20lightgoldenrodyellowE, symObjAddr: 0x463E0E0, symBinAddr: 0x100783250, symSize: 0x0 }
  - { offset: 0x94EC, size: 0x8, addend: 0x0, symName: __ZN4juce7ColoursL10lightgreenE, symObjAddr: 0x463E0E4, symBinAddr: 0x100783254, symSize: 0x0 }
  - { offset: 0x9505, size: 0x8, addend: 0x0, symName: __ZN4juce7ColoursL9lightgreyE, symObjAddr: 0x463E0E8, symBinAddr: 0x100783258, symSize: 0x0 }
  - { offset: 0x951E, size: 0x8, addend: 0x0, symName: __ZN4juce7ColoursL9lightpinkE, symObjAddr: 0x463E0EC, symBinAddr: 0x10078325C, symSize: 0x0 }
  - { offset: 0x9537, size: 0x8, addend: 0x0, symName: __ZN4juce7ColoursL11lightsalmonE, symObjAddr: 0x463E0F0, symBinAddr: 0x100783260, symSize: 0x0 }
  - { offset: 0x9550, size: 0x8, addend: 0x0, symName: __ZN4juce7ColoursL13lightseagreenE, symObjAddr: 0x463E0F4, symBinAddr: 0x100783264, symSize: 0x0 }
  - { offset: 0x9569, size: 0x8, addend: 0x0, symName: __ZN4juce7ColoursL12lightskyblueE, symObjAddr: 0x463E0F8, symBinAddr: 0x100783268, symSize: 0x0 }
  - { offset: 0x9582, size: 0x8, addend: 0x0, symName: __ZN4juce7ColoursL14lightslategreyE, symObjAddr: 0x463E0FC, symBinAddr: 0x10078326C, symSize: 0x0 }
  - { offset: 0x959B, size: 0x8, addend: 0x0, symName: __ZN4juce7ColoursL14lightsteelblueE, symObjAddr: 0x463E100, symBinAddr: 0x100783270, symSize: 0x0 }
  - { offset: 0x95B4, size: 0x8, addend: 0x0, symName: __ZN4juce7ColoursL11lightyellowE, symObjAddr: 0x463E104, symBinAddr: 0x100783274, symSize: 0x0 }
  - { offset: 0x95CD, size: 0x8, addend: 0x0, symName: __ZN4juce7ColoursL4limeE, symObjAddr: 0x463E108, symBinAddr: 0x100783278, symSize: 0x0 }
  - { offset: 0x95E6, size: 0x8, addend: 0x0, symName: __ZN4juce7ColoursL9limegreenE, symObjAddr: 0x463E10C, symBinAddr: 0x10078327C, symSize: 0x0 }
  - { offset: 0x95FF, size: 0x8, addend: 0x0, symName: __ZN4juce7ColoursL5linenE, symObjAddr: 0x463E110, symBinAddr: 0x100783280, symSize: 0x0 }
  - { offset: 0x9618, size: 0x8, addend: 0x0, symName: __ZN4juce7ColoursL7magentaE, symObjAddr: 0x463E114, symBinAddr: 0x100783284, symSize: 0x0 }
  - { offset: 0x9631, size: 0x8, addend: 0x0, symName: __ZN4juce7ColoursL6maroonE, symObjAddr: 0x463E118, symBinAddr: 0x100783288, symSize: 0x0 }
  - { offset: 0x964A, size: 0x8, addend: 0x0, symName: __ZN4juce7ColoursL16mediumaquamarineE, symObjAddr: 0x463E11C, symBinAddr: 0x10078328C, symSize: 0x0 }
  - { offset: 0x9663, size: 0x8, addend: 0x0, symName: __ZN4juce7ColoursL10mediumblueE, symObjAddr: 0x463E120, symBinAddr: 0x100783290, symSize: 0x0 }
  - { offset: 0x967C, size: 0x8, addend: 0x0, symName: __ZN4juce7ColoursL12mediumorchidE, symObjAddr: 0x463E124, symBinAddr: 0x100783294, symSize: 0x0 }
  - { offset: 0x9695, size: 0x8, addend: 0x0, symName: __ZN4juce7ColoursL12mediumpurpleE, symObjAddr: 0x463E128, symBinAddr: 0x100783298, symSize: 0x0 }
  - { offset: 0x96AE, size: 0x8, addend: 0x0, symName: __ZN4juce7ColoursL14mediumseagreenE, symObjAddr: 0x463E12C, symBinAddr: 0x10078329C, symSize: 0x0 }
  - { offset: 0x96C7, size: 0x8, addend: 0x0, symName: __ZN4juce7ColoursL15mediumslateblueE, symObjAddr: 0x463E130, symBinAddr: 0x1007832A0, symSize: 0x0 }
  - { offset: 0x96E0, size: 0x8, addend: 0x0, symName: __ZN4juce7ColoursL17mediumspringgreenE, symObjAddr: 0x463E134, symBinAddr: 0x1007832A4, symSize: 0x0 }
  - { offset: 0x96F9, size: 0x8, addend: 0x0, symName: __ZN4juce7ColoursL15mediumturquoiseE, symObjAddr: 0x463E138, symBinAddr: 0x1007832A8, symSize: 0x0 }
  - { offset: 0x9712, size: 0x8, addend: 0x0, symName: __ZN4juce7ColoursL15mediumvioletredE, symObjAddr: 0x463E13C, symBinAddr: 0x1007832AC, symSize: 0x0 }
  - { offset: 0x972B, size: 0x8, addend: 0x0, symName: __ZN4juce7ColoursL12midnightblueE, symObjAddr: 0x463E140, symBinAddr: 0x1007832B0, symSize: 0x0 }
  - { offset: 0x9744, size: 0x8, addend: 0x0, symName: __ZN4juce7ColoursL9mintcreamE, symObjAddr: 0x463E144, symBinAddr: 0x1007832B4, symSize: 0x0 }
  - { offset: 0x975D, size: 0x8, addend: 0x0, symName: __ZN4juce7ColoursL9mistyroseE, symObjAddr: 0x463E148, symBinAddr: 0x1007832B8, symSize: 0x0 }
  - { offset: 0x9776, size: 0x8, addend: 0x0, symName: __ZN4juce7ColoursL8moccasinE, symObjAddr: 0x463E14C, symBinAddr: 0x1007832BC, symSize: 0x0 }
  - { offset: 0x978F, size: 0x8, addend: 0x0, symName: __ZN4juce7ColoursL11navajowhiteE, symObjAddr: 0x463E150, symBinAddr: 0x1007832C0, symSize: 0x0 }
  - { offset: 0x97A8, size: 0x8, addend: 0x0, symName: __ZN4juce7ColoursL4navyE, symObjAddr: 0x463E154, symBinAddr: 0x1007832C4, symSize: 0x0 }
  - { offset: 0x97C1, size: 0x8, addend: 0x0, symName: __ZN4juce7ColoursL7oldlaceE, symObjAddr: 0x463E158, symBinAddr: 0x1007832C8, symSize: 0x0 }
  - { offset: 0x97DA, size: 0x8, addend: 0x0, symName: __ZN4juce7ColoursL5oliveE, symObjAddr: 0x463E15C, symBinAddr: 0x1007832CC, symSize: 0x0 }
  - { offset: 0x97F3, size: 0x8, addend: 0x0, symName: __ZN4juce7ColoursL9olivedrabE, symObjAddr: 0x463E160, symBinAddr: 0x1007832D0, symSize: 0x0 }
  - { offset: 0x980C, size: 0x8, addend: 0x0, symName: __ZN4juce7ColoursL6orangeE, symObjAddr: 0x463E164, symBinAddr: 0x1007832D4, symSize: 0x0 }
  - { offset: 0x9825, size: 0x8, addend: 0x0, symName: __ZN4juce7ColoursL9orangeredE, symObjAddr: 0x463E168, symBinAddr: 0x1007832D8, symSize: 0x0 }
  - { offset: 0x983E, size: 0x8, addend: 0x0, symName: __ZN4juce7ColoursL6orchidE, symObjAddr: 0x463E16C, symBinAddr: 0x1007832DC, symSize: 0x0 }
  - { offset: 0x9857, size: 0x8, addend: 0x0, symName: __ZN4juce7ColoursL13palegoldenrodE, symObjAddr: 0x463E170, symBinAddr: 0x1007832E0, symSize: 0x0 }
  - { offset: 0x9870, size: 0x8, addend: 0x0, symName: __ZN4juce7ColoursL9palegreenE, symObjAddr: 0x463E174, symBinAddr: 0x1007832E4, symSize: 0x0 }
  - { offset: 0x9889, size: 0x8, addend: 0x0, symName: __ZN4juce7ColoursL13paleturquoiseE, symObjAddr: 0x463E178, symBinAddr: 0x1007832E8, symSize: 0x0 }
  - { offset: 0x98A2, size: 0x8, addend: 0x0, symName: __ZN4juce7ColoursL13palevioletredE, symObjAddr: 0x463E17C, symBinAddr: 0x1007832EC, symSize: 0x0 }
  - { offset: 0x98BB, size: 0x8, addend: 0x0, symName: __ZN4juce7ColoursL10papayawhipE, symObjAddr: 0x463E180, symBinAddr: 0x1007832F0, symSize: 0x0 }
  - { offset: 0x98D4, size: 0x8, addend: 0x0, symName: __ZN4juce7ColoursL9peachpuffE, symObjAddr: 0x463E184, symBinAddr: 0x1007832F4, symSize: 0x0 }
  - { offset: 0x98ED, size: 0x8, addend: 0x0, symName: __ZN4juce7ColoursL4peruE, symObjAddr: 0x463E188, symBinAddr: 0x1007832F8, symSize: 0x0 }
  - { offset: 0x9906, size: 0x8, addend: 0x0, symName: __ZN4juce7ColoursL4pinkE, symObjAddr: 0x463E18C, symBinAddr: 0x1007832FC, symSize: 0x0 }
  - { offset: 0x991F, size: 0x8, addend: 0x0, symName: __ZN4juce7ColoursL4plumE, symObjAddr: 0x463E190, symBinAddr: 0x100783300, symSize: 0x0 }
  - { offset: 0x9938, size: 0x8, addend: 0x0, symName: __ZN4juce7ColoursL10powderblueE, symObjAddr: 0x463E194, symBinAddr: 0x100783304, symSize: 0x0 }
  - { offset: 0x9951, size: 0x8, addend: 0x0, symName: __ZN4juce7ColoursL6purpleE, symObjAddr: 0x463E198, symBinAddr: 0x100783308, symSize: 0x0 }
  - { offset: 0x996A, size: 0x8, addend: 0x0, symName: __ZN4juce7ColoursL13rebeccapurpleE, symObjAddr: 0x463E19C, symBinAddr: 0x10078330C, symSize: 0x0 }
  - { offset: 0x9983, size: 0x8, addend: 0x0, symName: __ZN4juce7ColoursL3redE, symObjAddr: 0x463E1A0, symBinAddr: 0x100783310, symSize: 0x0 }
  - { offset: 0x999C, size: 0x8, addend: 0x0, symName: __ZN4juce7ColoursL9rosybrownE, symObjAddr: 0x463E1A4, symBinAddr: 0x100783314, symSize: 0x0 }
  - { offset: 0x99B5, size: 0x8, addend: 0x0, symName: __ZN4juce7ColoursL9royalblueE, symObjAddr: 0x463E1A8, symBinAddr: 0x100783318, symSize: 0x0 }
  - { offset: 0x99CE, size: 0x8, addend: 0x0, symName: __ZN4juce7ColoursL11saddlebrownE, symObjAddr: 0x463E1AC, symBinAddr: 0x10078331C, symSize: 0x0 }
  - { offset: 0x99E7, size: 0x8, addend: 0x0, symName: __ZN4juce7ColoursL6salmonE, symObjAddr: 0x463E1B0, symBinAddr: 0x100783320, symSize: 0x0 }
  - { offset: 0x9A00, size: 0x8, addend: 0x0, symName: __ZN4juce7ColoursL10sandybrownE, symObjAddr: 0x463E1B4, symBinAddr: 0x100783324, symSize: 0x0 }
  - { offset: 0x9A19, size: 0x8, addend: 0x0, symName: __ZN4juce7ColoursL8seagreenE, symObjAddr: 0x463E1B8, symBinAddr: 0x100783328, symSize: 0x0 }
  - { offset: 0x9A32, size: 0x8, addend: 0x0, symName: __ZN4juce7ColoursL8seashellE, symObjAddr: 0x463E1BC, symBinAddr: 0x10078332C, symSize: 0x0 }
  - { offset: 0x9A4B, size: 0x8, addend: 0x0, symName: __ZN4juce7ColoursL6siennaE, symObjAddr: 0x463E1C0, symBinAddr: 0x100783330, symSize: 0x0 }
  - { offset: 0x9A64, size: 0x8, addend: 0x0, symName: __ZN4juce7ColoursL6silverE, symObjAddr: 0x463E1C4, symBinAddr: 0x100783334, symSize: 0x0 }
  - { offset: 0x9A7D, size: 0x8, addend: 0x0, symName: __ZN4juce7ColoursL7skyblueE, symObjAddr: 0x463E1C8, symBinAddr: 0x100783338, symSize: 0x0 }
  - { offset: 0x9A96, size: 0x8, addend: 0x0, symName: __ZN4juce7ColoursL9slateblueE, symObjAddr: 0x463E1CC, symBinAddr: 0x10078333C, symSize: 0x0 }
  - { offset: 0x9AAF, size: 0x8, addend: 0x0, symName: __ZN4juce7ColoursL9slategreyE, symObjAddr: 0x463E1D0, symBinAddr: 0x100783340, symSize: 0x0 }
  - { offset: 0x9AC8, size: 0x8, addend: 0x0, symName: __ZN4juce7ColoursL4snowE, symObjAddr: 0x463E1D4, symBinAddr: 0x100783344, symSize: 0x0 }
  - { offset: 0x9AE1, size: 0x8, addend: 0x0, symName: __ZN4juce7ColoursL11springgreenE, symObjAddr: 0x463E1D8, symBinAddr: 0x100783348, symSize: 0x0 }
  - { offset: 0x9AFA, size: 0x8, addend: 0x0, symName: __ZN4juce7ColoursL9steelblueE, symObjAddr: 0x463E1DC, symBinAddr: 0x10078334C, symSize: 0x0 }
  - { offset: 0x9B13, size: 0x8, addend: 0x0, symName: __ZN4juce7ColoursL3tanE, symObjAddr: 0x463E1E0, symBinAddr: 0x100783350, symSize: 0x0 }
  - { offset: 0x9B2C, size: 0x8, addend: 0x0, symName: __ZN4juce7ColoursL4tealE, symObjAddr: 0x463E1E4, symBinAddr: 0x100783354, symSize: 0x0 }
  - { offset: 0x9B45, size: 0x8, addend: 0x0, symName: __ZN4juce7ColoursL7thistleE, symObjAddr: 0x463E1E8, symBinAddr: 0x100783358, symSize: 0x0 }
  - { offset: 0x9B5E, size: 0x8, addend: 0x0, symName: __ZN4juce7ColoursL6tomatoE, symObjAddr: 0x463E1EC, symBinAddr: 0x10078335C, symSize: 0x0 }
  - { offset: 0x9B77, size: 0x8, addend: 0x0, symName: __ZN4juce7ColoursL9turquoiseE, symObjAddr: 0x463E1F0, symBinAddr: 0x100783360, symSize: 0x0 }
  - { offset: 0x9B90, size: 0x8, addend: 0x0, symName: __ZN4juce7ColoursL6violetE, symObjAddr: 0x463E1F4, symBinAddr: 0x100783364, symSize: 0x0 }
  - { offset: 0x9BA9, size: 0x8, addend: 0x0, symName: __ZN4juce7ColoursL5wheatE, symObjAddr: 0x463E1F8, symBinAddr: 0x100783368, symSize: 0x0 }
  - { offset: 0x9BC2, size: 0x8, addend: 0x0, symName: __ZN4juce7ColoursL5whiteE, symObjAddr: 0x463E1FC, symBinAddr: 0x10078336C, symSize: 0x0 }
  - { offset: 0x9BDB, size: 0x8, addend: 0x0, symName: __ZN4juce7ColoursL10whitesmokeE, symObjAddr: 0x463E200, symBinAddr: 0x100783370, symSize: 0x0 }
  - { offset: 0x9BF4, size: 0x8, addend: 0x0, symName: __ZN4juce7ColoursL6yellowE, symObjAddr: 0x463E204, symBinAddr: 0x100783374, symSize: 0x0 }
  - { offset: 0x9C0D, size: 0x8, addend: 0x0, symName: __ZN4juce7ColoursL11yellowgreenE, symObjAddr: 0x463E208, symBinAddr: 0x100783378, symSize: 0x0 }
  - { offset: 0x2E770, size: 0x8, addend: 0x0, symName: _hb_font_destroy, symObjAddr: 0x232C6C, symBinAddr: 0x10022DDDC, symSize: 0xE4 }
  - { offset: 0x1459B9, size: 0x8, addend: 0x0, symName: __ZNSt3__120__throw_length_errorB8ne190102EPKc, symObjAddr: 0x4E58, symBinAddr: 0x100006854, symSize: 0x50 }
  - { offset: 0x15016A, size: 0x8, addend: 0x0, symName: __ZSt28__throw_bad_array_new_lengthB8ne190102v, symObjAddr: 0x4E30, symBinAddr: 0x10000682C, symSize: 0x28 }
  - { offset: 0x151D27, size: 0x8, addend: 0x0, symName: __ZN4juce21ModalComponentManager15singletonHolderE, symObjAddr: 0x4641B18, symBinAddr: 0x100786C88, symSize: 0x0 }
  - { offset: 0x28F0B8, size: 0x8, addend: 0x0, symName: __ZN4juce17PushNotifications15singletonHolderE, symObjAddr: 0x4642290, symBinAddr: 0x100787400, symSize: 0x0 }
  - { offset: 0x28F7BE, size: 0x8, addend: 0x0, symName: __ZN4juce6detail20WebSliderRelayEvents5Event12eventTypeKeyE, symObjAddr: 0x46422E0, symBinAddr: 0x100787450, symSize: 0x0 }
  - { offset: 0x28F910, size: 0x8, addend: 0x0, symName: __ZN4juce6detail20WebSliderRelayEvents12ValueChanged7eventIdE, symObjAddr: 0x46422F0, symBinAddr: 0x100787460, symSize: 0x0 }
  - { offset: 0x28F9C2, size: 0x8, addend: 0x0, symName: __ZN4juce6detail20WebSliderRelayEvents12ValueChanged11newValueKeyE, symObjAddr: 0x4642300, symBinAddr: 0x100787470, symSize: 0x0 }
  - { offset: 0x28F9E4, size: 0x8, addend: 0x0, symName: __ZN4juce6detail20WebSliderRelayEvents17SliderDragStarted7eventIdE, symObjAddr: 0x4642310, symBinAddr: 0x100787480, symSize: 0x0 }
  - { offset: 0x28FA90, size: 0x8, addend: 0x0, symName: __ZN4juce6detail20WebSliderRelayEvents15SliderDragEnded7eventIdE, symObjAddr: 0x4642320, symBinAddr: 0x100787490, symSize: 0x0 }
  - { offset: 0x28FB2E, size: 0x8, addend: 0x0, symName: __ZN4juce6detail20WebSliderRelayEvents22InitialUpdateRequested7eventIdE, symObjAddr: 0x4642330, symBinAddr: 0x1007874A0, symSize: 0x0 }
  - { offset: 0x28FBCC, size: 0x8, addend: 0x0, symName: __ZN4juce6detail26WebToggleButtonRelayEvents5Event12eventTypeKeyE, symObjAddr: 0x4642340, symBinAddr: 0x1007874B0, symSize: 0x0 }
  - { offset: 0x28FCE8, size: 0x8, addend: 0x0, symName: __ZN4juce6detail26WebToggleButtonRelayEvents18ToggleStateChanged7eventIdE, symObjAddr: 0x4642350, symBinAddr: 0x1007874C0, symSize: 0x0 }
  - { offset: 0x28FD8C, size: 0x8, addend: 0x0, symName: __ZN4juce6detail26WebToggleButtonRelayEvents18ToggleStateChanged8valueKeyE, symObjAddr: 0x4642360, symBinAddr: 0x1007874D0, symSize: 0x0 }
  - { offset: 0x28FDA0, size: 0x8, addend: 0x0, symName: __ZN4juce6detail26WebToggleButtonRelayEvents22InitialUpdateRequested7eventIdE, symObjAddr: 0x4642370, symBinAddr: 0x1007874E0, symSize: 0x0 }
  - { offset: 0x28FE3E, size: 0x8, addend: 0x0, symName: __ZN4juce6detail22WebComboBoxRelayEvents5Event12eventTypeKeyE, symObjAddr: 0x4642380, symBinAddr: 0x1007874F0, symSize: 0x0 }
  - { offset: 0x28FF5A, size: 0x8, addend: 0x0, symName: __ZN4juce6detail22WebComboBoxRelayEvents12ValueChanged7eventIdE, symObjAddr: 0x4642390, symBinAddr: 0x100787500, symSize: 0x0 }
  - { offset: 0x28FFFE, size: 0x8, addend: 0x0, symName: __ZN4juce6detail22WebComboBoxRelayEvents12ValueChanged8valueKeyE, symObjAddr: 0x46423A0, symBinAddr: 0x100787510, symSize: 0x0 }
  - { offset: 0x290012, size: 0x8, addend: 0x0, symName: __ZN4juce6detail22WebComboBoxRelayEvents22InitialUpdateRequested7eventIdE, symObjAddr: 0x46423B0, symBinAddr: 0x100787520, symSize: 0x0 }
  - { offset: 0x290110, size: 0x8, addend: 0x0, symName: __ZN4juce22StandalonePluginHolder15currentInstanceE, symObjAddr: 0x463E210, symBinAddr: 0x100783380, symSize: 0x0 }
  - { offset: 0x295E46, size: 0x8, addend: 0x0, symName: __ZN4juce19StandaloneFilterApp19systemRequestedQuitEv, symObjAddr: 0x81C, symBinAddr: 0x10000222C, symSize: 0x3C0 }
  - { offset: 0x299F71, size: 0x8, addend: 0x0, symName: ___cxx_global_var_init.1, symObjAddr: 0x307BF0, symBinAddr: 0x1002FDBEC, symSize: 0x3C }
  - { offset: 0x299F85, size: 0x8, addend: 0x0, symName: ___cxx_global_var_init.145, symObjAddr: 0x307C2C, symBinAddr: 0x1002FDC28, symSize: 0x3C }
  - { offset: 0x29A0D2, size: 0x8, addend: 0x0, symName: ___cxx_global_var_init.146, symObjAddr: 0x307C68, symBinAddr: 0x1002FDC64, symSize: 0x100 }
  - { offset: 0x29A2E8, size: 0x8, addend: 0x0, symName: ___cxx_global_var_init.147, symObjAddr: 0x307D68, symBinAddr: 0x1002FDD64, symSize: 0xE4 }
  - { offset: 0x29A349, size: 0x8, addend: 0x0, symName: ___cxx_global_var_init.148, symObjAddr: 0x307E4C, symBinAddr: 0x1002FDE48, symSize: 0xE4 }
  - { offset: 0x29A3A6, size: 0x8, addend: 0x0, symName: ___cxx_global_var_init.150, symObjAddr: 0x307F30, symBinAddr: 0x1002FDF2C, symSize: 0xE4 }
  - { offset: 0x29A403, size: 0x8, addend: 0x0, symName: ___cxx_global_var_init.152, symObjAddr: 0x308014, symBinAddr: 0x1002FE010, symSize: 0xE4 }
  - { offset: 0x29A460, size: 0x8, addend: 0x0, symName: ___cxx_global_var_init.154, symObjAddr: 0x3080F8, symBinAddr: 0x1002FE0F4, symSize: 0xE4 }
  - { offset: 0x29A4BD, size: 0x8, addend: 0x0, symName: ___cxx_global_var_init.156, symObjAddr: 0x3081DC, symBinAddr: 0x1002FE1D8, symSize: 0xE4 }
  - { offset: 0x29A51A, size: 0x8, addend: 0x0, symName: ___cxx_global_var_init.158, symObjAddr: 0x3082C0, symBinAddr: 0x1002FE2BC, symSize: 0xE4 }
  - { offset: 0x29A577, size: 0x8, addend: 0x0, symName: ___cxx_global_var_init.159, symObjAddr: 0x3083A4, symBinAddr: 0x1002FE3A0, symSize: 0xE4 }
  - { offset: 0x29A5D4, size: 0x8, addend: 0x0, symName: ___cxx_global_var_init.160, symObjAddr: 0x308488, symBinAddr: 0x1002FE484, symSize: 0xE4 }
  - { offset: 0x29A631, size: 0x8, addend: 0x0, symName: ___cxx_global_var_init.161, symObjAddr: 0x30856C, symBinAddr: 0x1002FE568, symSize: 0xE4 }
  - { offset: 0x29A68E, size: 0x8, addend: 0x0, symName: ___cxx_global_var_init.162, symObjAddr: 0x308650, symBinAddr: 0x1002FE64C, symSize: 0xE4 }
  - { offset: 0x29A6EB, size: 0x8, addend: 0x0, symName: ___cxx_global_var_init.163, symObjAddr: 0x308734, symBinAddr: 0x1002FE730, symSize: 0xE4 }
  - { offset: 0x29A748, size: 0x8, addend: 0x0, symName: ___cxx_global_var_init.164, symObjAddr: 0x308818, symBinAddr: 0x1002FE814, symSize: 0xE4 }
  - { offset: 0x29A7A5, size: 0x8, addend: 0x0, symName: ___cxx_global_var_init.165, symObjAddr: 0x3088FC, symBinAddr: 0x1002FE8F8, symSize: 0xE4 }
  - { offset: 0x29ABEB, size: 0x8, addend: 0x0, symName: __GLOBAL__sub_I_include_juce_audio_plugin_client_Standalone.cpp, symObjAddr: 0x3089E0, symBinAddr: 0x1002FE9DC, symSize: 0x88C }
  - { offset: 0x29AC03, size: 0x8, addend: 0x0, symName: __GLOBAL__sub_I_include_juce_audio_plugin_client_Standalone.cpp, symObjAddr: 0x3089E0, symBinAddr: 0x1002FE9DC, symSize: 0x88C }
  - { offset: 0x29AC18, size: 0x8, addend: 0x0, symName: __GLOBAL__sub_I_include_juce_audio_plugin_client_Standalone.cpp, symObjAddr: 0x3089E0, symBinAddr: 0x1002FE9DC, symSize: 0x88C }
  - { offset: 0x29AC34, size: 0x8, addend: 0x0, symName: __GLOBAL__sub_I_include_juce_audio_plugin_client_Standalone.cpp, symObjAddr: 0x3089E0, symBinAddr: 0x1002FE9DC, symSize: 0x88C }
  - { offset: 0x29AC51, size: 0x8, addend: 0x0, symName: __GLOBAL__sub_I_include_juce_audio_plugin_client_Standalone.cpp, symObjAddr: 0x3089E0, symBinAddr: 0x1002FE9DC, symSize: 0x88C }
  - { offset: 0x29AC83, size: 0x8, addend: 0x0, symName: __GLOBAL__sub_I_include_juce_audio_plugin_client_Standalone.cpp, symObjAddr: 0x3089E0, symBinAddr: 0x1002FE9DC, symSize: 0x88C }
  - { offset: 0x2A3A26, size: 0x8, addend: 0x0, symName: __ZN4juce15SingletonHolderINS_17PushNotificationsENS_15CriticalSectionELb0EED1Ev, symObjAddr: 0x0, symBinAddr: 0x100001A10, symSize: 0x28 }
  - { offset: 0x2A3E83, size: 0x8, addend: 0x0, symName: __Z22juce_CreateApplicationv, symObjAddr: 0x28, symBinAddr: 0x100001A38, symSize: 0x3B8 }
  - { offset: 0x2A5B51, size: 0x8, addend: 0x0, symName: __ZN4juce14PropertiesFile7OptionsD1Ev, symObjAddr: 0x3E0, symBinAddr: 0x100001DF0, symSize: 0xA8 }
  - { offset: 0x2A602F, size: 0x8, addend: 0x0, symName: __ZN4juce19StandaloneFilterAppD1Ev, symObjAddr: 0x488, symBinAddr: 0x100001E98, symSize: 0xC0 }
  - { offset: 0x2A654D, size: 0x8, addend: 0x0, symName: __ZN4juce19StandaloneFilterAppD0Ev, symObjAddr: 0x548, symBinAddr: 0x100001F58, symSize: 0xC0 }
  - { offset: 0x2A6A6B, size: 0x8, addend: 0x0, symName: __ZN4juce19StandaloneFilterApp18getApplicationNameEv, symObjAddr: 0x608, symBinAddr: 0x100002018, symSize: 0x2C }
  - { offset: 0x2A6AEB, size: 0x8, addend: 0x0, symName: __ZN4juce19StandaloneFilterApp21getApplicationVersionEv, symObjAddr: 0x634, symBinAddr: 0x100002044, symSize: 0x4C }
  - { offset: 0x2A6C6D, size: 0x8, addend: 0x0, symName: __ZN4juce19StandaloneFilterApp26moreThanOneInstanceAllowedEv, symObjAddr: 0x680, symBinAddr: 0x100002090, symSize: 0x8 }
  - { offset: 0x2A6D19, size: 0x8, addend: 0x0, symName: __ZN4juce19StandaloneFilterApp10initialiseERKNS_6StringE, symObjAddr: 0x688, symBinAddr: 0x100002098, symSize: 0x9C }
  - { offset: 0x2A6ED5, size: 0x8, addend: 0x0, symName: __ZN4juce19StandaloneFilterApp12createWindowEv, symObjAddr: 0xBE8, symBinAddr: 0x1000025F8, symSize: 0x3A8 }
  - { offset: 0x2A7DC9, size: 0x8, addend: 0x0, symName: __ZN4juce19StandaloneFilterApp18createPluginHolderEv, symObjAddr: 0xF90, symBinAddr: 0x1000029A0, symSize: 0xCE8 }
  - { offset: 0x2ACAA0, size: 0x8, addend: 0x0, symName: __ZN4juce19StandaloneFilterApp8shutdownEv, symObjAddr: 0x724, symBinAddr: 0x100002134, symSize: 0xF4 }
  - { offset: 0x2ACF38, size: 0x8, addend: 0x0, symName: __ZN4juce19StandaloneFilterApp22anotherInstanceStartedERKNS_6StringE, symObjAddr: 0x818, symBinAddr: 0x100002228, symSize: 0x4 }
  - { offset: 0x2AD27C, size: 0x8, addend: 0x0, symName: __ZN4juce22StandalonePluginHolder15savePluginStateEv, symObjAddr: 0xAD38, symBinAddr: 0x10000C734, symSize: 0xDC }
  - { offset: 0x2AD642, size: 0x8, addend: 0x0, symName: __ZNKSt3__110__function6__funcIZN4juce19StandaloneFilterApp19systemRequestedQuitEvEUlvE_NS_9allocatorIS4_EEFvvEE7__cloneEPNS0_6__baseIS7_EE, symObjAddr: 0xAE40, symBinAddr: 0x10000C83C, symSize: 0x10 }
  - { offset: 0x2AD677, size: 0x8, addend: 0x0, symName: __ZNKSt3__110__function6__funcIZN4juce19StandaloneFilterApp19systemRequestedQuitEvEUlvE_NS_9allocatorIS4_EEFvvEE7__cloneEPNS0_6__baseIS7_EE, symObjAddr: 0xAE40, symBinAddr: 0x10000C83C, symSize: 0x10 }
  - { offset: 0x2AD695, size: 0x8, addend: 0x0, symName: __ZNKSt3__110__function6__funcIZN4juce19StandaloneFilterApp19systemRequestedQuitEvEUlvE_NS_9allocatorIS4_EEFvvEE7__cloneEPNS0_6__baseIS7_EE, symObjAddr: 0xAE40, symBinAddr: 0x10000C83C, symSize: 0x10 }
  - { offset: 0x2AD6C0, size: 0x8, addend: 0x0, symName: __ZN4juce19JUCEApplicationBase21memoryWarningReceivedEv, symObjAddr: 0xBDC, symBinAddr: 0x1000025EC, symSize: 0x4 }
  - { offset: 0x2AD6E3, size: 0x8, addend: 0x0, symName: __ZN4juce19JUCEApplicationBase17backButtonPressedEv, symObjAddr: 0xBE0, symBinAddr: 0x1000025F0, symSize: 0x8 }
  - { offset: 0x2ADA2B, size: 0x8, addend: 0x0, symName: __ZN4juce22StandaloneFilterWindow20MainContentComponentC2ERS0_, symObjAddr: 0x6230, symBinAddr: 0x100007C2C, symSize: 0xC30 }
  - { offset: 0x2B1542, size: 0x8, addend: 0x0, symName: __ZZN4juce22StandaloneFilterWindowC1ERKNS_6StringENS_6ColourENSt3__110unique_ptrINS_22StandalonePluginHolderENS5_14default_deleteIS7_EEEEENKUlvE_clEv, symObjAddr: 0x6E60, symBinAddr: 0x10000885C, symSize: 0x214 }
  - { offset: 0x2B2700, size: 0x8, addend: 0x0, symName: __ZN4juce22StandalonePluginHolder18handleCreatePluginEv, symObjAddr: 0x1E08, symBinAddr: 0x100003818, symSize: 0x1D0C }
  - { offset: 0x2BDC1B, size: 0x8, addend: 0x0, symName: __ZN4juce22StandalonePluginHolder4initEbRKNS_6StringE, symObjAddr: 0x3B14, symBinAddr: 0x100005524, symSize: 0x784 }
  - { offset: 0x2C07F4, size: 0x8, addend: 0x0, symName: __ZN4juce22StandalonePluginHolder23CallbackMaxSizeEnforcerD1Ev, symObjAddr: 0x4298, symBinAddr: 0x100005CA8, symSize: 0x4C }
  - { offset: 0x2C0AF7, size: 0x8, addend: 0x0, symName: __ZNSt3__110unique_ptrIN4juce11FileChooserENS_14default_deleteIS2_EEED1B8ne190102Ev, symObjAddr: 0x42E4, symBinAddr: 0x100005CF4, symSize: 0x3C }
  - { offset: 0x2C0BA6, size: 0x8, addend: 0x0, symName: __ZN4juce5ArrayINS_14MidiDeviceInfoENS_20DummyCriticalSectionELi0EED1Ev, symObjAddr: 0x4320, symBinAddr: 0x100005D30, symSize: 0xB8 }
  - { offset: 0x2C0F17, size: 0x8, addend: 0x0, symName: __ZNSt3__110unique_ptrIN4juce18AudioDeviceManager16AudioDeviceSetupENS_14default_deleteIS3_EEED1B8ne190102Ev, symObjAddr: 0x43D8, symBinAddr: 0x100005DE8, symSize: 0x94 }
  - { offset: 0x2C1380, size: 0x8, addend: 0x0, symName: __ZNSt3__110unique_ptrIN4juce10XmlElementENS_14default_deleteIS2_EEED1B8ne190102Ev, symObjAddr: 0x44DC, symBinAddr: 0x100005EEC, symSize: 0x3C }
  - { offset: 0x2C1437, size: 0x8, addend: 0x0, symName: __ZN4juce21OptionalScopedPointerINS_11PropertySetEED1Ev, symObjAddr: 0x446C, symBinAddr: 0x100005E7C, symSize: 0x70 }
  - { offset: 0x2C1475, size: 0x8, addend: 0x0, symName: __ZN4juce21OptionalScopedPointerINS_11PropertySetEED1Ev, symObjAddr: 0x446C, symBinAddr: 0x100005E7C, symSize: 0x70 }
  - { offset: 0x2C1593, size: 0x8, addend: 0x0, symName: __ZThn24_N4juce19StandaloneFilterAppD1Ev, symObjAddr: 0x1C78, symBinAddr: 0x100003688, symSize: 0xC4 }
  - { offset: 0x2C1AC0, size: 0x8, addend: 0x0, symName: __ZThn24_N4juce19StandaloneFilterAppD0Ev, symObjAddr: 0x1D3C, symBinAddr: 0x10000374C, symSize: 0xCC }
  - { offset: 0x2C2955, size: 0x8, addend: 0x0, symName: __ZN4juce22StandalonePluginHolder23CallbackMaxSizeEnforcerD0Ev, symObjAddr: 0x4518, symBinAddr: 0x100005F28, symSize: 0x4C }
  - { offset: 0x2C2E02, size: 0x8, addend: 0x0, symName: __ZN4juce22StandalonePluginHolder23CallbackMaxSizeEnforcer32audioDeviceIOCallbackWithContextEPKPKfiPKPfiiRKNS_28AudioIODeviceCallbackContextE, symObjAddr: 0x4564, symBinAddr: 0x100005F74, symSize: 0x200 }
  - { offset: 0x2C33DA, size: 0x8, addend: 0x0, symName: __ZN4juce22StandalonePluginHolder23CallbackMaxSizeEnforcer23audioDeviceAboutToStartEPNS_13AudioIODeviceE, symObjAddr: 0x4764, symBinAddr: 0x100006174, symSize: 0x588 }
  - { offset: 0x2C3BF9, size: 0x8, addend: 0x0, symName: __ZNSt3__16vectorIPfNS_9allocatorIS1_EEE8__appendEm, symObjAddr: 0x4CFC, symBinAddr: 0x10000670C, symSize: 0x120 }
  - { offset: 0x2C4070, size: 0x8, addend: 0x0, symName: __ZNKSt3__16vectorIPKfNS_9allocatorIS2_EEE20__throw_length_errorB8ne190102Ev, symObjAddr: 0x4ECC, symBinAddr: 0x1000068C8, symSize: 0x14 }
  - { offset: 0x2C4096, size: 0x8, addend: 0x0, symName: __ZN4juce22StandalonePluginHolderD1Ev, symObjAddr: 0x4EE0, symBinAddr: 0x1000068DC, symSize: 0x4 }
  - { offset: 0x2C40A1, size: 0x8, addend: 0x0, symName: __ZN4juce22StandalonePluginHolder23CallbackMaxSizeEnforcer18audioDeviceStoppedEv, symObjAddr: 0x4CEC, symBinAddr: 0x1000066FC, symSize: 0x10 }
  - { offset: 0x2C4371, size: 0x8, addend: 0x0, symName: __ZSt28__throw_bad_array_new_lengthB8ne190102v, symObjAddr: 0x4E30, symBinAddr: 0x10000682C, symSize: 0x28 }
  - { offset: 0x2C437C, size: 0x8, addend: 0x0, symName: __ZNSt12length_errorC1B8ne190102EPKc, symObjAddr: 0x4EA8, symBinAddr: 0x1000068A4, symSize: 0x24 }
  - { offset: 0x2C440C, size: 0x8, addend: 0x0, symName: __ZN4juce22StandalonePluginHolderD1Ev, symObjAddr: 0x4EE0, symBinAddr: 0x1000068DC, symSize: 0x4 }
  - { offset: 0x2C4430, size: 0x8, addend: 0x0, symName: __ZN4juce22StandalonePluginHolderD1Ev, symObjAddr: 0x4EE0, symBinAddr: 0x1000068DC, symSize: 0x4 }
  - { offset: 0x2C443B, size: 0x8, addend: 0x0, symName: __ZN4juce22StandalonePluginHolderD2Ev, symObjAddr: 0x56B4, symBinAddr: 0x1000070B0, symSize: 0x57C }
  - { offset: 0x2C626C, size: 0x8, addend: 0x0, symName: __ZN4juce22StandalonePluginHolderD0Ev, symObjAddr: 0x4EE4, symBinAddr: 0x1000068E0, symSize: 0x14 }
  - { offset: 0x2C6341, size: 0x8, addend: 0x0, symName: __ZN4juce22StandalonePluginHolder32audioDeviceIOCallbackWithContextEPKPKfiPKPfiiRKNS_28AudioIODeviceCallbackContextE, symObjAddr: 0x4EF8, symBinAddr: 0x1000068F4, symSize: 0xB8 }
  - { offset: 0x2C669D, size: 0x8, addend: 0x0, symName: __ZN4juce22StandalonePluginHolder23audioDeviceAboutToStartEPNS_13AudioIODeviceE, symObjAddr: 0x4FB0, symBinAddr: 0x1000069AC, symSize: 0x380 }
  - { offset: 0x2C6B2D, size: 0x8, addend: 0x0, symName: __ZN4juce9HeapBlockIcLb1EE8allocateImEEvT_b, symObjAddr: 0x61A8, symBinAddr: 0x100007BA4, symSize: 0x88 }
  - { offset: 0x2C6C72, size: 0x8, addend: 0x0, symName: __ZN4juce22StandalonePluginHolder18audioDeviceStoppedEv, symObjAddr: 0x5330, symBinAddr: 0x100006D2C, symSize: 0x84 }
  - { offset: 0x2C6DCC, size: 0x8, addend: 0x0, symName: __ZN4juce22StandalonePluginHolder12createPluginEv, symObjAddr: 0x53B4, symBinAddr: 0x100006DB0, symSize: 0x4 }
  - { offset: 0x2C6DF4, size: 0x8, addend: 0x0, symName: __ZN4juce22StandalonePluginHolder12createPluginEv, symObjAddr: 0x53B4, symBinAddr: 0x100006DB0, symSize: 0x4 }
  - { offset: 0x2C6E4A, size: 0x8, addend: 0x0, symName: __ZN4juce22StandalonePluginHolder12deletePluginEv, symObjAddr: 0x53B8, symBinAddr: 0x100006DB4, symSize: 0x48 }
  - { offset: 0x2C6F96, size: 0x8, addend: 0x0, symName: __ZN4juce22StandalonePluginHolder12valueChangedERNS_5ValueE, symObjAddr: 0x5400, symBinAddr: 0x100006DFC, symSize: 0x6C }
  - { offset: 0x2C71BB, size: 0x8, addend: 0x0, symName: __ZN4juce22StandalonePluginHolder13timerCallbackEv, symObjAddr: 0x546C, symBinAddr: 0x100006E68, symSize: 0x194 }
  - { offset: 0x2C7754, size: 0x8, addend: 0x0, symName: __ZNK4juce9ArrayBaseINS_14MidiDeviceInfoENS_20DummyCriticalSectionEEeqINS_5ArrayIS1_S2_Li0EEEEEbRKT_, symObjAddr: 0x5C40, symBinAddr: 0x10000763C, symSize: 0x21C }
  - { offset: 0x2C83FF, size: 0x8, addend: 0x0, symName: __ZNK4juce5ArrayINS_14MidiDeviceInfoENS_20DummyCriticalSectionELi0EE8containsERKS1_, symObjAddr: 0x5E5C, symBinAddr: 0x100007858, symSize: 0x210 }
  - { offset: 0x2C9018, size: 0x8, addend: 0x0, symName: __ZN4juce5ArrayINS_14MidiDeviceInfoENS_20DummyCriticalSectionELi0EEaSERKS3_, symObjAddr: 0x606C, symBinAddr: 0x100007A68, symSize: 0x13C }
  - { offset: 0x2C993C, size: 0x8, addend: 0x0, symName: __ZThn8_N4juce22StandalonePluginHolderD1Ev, symObjAddr: 0x5600, symBinAddr: 0x100006FFC, symSize: 0x8 }
  - { offset: 0x2C999A, size: 0x8, addend: 0x0, symName: __ZThn8_N4juce22StandalonePluginHolderD0Ev, symObjAddr: 0x5608, symBinAddr: 0x100007004, symSize: 0x18 }
  - { offset: 0x2C99FD, size: 0x8, addend: 0x0, symName: __ZThn8_N4juce22StandalonePluginHolder13timerCallbackEv, symObjAddr: 0x5620, symBinAddr: 0x10000701C, symSize: 0x8 }
  - { offset: 0x2C9A24, size: 0x8, addend: 0x0, symName: __ZThn48_N4juce22StandalonePluginHolderD1Ev, symObjAddr: 0x5628, symBinAddr: 0x100007024, symSize: 0x8 }
  - { offset: 0x2C9A68, size: 0x8, addend: 0x0, symName: __ZThn48_N4juce22StandalonePluginHolderD0Ev, symObjAddr: 0x5630, symBinAddr: 0x10000702C, symSize: 0x18 }
  - { offset: 0x2C9AEE, size: 0x8, addend: 0x0, symName: __ZThn48_N4juce22StandalonePluginHolder12valueChangedERNS_5ValueE, symObjAddr: 0x5648, symBinAddr: 0x100007044, symSize: 0x6C }
  - { offset: 0x2CA775, size: 0x8, addend: 0x0, symName: __ZN4juce22StandaloneFilterWindow20MainContentComponent16NotificationAreaD1Ev, symObjAddr: 0x7074, symBinAddr: 0x100008A70, symSize: 0x40 }
  - { offset: 0x2CA910, size: 0x8, addend: 0x0, symName: __ZN4juce22StandaloneFilterWindow20MainContentComponent16NotificationAreaD0Ev, symObjAddr: 0x70B4, symBinAddr: 0x100008AB0, symSize: 0x44 }
  - { offset: 0x2CA9F7, size: 0x8, addend: 0x0, symName: __ZNK4juce9Component18findControlAtPointENS_5PointIfEE, symObjAddr: 0x70F8, symBinAddr: 0x100008AF4, symSize: 0x8 }
  - { offset: 0x2CAA2A, size: 0x8, addend: 0x0, symName: __ZN4juce9Component25windowControlClickedCloseEv, symObjAddr: 0x7100, symBinAddr: 0x100008AFC, symSize: 0x4 }
  - { offset: 0x2CAA4D, size: 0x8, addend: 0x0, symName: __ZN4juce9Component28windowControlClickedMinimiseEv, symObjAddr: 0x7104, symBinAddr: 0x100008B00, symSize: 0x4 }
  - { offset: 0x2CAA70, size: 0x8, addend: 0x0, symName: __ZN4juce9Component28windowControlClickedMaximiseEv, symObjAddr: 0x7108, symBinAddr: 0x100008B04, symSize: 0x4 }
  - { offset: 0x2CAAC3, size: 0x8, addend: 0x0, symName: __ZN4juce22StandaloneFilterWindow20MainContentComponent16NotificationArea5paintERNS_8GraphicsE, symObjAddr: 0x710C, symBinAddr: 0x100008B08, symSize: 0xA8 }
  - { offset: 0x2CACF7, size: 0x8, addend: 0x0, symName: __ZN4juce22StandaloneFilterWindow20MainContentComponent16NotificationArea7resizedEv, symObjAddr: 0x71B4, symBinAddr: 0x100008BB0, symSize: 0x70 }
  - { offset: 0x2CAEE4, size: 0x8, addend: 0x0, symName: __ZN4juce22StandaloneFilterWindow20MainContentComponentD1Ev, symObjAddr: 0x7224, symBinAddr: 0x100008C20, symSize: 0x4 }
  - { offset: 0x2CAF08, size: 0x8, addend: 0x0, symName: __ZN4juce22StandaloneFilterWindow20MainContentComponentD1Ev, symObjAddr: 0x7224, symBinAddr: 0x100008C20, symSize: 0x4 }
  - { offset: 0x2CAF13, size: 0x8, addend: 0x0, symName: __ZN4juce22StandaloneFilterWindow20MainContentComponentD2Ev, symObjAddr: 0x7744, symBinAddr: 0x100009140, symSize: 0x124 }
  - { offset: 0x2CB539, size: 0x8, addend: 0x0, symName: __ZN4juce22StandaloneFilterWindow20MainContentComponentD0Ev, symObjAddr: 0x7228, symBinAddr: 0x100008C24, symSize: 0x14 }
  - { offset: 0x2CB667, size: 0x8, addend: 0x0, symName: __ZN4juce22StandaloneFilterWindow20MainContentComponent7resizedEv, symObjAddr: 0x723C, symBinAddr: 0x100008C38, symSize: 0x2B4 }
  - { offset: 0x2CBBD2, size: 0x8, addend: 0x0, symName: __ZN4juce22StandaloneFilterWindow20MainContentComponent12valueChangedERNS_5ValueE, symObjAddr: 0x74F0, symBinAddr: 0x100008EEC, symSize: 0xDC }
  - { offset: 0x2CBEB2, size: 0x8, addend: 0x0, symName: __ZN4juce22StandaloneFilterWindow20MainContentComponent13buttonClickedEPNS_6ButtonE, symObjAddr: 0x75CC, symBinAddr: 0x100008FC8, symSize: 0xC }
  - { offset: 0x2CBF0C, size: 0x8, addend: 0x0, symName: __ZN4juce22StandalonePluginHolder23showAudioSettingsDialogEv, symObjAddr: 0x7868, symBinAddr: 0x100009264, symSize: 0x12C8 }
  - { offset: 0x2D0C42, size: 0x8, addend: 0x0, symName: __ZN4juce22StandaloneFilterWindow20MainContentComponent23componentMovedOrResizedERNS_9ComponentEbb, symObjAddr: 0x75D8, symBinAddr: 0x100008FD4, symSize: 0x74 }
  - { offset: 0x2D0ED0, size: 0x8, addend: 0x0, symName: __ZThn240_N4juce22StandaloneFilterWindow20MainContentComponentD1Ev, symObjAddr: 0x764C, symBinAddr: 0x100009048, symSize: 0x8 }
  - { offset: 0x2D0F2F, size: 0x8, addend: 0x0, symName: __ZThn240_N4juce22StandaloneFilterWindow20MainContentComponentD0Ev, symObjAddr: 0x7654, symBinAddr: 0x100009050, symSize: 0x18 }
  - { offset: 0x2D0F94, size: 0x8, addend: 0x0, symName: __ZThn240_N4juce22StandaloneFilterWindow20MainContentComponent12valueChangedERNS_5ValueE, symObjAddr: 0x766C, symBinAddr: 0x100009068, symSize: 0x8 }
  - { offset: 0x2D0FBB, size: 0x8, addend: 0x0, symName: __ZThn248_N4juce22StandaloneFilterWindow20MainContentComponentD1Ev, symObjAddr: 0x7674, symBinAddr: 0x100009070, symSize: 0x8 }
  - { offset: 0x2D1000, size: 0x8, addend: 0x0, symName: __ZThn248_N4juce22StandaloneFilterWindow20MainContentComponentD0Ev, symObjAddr: 0x767C, symBinAddr: 0x100009078, symSize: 0x18 }
  - { offset: 0x2D1085, size: 0x8, addend: 0x0, symName: __ZThn248_N4juce22StandaloneFilterWindow20MainContentComponent13buttonClickedEPNS_6ButtonE, symObjAddr: 0x7694, symBinAddr: 0x100009090, symSize: 0xC }
  - { offset: 0x2D10A1, size: 0x8, addend: 0x0, symName: __ZThn248_N4juce22StandaloneFilterWindow20MainContentComponent13buttonClickedEPNS_6ButtonE, symObjAddr: 0x7694, symBinAddr: 0x100009090, symSize: 0xC }
  - { offset: 0x2D10EF, size: 0x8, addend: 0x0, symName: __ZN4juce6Button8Listener18buttonStateChangedEPS0_, symObjAddr: 0x76A0, symBinAddr: 0x10000909C, symSize: 0x4 }
  - { offset: 0x2D111B, size: 0x8, addend: 0x0, symName: __ZThn256_N4juce22StandaloneFilterWindow20MainContentComponentD1Ev, symObjAddr: 0x76A4, symBinAddr: 0x1000090A0, symSize: 0x8 }
  - { offset: 0x2D1160, size: 0x8, addend: 0x0, symName: __ZThn256_N4juce22StandaloneFilterWindow20MainContentComponentD0Ev, symObjAddr: 0x76AC, symBinAddr: 0x1000090A8, symSize: 0x18 }
  - { offset: 0x2D11F9, size: 0x8, addend: 0x0, symName: __ZThn256_N4juce22StandaloneFilterWindow20MainContentComponent23componentMovedOrResizedERNS_9ComponentEbb, symObjAddr: 0x76C4, symBinAddr: 0x1000090C0, symSize: 0x80 }
  - { offset: 0x2D1974, size: 0x8, addend: 0x0, symName: __ZN4juce12DialogWindow13LaunchOptionsD1Ev, symObjAddr: 0x8B30, symBinAddr: 0x10000A52C, symSize: 0xA4 }
  - { offset: 0x2D1C89, size: 0x8, addend: 0x0, symName: __ZN4juce22StandalonePluginHolder17SettingsComponentD1Ev, symObjAddr: 0x8BD4, symBinAddr: 0x10000A5D0, symSize: 0x48 }
  - { offset: 0x2D1D89, size: 0x8, addend: 0x0, symName: __ZN4juce22StandalonePluginHolder17SettingsComponentD0Ev, symObjAddr: 0x8C1C, symBinAddr: 0x10000A618, symSize: 0x4C }
  - { offset: 0x2D1E95, size: 0x8, addend: 0x0, symName: __ZN4juce22StandalonePluginHolder17SettingsComponent5paintERNS_8GraphicsE, symObjAddr: 0x8C68, symBinAddr: 0x10000A664, symSize: 0xA8 }
  - { offset: 0x2D2135, size: 0x8, addend: 0x0, symName: __ZN4juce22StandalonePluginHolder17SettingsComponent7resizedEv, symObjAddr: 0x8D10, symBinAddr: 0x10000A70C, symSize: 0xE4 }
  - { offset: 0x2D242F, size: 0x8, addend: 0x0, symName: __ZN4juce22StandalonePluginHolder17SettingsComponent18childBoundsChangedEPNS_9ComponentE, symObjAddr: 0x8DF4, symBinAddr: 0x10000A7F0, symSize: 0x4C }
  - { offset: 0x2D25E7, size: 0x8, addend: 0x0, symName: __ZN4juce22StandaloneFilterWindow20DecoratorConstrainerD1Ev, symObjAddr: 0x8E40, symBinAddr: 0x10000A83C, symSize: 0x4 }
  - { offset: 0x2D2614, size: 0x8, addend: 0x0, symName: __ZN4juce22StandaloneFilterWindow20DecoratorConstrainerD0Ev, symObjAddr: 0x8E44, symBinAddr: 0x10000A840, symSize: 0x4 }
  - { offset: 0x2D267E, size: 0x8, addend: 0x0, symName: __ZNK4juce22StandaloneFilterWindow20DecoratorConstrainer21getWrappedConstrainerEv, symObjAddr: 0x8E48, symBinAddr: 0x10000A844, symSize: 0x20 }
  - { offset: 0x2D2801, size: 0x8, addend: 0x0, symName: __ZNK4juce22StandaloneFilterWindow20DecoratorConstrainer19getAdditionalBorderEv, symObjAddr: 0x8E68, symBinAddr: 0x10000A864, symSize: 0x140 }
  - { offset: 0x2D29DC, size: 0x8, addend: 0x0, symName: __ZN4juce22StandaloneFilterWindowD1Ev, symObjAddr: 0x8FA8, symBinAddr: 0x10000A9A4, symSize: 0x4 }
  - { offset: 0x2D2A00, size: 0x8, addend: 0x0, symName: __ZN4juce22StandaloneFilterWindowD1Ev, symObjAddr: 0x8FA8, symBinAddr: 0x10000A9A4, symSize: 0x4 }
  - { offset: 0x2D2A0B, size: 0x8, addend: 0x0, symName: __ZN4juce22StandaloneFilterWindowD2Ev, symObjAddr: 0x9400, symBinAddr: 0x10000ADFC, symSize: 0x120 }
  - { offset: 0x2D2E51, size: 0x8, addend: 0x0, symName: __ZN4juce22StandaloneFilterWindowD0Ev, symObjAddr: 0x8FAC, symBinAddr: 0x10000A9A8, symSize: 0x14 }
  - { offset: 0x2D2EA0, size: 0x8, addend: 0x0, symName: __ZN4juce22StandaloneFilterWindow7resizedEv, symObjAddr: 0x8FC0, symBinAddr: 0x10000A9BC, symSize: 0x74 }
  - { offset: 0x2D2FB2, size: 0x8, addend: 0x0, symName: __ZN4juce22StandaloneFilterWindow18closeButtonPressedEv, symObjAddr: 0x9034, symBinAddr: 0x10000AA30, symSize: 0x1C }
  - { offset: 0x2D3053, size: 0x8, addend: 0x0, symName: __ZN4juce22StandaloneFilterWindow15getPluginHolderEv, symObjAddr: 0x9050, symBinAddr: 0x10000AA4C, symSize: 0x8 }
  - { offset: 0x2D307D, size: 0x8, addend: 0x0, symName: __ZN4juce22StandaloneFilterWindow15getPluginHolderEv, symObjAddr: 0x9050, symBinAddr: 0x10000AA4C, symSize: 0x8 }
  - { offset: 0x2D3890, size: 0x8, addend: 0x0, symName: __ZN4juce22StandaloneFilterWindow13buttonClickedEPNS_6ButtonE, symObjAddr: 0x9058, symBinAddr: 0x10000AA54, symSize: 0x380 }
  - { offset: 0x2D4F0D, size: 0x8, addend: 0x0, symName: __ZN4juce9PopupMenu7OptionsD1Ev, symObjAddr: 0x9CCC, symBinAddr: 0x10000B6C8, symSize: 0xC0 }
  - { offset: 0x2D556C, size: 0x8, addend: 0x0, symName: __ZThn440_N4juce22StandaloneFilterWindowD1Ev, symObjAddr: 0x93D8, symBinAddr: 0x10000ADD4, symSize: 0x8 }
  - { offset: 0x2D55CB, size: 0x8, addend: 0x0, symName: __ZThn440_N4juce22StandaloneFilterWindowD0Ev, symObjAddr: 0x93E0, symBinAddr: 0x10000ADDC, symSize: 0x18 }
  - { offset: 0x2D5630, size: 0x8, addend: 0x0, symName: __ZThn440_N4juce22StandaloneFilterWindow13buttonClickedEPNS_6ButtonE, symObjAddr: 0x93F8, symBinAddr: 0x10000ADF4, symSize: 0x8 }
  - { offset: 0x2D5BFF, size: 0x8, addend: 0x0, symName: __ZN4juce22StandaloneFilterWindow12menuCallbackEiPS0_, symObjAddr: 0x9520, symBinAddr: 0x10000AF1C, symSize: 0x7AC }
  - { offset: 0x2D75A3, size: 0x8, addend: 0x0, symName: __ZNK4juce22StandalonePluginHolder11getLastFileEv, symObjAddr: 0x9E88, symBinAddr: 0x10000B884, symSize: 0x1A0 }
  - { offset: 0x2D8083, size: 0x8, addend: 0x0, symName: __ZZN4juce21ModalCallbackFunction6createIZNS0_12forComponentINS_22StandaloneFilterWindowEEEPNS_21ModalComponentManager8CallbackEPFviPT_ES8_EUliE_EES6_OS7_EN8CallableD1Ev, symObjAddr: 0x9D8C, symBinAddr: 0x10000B788, symSize: 0x58 }
  - { offset: 0x2D80A9, size: 0x8, addend: 0x0, symName: __ZZN4juce21ModalCallbackFunction6createIZNS0_12forComponentINS_22StandaloneFilterWindowEEEPNS_21ModalComponentManager8CallbackEPFviPT_ES8_EUliE_EES6_OS7_EN8CallableD1Ev, symObjAddr: 0x9D8C, symBinAddr: 0x10000B788, symSize: 0x58 }
  - { offset: 0x2D82AD, size: 0x8, addend: 0x0, symName: __ZZN4juce21ModalCallbackFunction6createIZNS0_12forComponentINS_22StandaloneFilterWindowEEEPNS_21ModalComponentManager8CallbackEPFviPT_ES8_EUliE_EES6_OS7_EN8CallableD0Ev, symObjAddr: 0x9DE4, symBinAddr: 0x10000B7E0, symSize: 0x58 }
  - { offset: 0x2D82DD, size: 0x8, addend: 0x0, symName: __ZZN4juce21ModalCallbackFunction6createIZNS0_12forComponentINS_22StandaloneFilterWindowEEEPNS_21ModalComponentManager8CallbackEPFviPT_ES8_EUliE_EES6_OS7_EN8CallableD0Ev, symObjAddr: 0x9DE4, symBinAddr: 0x10000B7E0, symSize: 0x58 }
  - { offset: 0x2D82FC, size: 0x8, addend: 0x0, symName: __ZZN4juce21ModalCallbackFunction6createIZNS0_12forComponentINS_22StandaloneFilterWindowEEEPNS_21ModalComponentManager8CallbackEPFviPT_ES8_EUliE_EES6_OS7_EN8CallableD0Ev, symObjAddr: 0x9DE4, symBinAddr: 0x10000B7E0, symSize: 0x58 }
  - { offset: 0x2D8580, size: 0x8, addend: 0x0, symName: __ZZN4juce21ModalCallbackFunction6createIZNS0_12forComponentINS_22StandaloneFilterWindowEEEPNS_21ModalComponentManager8CallbackEPFviPT_ES8_EUliE_EES6_OS7_EN8Callable18modalStateFinishedEi, symObjAddr: 0x9E3C, symBinAddr: 0x10000B838, symSize: 0x24 }
  - { offset: 0x2D8689, size: 0x8, addend: 0x0, symName: __ZN4juce13WeakReferenceINS_9ComponentENS_22ReferenceCountedObjectEE13SharedPointerD1Ev, symObjAddr: 0x9E60, symBinAddr: 0x10000B85C, symSize: 0x10 }
  - { offset: 0x2D86B7, size: 0x8, addend: 0x0, symName: __ZN4juce13WeakReferenceINS_9ComponentENS_22ReferenceCountedObjectEE13SharedPointerD1Ev, symObjAddr: 0x9E60, symBinAddr: 0x10000B85C, symSize: 0x10 }
  - { offset: 0x2D86D4, size: 0x8, addend: 0x0, symName: __ZN4juce13WeakReferenceINS_9ComponentENS_22ReferenceCountedObjectEE13SharedPointerD1Ev, symObjAddr: 0x9E60, symBinAddr: 0x10000B85C, symSize: 0x10 }
  - { offset: 0x2D86F0, size: 0x8, addend: 0x0, symName: __ZN4juce13WeakReferenceINS_9ComponentENS_22ReferenceCountedObjectEE13SharedPointerD0Ev, symObjAddr: 0x9E70, symBinAddr: 0x10000B86C, symSize: 0x4 }
  - { offset: 0x2D871B, size: 0x8, addend: 0x0, symName: __ZN4juce22ReferenceCountedObjectD1Ev, symObjAddr: 0x9E74, symBinAddr: 0x10000B870, symSize: 0x10 }
  - { offset: 0x2D8747, size: 0x8, addend: 0x0, symName: __ZN4juce22ReferenceCountedObjectD1Ev, symObjAddr: 0x9E74, symBinAddr: 0x10000B870, symSize: 0x10 }
  - { offset: 0x2D8762, size: 0x8, addend: 0x0, symName: __ZN4juce22ReferenceCountedObjectD0Ev, symObjAddr: 0x9E84, symBinAddr: 0x10000B880, symSize: 0x4 }
  - { offset: 0x2D87C3, size: 0x8, addend: 0x0, symName: __ZNSt3__110__function6__funcIZN4juce22StandalonePluginHolder18askUserToLoadStateERKNS2_6StringEEUlRKNS2_11FileChooserEE_NS_9allocatorISA_EEFvS9_EED1Ev, symObjAddr: 0xA028, symBinAddr: 0x10000BA24, symSize: 0x4 }
  - { offset: 0x2D87EE, size: 0x8, addend: 0x0, symName: __ZNSt3__110__function6__funcIZN4juce22StandalonePluginHolder18askUserToLoadStateERKNS2_6StringEEUlRKNS2_11FileChooserEE_NS_9allocatorISA_EEFvS9_EED0Ev, symObjAddr: 0xA02C, symBinAddr: 0x10000BA28, symSize: 0x4 }
  - { offset: 0x2D8A03, size: 0x8, addend: 0x0, symName: __ZNKSt3__110__function6__funcIZN4juce22StandalonePluginHolder18askUserToLoadStateERKNS2_6StringEEUlRKNS2_11FileChooserEE_NS_9allocatorISA_EEFvS9_EE7__cloneEv, symObjAddr: 0xA030, symBinAddr: 0x10000BA2C, symSize: 0x34 }
  - { offset: 0x2D8D1C, size: 0x8, addend: 0x0, symName: __ZNKSt3__110__function6__funcIZN4juce22StandalonePluginHolder18askUserToLoadStateERKNS2_6StringEEUlRKNS2_11FileChooserEE_NS_9allocatorISA_EEFvS9_EE7__cloneEPNS0_6__baseISD_EE, symObjAddr: 0xA064, symBinAddr: 0x10000BA60, symSize: 0x14 }
  - { offset: 0x2D8D53, size: 0x8, addend: 0x0, symName: __ZNKSt3__110__function6__funcIZN4juce22StandalonePluginHolder18askUserToLoadStateERKNS2_6StringEEUlRKNS2_11FileChooserEE_NS_9allocatorISA_EEFvS9_EE7__cloneEPNS0_6__baseISD_EE, symObjAddr: 0xA064, symBinAddr: 0x10000BA60, symSize: 0x14 }
  - { offset: 0x2D8D85, size: 0x8, addend: 0x0, symName: __ZNKSt3__110__function6__funcIZN4juce22StandalonePluginHolder18askUserToLoadStateERKNS2_6StringEEUlRKNS2_11FileChooserEE_NS_9allocatorISA_EEFvS9_EE7__cloneEPNS0_6__baseISD_EE, symObjAddr: 0xA064, symBinAddr: 0x10000BA60, symSize: 0x14 }
  - { offset: 0x2D8DB7, size: 0x8, addend: 0x0, symName: __ZNKSt3__110__function6__funcIZN4juce22StandalonePluginHolder18askUserToLoadStateERKNS2_6StringEEUlRKNS2_11FileChooserEE_NS_9allocatorISA_EEFvS9_EE7__cloneEPNS0_6__baseISD_EE, symObjAddr: 0xA064, symBinAddr: 0x10000BA60, symSize: 0x14 }
  - { offset: 0x2D8DCD, size: 0x8, addend: 0x0, symName: __ZNKSt3__110__function6__funcIZN4juce22StandalonePluginHolder18askUserToLoadStateERKNS2_6StringEEUlRKNS2_11FileChooserEE_NS_9allocatorISA_EEFvS9_EE7__cloneEPNS0_6__baseISD_EE, symObjAddr: 0xA064, symBinAddr: 0x10000BA60, symSize: 0x14 }
  - { offset: 0x2D8DE2, size: 0x8, addend: 0x0, symName: __ZNKSt3__110__function6__funcIZN4juce22StandalonePluginHolder18askUserToLoadStateERKNS2_6StringEEUlRKNS2_11FileChooserEE_NS_9allocatorISA_EEFvS9_EE7__cloneEPNS0_6__baseISD_EE, symObjAddr: 0xA064, symBinAddr: 0x10000BA60, symSize: 0x14 }
  - { offset: 0x2D8DF7, size: 0x8, addend: 0x0, symName: __ZNKSt3__110__function6__funcIZN4juce22StandalonePluginHolder18askUserToLoadStateERKNS2_6StringEEUlRKNS2_11FileChooserEE_NS_9allocatorISA_EEFvS9_EE7__cloneEPNS0_6__baseISD_EE, symObjAddr: 0xA064, symBinAddr: 0x10000BA60, symSize: 0x14 }
  - { offset: 0x2D8E0C, size: 0x8, addend: 0x0, symName: __ZNKSt3__110__function6__funcIZN4juce22StandalonePluginHolder18askUserToLoadStateERKNS2_6StringEEUlRKNS2_11FileChooserEE_NS_9allocatorISA_EEFvS9_EE7__cloneEPNS0_6__baseISD_EE, symObjAddr: 0xA064, symBinAddr: 0x10000BA60, symSize: 0x14 }
  - { offset: 0x2D8E24, size: 0x8, addend: 0x0, symName: __ZNSt3__110__function6__funcIZN4juce22StandalonePluginHolder18askUserToLoadStateERKNS2_6StringEEUlRKNS2_11FileChooserEE_NS_9allocatorISA_EEFvS9_EE7destroyEv, symObjAddr: 0xA078, symBinAddr: 0x10000BA74, symSize: 0x4 }
  - { offset: 0x2D8E75, size: 0x8, addend: 0x0, symName: __ZNSt3__110__function6__funcIZN4juce22StandalonePluginHolder18askUserToLoadStateERKNS2_6StringEEUlRKNS2_11FileChooserEE_NS_9allocatorISA_EEFvS9_EE18destroy_deallocateEv, symObjAddr: 0xA07C, symBinAddr: 0x10000BA78, symSize: 0x4 }
  - { offset: 0x2D8EAA, size: 0x8, addend: 0x0, symName: __ZNSt3__110__function6__funcIZN4juce22StandalonePluginHolder18askUserToLoadStateERKNS2_6StringEEUlRKNS2_11FileChooserEE_NS_9allocatorISA_EEFvS9_EE18destroy_deallocateEv, symObjAddr: 0xA07C, symBinAddr: 0x10000BA78, symSize: 0x4 }
  - { offset: 0x2D8ECF, size: 0x8, addend: 0x0, symName: __ZNSt3__110__function6__funcIZN4juce22StandalonePluginHolder18askUserToLoadStateERKNS2_6StringEEUlRKNS2_11FileChooserEE_NS_9allocatorISA_EEFvS9_EE18destroy_deallocateEv, symObjAddr: 0xA07C, symBinAddr: 0x10000BA78, symSize: 0x4 }
  - { offset: 0x2D8EFE, size: 0x8, addend: 0x0, symName: __ZNSt3__110__function6__funcIZN4juce22StandalonePluginHolder18askUserToLoadStateERKNS2_6StringEEUlRKNS2_11FileChooserEE_NS_9allocatorISA_EEFvS9_EE18destroy_deallocateEv, symObjAddr: 0xA07C, symBinAddr: 0x10000BA78, symSize: 0x4 }
  - { offset: 0x2D8F28, size: 0x8, addend: 0x0, symName: __ZNSt3__110__function6__funcIZN4juce22StandalonePluginHolder18askUserToLoadStateERKNS2_6StringEEUlRKNS2_11FileChooserEE_NS_9allocatorISA_EEFvS9_EE18destroy_deallocateEv, symObjAddr: 0xA07C, symBinAddr: 0x10000BA78, symSize: 0x4 }
  - { offset: 0x2D927D, size: 0x8, addend: 0x0, symName: __ZNSt3__110__function6__funcIZN4juce22StandalonePluginHolder18askUserToLoadStateERKNS2_6StringEEUlRKNS2_11FileChooserEE_NS_9allocatorISA_EEFvS9_EEclES9_, symObjAddr: 0xA080, symBinAddr: 0x10000BA7C, symSize: 0x4E4 }
  - { offset: 0x2DACF2, size: 0x8, addend: 0x0, symName: __ZN4juce22StandalonePluginHolder11setLastFileERKNS_11FileChooserE, symObjAddr: 0xA5D4, symBinAddr: 0x10000BFD0, symSize: 0xF0 }
  - { offset: 0x2DB222, size: 0x8, addend: 0x0, symName: __ZN4juce17MessageBoxOptionsD1Ev, symObjAddr: 0xA6C4, symBinAddr: 0x10000C0C0, symSize: 0x118 }
  - { offset: 0x2DBA82, size: 0x8, addend: 0x0, symName: __ZNKSt3__110__function6__funcIZN4juce22StandalonePluginHolder18askUserToLoadStateERKNS2_6StringEEUlRKNS2_11FileChooserEE_NS_9allocatorISA_EEFvS9_EE6targetERKSt9type_info, symObjAddr: 0xA564, symBinAddr: 0x10000BF60, symSize: 0x64 }
  - { offset: 0x2DBB57, size: 0x8, addend: 0x0, symName: __ZNKSt3__110__function6__funcIZN4juce22StandalonePluginHolder18askUserToLoadStateERKNS2_6StringEEUlRKNS2_11FileChooserEE_NS_9allocatorISA_EEFvS9_EE11target_typeEv, symObjAddr: 0xA5C8, symBinAddr: 0x10000BFC4, symSize: 0xC }
  - { offset: 0x2DBB7A, size: 0x8, addend: 0x0, symName: __ZNSt3__110__function6__funcIZN4juce22StandalonePluginHolder18askUserToSaveStateERKNS2_6StringEEUlRKNS2_11FileChooserEE_NS_9allocatorISA_EEFvS9_EED1Ev, symObjAddr: 0xA7DC, symBinAddr: 0x10000C1D8, symSize: 0x4 }
  - { offset: 0x2DBBA5, size: 0x8, addend: 0x0, symName: __ZNSt3__110__function6__funcIZN4juce22StandalonePluginHolder18askUserToSaveStateERKNS2_6StringEEUlRKNS2_11FileChooserEE_NS_9allocatorISA_EEFvS9_EED0Ev, symObjAddr: 0xA7E0, symBinAddr: 0x10000C1DC, symSize: 0x4 }
  - { offset: 0x2DBDBA, size: 0x8, addend: 0x0, symName: __ZNKSt3__110__function6__funcIZN4juce22StandalonePluginHolder18askUserToSaveStateERKNS2_6StringEEUlRKNS2_11FileChooserEE_NS_9allocatorISA_EEFvS9_EE7__cloneEv, symObjAddr: 0xA7E4, symBinAddr: 0x10000C1E0, symSize: 0x34 }
  - { offset: 0x2DC0D3, size: 0x8, addend: 0x0, symName: __ZNKSt3__110__function6__funcIZN4juce22StandalonePluginHolder18askUserToSaveStateERKNS2_6StringEEUlRKNS2_11FileChooserEE_NS_9allocatorISA_EEFvS9_EE7__cloneEPNS0_6__baseISD_EE, symObjAddr: 0xA818, symBinAddr: 0x10000C214, symSize: 0x14 }
  - { offset: 0x2DC10A, size: 0x8, addend: 0x0, symName: __ZNKSt3__110__function6__funcIZN4juce22StandalonePluginHolder18askUserToSaveStateERKNS2_6StringEEUlRKNS2_11FileChooserEE_NS_9allocatorISA_EEFvS9_EE7__cloneEPNS0_6__baseISD_EE, symObjAddr: 0xA818, symBinAddr: 0x10000C214, symSize: 0x14 }
  - { offset: 0x2DC13C, size: 0x8, addend: 0x0, symName: __ZNKSt3__110__function6__funcIZN4juce22StandalonePluginHolder18askUserToSaveStateERKNS2_6StringEEUlRKNS2_11FileChooserEE_NS_9allocatorISA_EEFvS9_EE7__cloneEPNS0_6__baseISD_EE, symObjAddr: 0xA818, symBinAddr: 0x10000C214, symSize: 0x14 }
  - { offset: 0x2DC16E, size: 0x8, addend: 0x0, symName: __ZNKSt3__110__function6__funcIZN4juce22StandalonePluginHolder18askUserToSaveStateERKNS2_6StringEEUlRKNS2_11FileChooserEE_NS_9allocatorISA_EEFvS9_EE7__cloneEPNS0_6__baseISD_EE, symObjAddr: 0xA818, symBinAddr: 0x10000C214, symSize: 0x14 }
  - { offset: 0x2DC184, size: 0x8, addend: 0x0, symName: __ZNKSt3__110__function6__funcIZN4juce22StandalonePluginHolder18askUserToSaveStateERKNS2_6StringEEUlRKNS2_11FileChooserEE_NS_9allocatorISA_EEFvS9_EE7__cloneEPNS0_6__baseISD_EE, symObjAddr: 0xA818, symBinAddr: 0x10000C214, symSize: 0x14 }
  - { offset: 0x2DC199, size: 0x8, addend: 0x0, symName: __ZNKSt3__110__function6__funcIZN4juce22StandalonePluginHolder18askUserToSaveStateERKNS2_6StringEEUlRKNS2_11FileChooserEE_NS_9allocatorISA_EEFvS9_EE7__cloneEPNS0_6__baseISD_EE, symObjAddr: 0xA818, symBinAddr: 0x10000C214, symSize: 0x14 }
  - { offset: 0x2DC1AE, size: 0x8, addend: 0x0, symName: __ZNKSt3__110__function6__funcIZN4juce22StandalonePluginHolder18askUserToSaveStateERKNS2_6StringEEUlRKNS2_11FileChooserEE_NS_9allocatorISA_EEFvS9_EE7__cloneEPNS0_6__baseISD_EE, symObjAddr: 0xA818, symBinAddr: 0x10000C214, symSize: 0x14 }
  - { offset: 0x2DC1C3, size: 0x8, addend: 0x0, symName: __ZNKSt3__110__function6__funcIZN4juce22StandalonePluginHolder18askUserToSaveStateERKNS2_6StringEEUlRKNS2_11FileChooserEE_NS_9allocatorISA_EEFvS9_EE7__cloneEPNS0_6__baseISD_EE, symObjAddr: 0xA818, symBinAddr: 0x10000C214, symSize: 0x14 }
  - { offset: 0x2DC1DB, size: 0x8, addend: 0x0, symName: __ZNSt3__110__function6__funcIZN4juce22StandalonePluginHolder18askUserToSaveStateERKNS2_6StringEEUlRKNS2_11FileChooserEE_NS_9allocatorISA_EEFvS9_EE7destroyEv, symObjAddr: 0xA82C, symBinAddr: 0x10000C228, symSize: 0x4 }
  - { offset: 0x2DC22C, size: 0x8, addend: 0x0, symName: __ZNSt3__110__function6__funcIZN4juce22StandalonePluginHolder18askUserToSaveStateERKNS2_6StringEEUlRKNS2_11FileChooserEE_NS_9allocatorISA_EEFvS9_EE18destroy_deallocateEv, symObjAddr: 0xA830, symBinAddr: 0x10000C22C, symSize: 0x4 }
  - { offset: 0x2DC261, size: 0x8, addend: 0x0, symName: __ZNSt3__110__function6__funcIZN4juce22StandalonePluginHolder18askUserToSaveStateERKNS2_6StringEEUlRKNS2_11FileChooserEE_NS_9allocatorISA_EEFvS9_EE18destroy_deallocateEv, symObjAddr: 0xA830, symBinAddr: 0x10000C22C, symSize: 0x4 }
  - { offset: 0x2DC286, size: 0x8, addend: 0x0, symName: __ZNSt3__110__function6__funcIZN4juce22StandalonePluginHolder18askUserToSaveStateERKNS2_6StringEEUlRKNS2_11FileChooserEE_NS_9allocatorISA_EEFvS9_EE18destroy_deallocateEv, symObjAddr: 0xA830, symBinAddr: 0x10000C22C, symSize: 0x4 }
  - { offset: 0x2DC2B5, size: 0x8, addend: 0x0, symName: __ZNSt3__110__function6__funcIZN4juce22StandalonePluginHolder18askUserToSaveStateERKNS2_6StringEEUlRKNS2_11FileChooserEE_NS_9allocatorISA_EEFvS9_EE18destroy_deallocateEv, symObjAddr: 0xA830, symBinAddr: 0x10000C22C, symSize: 0x4 }
  - { offset: 0x2DC2DF, size: 0x8, addend: 0x0, symName: __ZNSt3__110__function6__funcIZN4juce22StandalonePluginHolder18askUserToSaveStateERKNS2_6StringEEUlRKNS2_11FileChooserEE_NS_9allocatorISA_EEFvS9_EE18destroy_deallocateEv, symObjAddr: 0xA830, symBinAddr: 0x10000C22C, symSize: 0x4 }
  - { offset: 0x2DC3AF, size: 0x8, addend: 0x0, symName: __ZNSt3__110__function6__funcIZN4juce22StandalonePluginHolder18askUserToSaveStateERKNS2_6StringEEUlRKNS2_11FileChooserEE_NS_9allocatorISA_EEFvS9_EEclES9_, symObjAddr: 0xA834, symBinAddr: 0x10000C230, symSize: 0x494 }
  - { offset: 0x2DDCB2, size: 0x8, addend: 0x0, symName: __ZNKSt3__110__function6__funcIZN4juce22StandalonePluginHolder18askUserToSaveStateERKNS2_6StringEEUlRKNS2_11FileChooserEE_NS_9allocatorISA_EEFvS9_EE6targetERKSt9type_info, symObjAddr: 0xACC8, symBinAddr: 0x10000C6C4, symSize: 0x64 }
  - { offset: 0x2DDD70, size: 0x8, addend: 0x0, symName: __ZNKSt3__110__function6__funcIZN4juce22StandalonePluginHolder18askUserToSaveStateERKNS2_6StringEEUlRKNS2_11FileChooserEE_NS_9allocatorISA_EEFvS9_EE11target_typeEv, symObjAddr: 0xAD2C, symBinAddr: 0x10000C728, symSize: 0xC }
  - { offset: 0x2DDD95, size: 0x8, addend: 0x0, symName: __ZNSt3__110__function6__funcIZN4juce19StandaloneFilterApp19systemRequestedQuitEvEUlvE_NS_9allocatorIS4_EEFvvEED1Ev, symObjAddr: 0xAE14, symBinAddr: 0x10000C810, symSize: 0x4 }
  - { offset: 0x2DDDC0, size: 0x8, addend: 0x0, symName: __ZNSt3__110__function6__funcIZN4juce19StandaloneFilterApp19systemRequestedQuitEvEUlvE_NS_9allocatorIS4_EEFvvEED0Ev, symObjAddr: 0xAE18, symBinAddr: 0x10000C814, symSize: 0x4 }
  - { offset: 0x2DDE7B, size: 0x8, addend: 0x0, symName: __ZNKSt3__110__function6__funcIZN4juce19StandaloneFilterApp19systemRequestedQuitEvEUlvE_NS_9allocatorIS4_EEFvvEE7__cloneEv, symObjAddr: 0xAE1C, symBinAddr: 0x10000C818, symSize: 0x24 }
  - { offset: 0x2DDFCF, size: 0x8, addend: 0x0, symName: __ZNSt3__110__function6__funcIZN4juce19StandaloneFilterApp19systemRequestedQuitEvEUlvE_NS_9allocatorIS4_EEFvvEE7destroyEv, symObjAddr: 0xAE50, symBinAddr: 0x10000C84C, symSize: 0x4 }
  - { offset: 0x2DE020, size: 0x8, addend: 0x0, symName: __ZNSt3__110__function6__funcIZN4juce19StandaloneFilterApp19systemRequestedQuitEvEUlvE_NS_9allocatorIS4_EEFvvEE18destroy_deallocateEv, symObjAddr: 0xAE54, symBinAddr: 0x10000C850, symSize: 0x4 }
  - { offset: 0x2DE055, size: 0x8, addend: 0x0, symName: __ZNSt3__110__function6__funcIZN4juce19StandaloneFilterApp19systemRequestedQuitEvEUlvE_NS_9allocatorIS4_EEFvvEE18destroy_deallocateEv, symObjAddr: 0xAE54, symBinAddr: 0x10000C850, symSize: 0x4 }
  - { offset: 0x2DE07A, size: 0x8, addend: 0x0, symName: __ZNSt3__110__function6__funcIZN4juce19StandaloneFilterApp19systemRequestedQuitEvEUlvE_NS_9allocatorIS4_EEFvvEE18destroy_deallocateEv, symObjAddr: 0xAE54, symBinAddr: 0x10000C850, symSize: 0x4 }
  - { offset: 0x2DE0A9, size: 0x8, addend: 0x0, symName: __ZNSt3__110__function6__funcIZN4juce19StandaloneFilterApp19systemRequestedQuitEvEUlvE_NS_9allocatorIS4_EEFvvEE18destroy_deallocateEv, symObjAddr: 0xAE54, symBinAddr: 0x10000C850, symSize: 0x4 }
  - { offset: 0x2DE0D3, size: 0x8, addend: 0x0, symName: __ZNSt3__110__function6__funcIZN4juce19StandaloneFilterApp19systemRequestedQuitEvEUlvE_NS_9allocatorIS4_EEFvvEE18destroy_deallocateEv, symObjAddr: 0xAE54, symBinAddr: 0x10000C850, symSize: 0x4 }
  - { offset: 0x2DE172, size: 0x8, addend: 0x0, symName: __ZNSt3__110__function6__funcIZN4juce19StandaloneFilterApp19systemRequestedQuitEvEUlvE_NS_9allocatorIS4_EEFvvEEclEv, symObjAddr: 0xAE58, symBinAddr: 0x10000C854, symSize: 0x1C }
  - { offset: 0x2DE198, size: 0x8, addend: 0x0, symName: __ZNSt3__110__function6__funcIZN4juce19StandaloneFilterApp19systemRequestedQuitEvEUlvE_NS_9allocatorIS4_EEFvvEEclEv, symObjAddr: 0xAE58, symBinAddr: 0x10000C854, symSize: 0x1C }
  - { offset: 0x2DE1AE, size: 0x8, addend: 0x0, symName: __ZNSt3__110__function6__funcIZN4juce19StandaloneFilterApp19systemRequestedQuitEvEUlvE_NS_9allocatorIS4_EEFvvEEclEv, symObjAddr: 0xAE58, symBinAddr: 0x10000C854, symSize: 0x1C }
  - { offset: 0x2DE1C3, size: 0x8, addend: 0x0, symName: __ZNSt3__110__function6__funcIZN4juce19StandaloneFilterApp19systemRequestedQuitEvEUlvE_NS_9allocatorIS4_EEFvvEEclEv, symObjAddr: 0xAE58, symBinAddr: 0x10000C854, symSize: 0x1C }
  - { offset: 0x2DE1D9, size: 0x8, addend: 0x0, symName: __ZNSt3__110__function6__funcIZN4juce19StandaloneFilterApp19systemRequestedQuitEvEUlvE_NS_9allocatorIS4_EEFvvEEclEv, symObjAddr: 0xAE58, symBinAddr: 0x10000C854, symSize: 0x1C }
  - { offset: 0x2DE1FF, size: 0x8, addend: 0x0, symName: __ZNSt3__110__function6__funcIZN4juce19StandaloneFilterApp19systemRequestedQuitEvEUlvE_NS_9allocatorIS4_EEFvvEEclEv, symObjAddr: 0xAE58, symBinAddr: 0x10000C854, symSize: 0x1C }
  - { offset: 0x2DE223, size: 0x8, addend: 0x0, symName: __ZNKSt3__110__function6__funcIZN4juce19StandaloneFilterApp19systemRequestedQuitEvEUlvE_NS_9allocatorIS4_EEFvvEE6targetERKSt9type_info, symObjAddr: 0xAE74, symBinAddr: 0x10000C870, symSize: 0x64 }
  - { offset: 0x2DE2E1, size: 0x8, addend: 0x0, symName: __ZNKSt3__110__function6__funcIZN4juce19StandaloneFilterApp19systemRequestedQuitEvEUlvE_NS_9allocatorIS4_EEFvvEE11target_typeEv, symObjAddr: 0xAED8, symBinAddr: 0x10000C8D4, symSize: 0xC }
  - { offset: 0x2DE304, size: 0x8, addend: 0x0, symName: _main, symObjAddr: 0xAEE4, symBinAddr: 0x10000C8E0, symSize: 0x1C0 }
  - { offset: 0x46EF14, size: 0x8, addend: 0x0, symName: __ZN10BinaryDataL18temp_binary_data_5E, symObjAddr: 0x5C33B1, symBinAddr: 0x1005A19E1, symSize: 0x0 }
  - { offset: 0x46EF2F, size: 0x8, addend: 0x0, symName: __ZN10BinaryDataL18temp_binary_data_7E, symObjAddr: 0x6653BF, symBinAddr: 0x1006439EF, symSize: 0x0 }
  - { offset: 0x46EF4A, size: 0x8, addend: 0x0, symName: __ZN10BinaryDataL18temp_binary_data_8E, symObjAddr: 0x67C720, symBinAddr: 0x10065AD50, symSize: 0x0 }
  - { offset: 0x78F184, size: 0x8, addend: 0x0, symName: __ZN4juce22juce_getExecutableFileEv, symObjAddr: 0xDCCE8, symBinAddr: 0x1000DDAEC, symSize: 0x110 }
  - { offset: 0x78F1B0, size: 0x8, addend: 0x0, symName: __ZZN4juce22juce_getExecutableFileEvE8filename, symObjAddr: 0x4640DF0, symBinAddr: 0x100785F60, symSize: 0x0 }
  - { offset: 0x79008C, size: 0x8, addend: 0x0, symName: __ZN4juce10Identifier4nullE, symObjAddr: 0x4640E10, symBinAddr: 0x100785F80, symSize: 0x0 }
  - { offset: 0x7900A7, size: 0x8, addend: 0x0, symName: __ZN4juce12_GLOBAL__N_119currentMappingsLockE, symObjAddr: 0x4640E18, symBinAddr: 0x100785F88, symSize: 0x0 }
  - { offset: 0x7900C0, size: 0x8, addend: 0x0, symName: __ZN4juce12_GLOBAL__N_115currentMappingsE, symObjAddr: 0x4640E20, symBinAddr: 0x100785F90, symSize: 0x0 }
  - { offset: 0x79015D, size: 0x8, addend: 0x0, symName: __ZN4juce12_GLOBAL__N_117getResultForErrnoEv, symObjAddr: 0xD64E8, symBinAddr: 0x1000D72EC, symSize: 0x180 }
  - { offset: 0x790D49, size: 0x8, addend: 0x0, symName: __ZN4juce11TimeHelpersL18lastMSCounterValueE.0, symObjAddr: 0x4640E98, symBinAddr: 0x100786008, symSize: 0x0 }
  - { offset: 0x79105B, size: 0x8, addend: 0x0, symName: __ZN4juce13zlibNamespace15z_deflateInit2_EPNS0_10z_stream_sEiiiiiPKci, symObjAddr: 0x107EBC, symBinAddr: 0x100108990, symSize: 0x25C }
  - { offset: 0x79118D, size: 0x8, addend: 0x0, symName: __ZN4juce13zlibNamespace13inflate_tableENS0_8codetypeEPtjPPNS0_4codeEPjS2_, symObjAddr: 0xE3748, symBinAddr: 0x1000E43E8, symSize: 0x748 }
  - { offset: 0x7911B7, size: 0x8, addend: 0x0, symName: __ZZN4juce13zlibNamespace13inflate_tableENS0_8codetypeEPtjPPNS0_4codeEPjS2_E5lbase, symObjAddr: 0x70AF26, symBinAddr: 0x1006E9536, symSize: 0x0 }
  - { offset: 0x7911CD, size: 0x8, addend: 0x0, symName: __ZZN4juce13zlibNamespace13inflate_tableENS0_8codetypeEPtjPPNS0_4codeEPjS2_E4lext, symObjAddr: 0x70AF64, symBinAddr: 0x1006E9574, symSize: 0x0 }
  - { offset: 0x7911E3, size: 0x8, addend: 0x0, symName: __ZZN4juce13zlibNamespace13inflate_tableENS0_8codetypeEPtjPPNS0_4codeEPjS2_E5dbase, symObjAddr: 0x70AFA2, symBinAddr: 0x1006E95B2, symSize: 0x0 }
  - { offset: 0x7911F9, size: 0x8, addend: 0x0, symName: __ZZN4juce13zlibNamespace13inflate_tableENS0_8codetypeEPtjPPNS0_4codeEPjS2_E4dext, symObjAddr: 0x70AFE2, symBinAddr: 0x1006E95F2, symSize: 0x0 }
  - { offset: 0x7913BE, size: 0x8, addend: 0x0, symName: __ZN4juce13zlibNamespace10_dist_codeE, symObjAddr: 0x70B022, symBinAddr: 0x1006E9632, symSize: 0x0 }
  - { offset: 0x7913E3, size: 0x8, addend: 0x0, symName: __ZN4juce13zlibNamespace12_length_codeE, symObjAddr: 0x70B222, symBinAddr: 0x1006E9832, symSize: 0x0 }
  - { offset: 0x7913FC, size: 0x8, addend: 0x0, symName: __ZN4juce13zlibNamespaceL9crc_tableE, symObjAddr: 0x706F00, symBinAddr: 0x1006E5510, symSize: 0x0 }
  - { offset: 0x791415, size: 0x8, addend: 0x0, symName: __ZN4juce13zlibNamespaceL19configuration_tableE, symObjAddr: 0x762FC8, symBinAddr: 0x10076B960, symSize: 0x0 }
  - { offset: 0x791AEC, size: 0x8, addend: 0x0, symName: __ZN4juce13zlibNamespaceL13static_l_descE, symObjAddr: 0x77A460, symBinAddr: 0x100782600, symSize: 0x0 }
  - { offset: 0x791B05, size: 0x8, addend: 0x0, symName: __ZN4juce13zlibNamespaceL11extra_lbitsE, symObjAddr: 0x70C2B0, symBinAddr: 0x1006EA8C0, symSize: 0x0 }
  - { offset: 0x791B1E, size: 0x8, addend: 0x0, symName: __ZN4juce13zlibNamespaceL13static_d_descE, symObjAddr: 0x77A480, symBinAddr: 0x100782620, symSize: 0x0 }
  - { offset: 0x791B37, size: 0x8, addend: 0x0, symName: __ZN4juce13zlibNamespaceL11extra_dbitsE, symObjAddr: 0x70C324, symBinAddr: 0x1006EA934, symSize: 0x0 }
  - { offset: 0x791B50, size: 0x8, addend: 0x0, symName: __ZN4juce13zlibNamespaceL14static_bl_descE, symObjAddr: 0x77A4A0, symBinAddr: 0x100782640, symSize: 0x0 }
  - { offset: 0x791B69, size: 0x8, addend: 0x0, symName: __ZN4juce13zlibNamespaceL12extra_blbitsE, symObjAddr: 0x70C39C, symBinAddr: 0x1006EA9AC, symSize: 0x0 }
  - { offset: 0x791B82, size: 0x8, addend: 0x0, symName: __ZN4juce13zlibNamespaceL12static_ltreeE, symObjAddr: 0x70B322, symBinAddr: 0x1006E9932, symSize: 0x0 }
  - { offset: 0x791B9B, size: 0x8, addend: 0x0, symName: __ZN4juce13zlibNamespaceL8bl_orderE, symObjAddr: 0x70C3E8, symBinAddr: 0x1006EA9F8, symSize: 0x0 }
  - { offset: 0x791BB4, size: 0x8, addend: 0x0, symName: __ZN4juce13zlibNamespaceL12static_dtreeE, symObjAddr: 0x70B7A2, symBinAddr: 0x1006E9DB2, symSize: 0x0 }
  - { offset: 0x791BCD, size: 0x8, addend: 0x0, symName: __ZN4juce13zlibNamespaceL11base_lengthE, symObjAddr: 0x70C3FC, symBinAddr: 0x1006EAA0C, symSize: 0x0 }
  - { offset: 0x791BE6, size: 0x8, addend: 0x0, symName: __ZN4juce13zlibNamespaceL9base_distE, symObjAddr: 0x70C470, symBinAddr: 0x1006EAA80, symSize: 0x0 }
  - { offset: 0x792124, size: 0x8, addend: 0x0, symName: __ZN4juce13zlibNamespace7z_crc32EmPKhj, symObjAddr: 0xE3448, symBinAddr: 0x1000E40E8, symSize: 0x300 }
  - { offset: 0x7921C6, size: 0x8, addend: 0x0, symName: __ZN4juce13zlibNamespace9z_adler32EmPKhj, symObjAddr: 0xE3E90, symBinAddr: 0x1000E4B30, symSize: 0x330 }
  - { offset: 0x792343, size: 0x8, addend: 0x0, symName: __ZN4juce13zlibNamespace7zcallocEPvjj, symObjAddr: 0xE3438, symBinAddr: 0x1000E40D8, symSize: 0x8 }
  - { offset: 0x79237C, size: 0x8, addend: 0x0, symName: __ZN4juce13zlibNamespace6zcfreeEPvS1_, symObjAddr: 0xE3440, symBinAddr: 0x1000E40E0, symSize: 0x8 }
  - { offset: 0x792464, size: 0x8, addend: 0x0, symName: __ZN4juce13zlibNamespace9z_deflateEPNS0_10z_stream_sEi, symObjAddr: 0xE4570, symBinAddr: 0x1000E5210, symSize: 0xC68 }
  - { offset: 0x79280A, size: 0x8, addend: 0x0, symName: __ZN4juce13zlibNamespaceL13flush_pendingEPNS0_10z_stream_sE, symObjAddr: 0xE51D8, symBinAddr: 0x1000E5E78, symSize: 0x94 }
  - { offset: 0x792833, size: 0x8, addend: 0x0, symName: __ZN4juce13zlibNamespace9_tr_alignEPNS0_14internal_stateE, symObjAddr: 0xE526C, symBinAddr: 0x1000E5F0C, symSize: 0x2BC }
  - { offset: 0x79285D, size: 0x8, addend: 0x0, symName: __ZN4juce13zlibNamespace9_tr_alignEPNS0_14internal_stateE, symObjAddr: 0xE526C, symBinAddr: 0x1000E5F0C, symSize: 0x2BC }
  - { offset: 0x792984, size: 0x8, addend: 0x0, symName: __ZN4juce13zlibNamespace16_tr_stored_blockEPNS0_14internal_stateEPcmi, symObjAddr: 0xE5528, symBinAddr: 0x1000E61C8, symSize: 0x160 }
  - { offset: 0x792AE1, size: 0x8, addend: 0x0, symName: __ZN4juce13zlibNamespaceL14deflate_storedEPNS0_14internal_stateEi, symObjAddr: 0xE5688, symBinAddr: 0x1000E6328, symSize: 0x308 }
  - { offset: 0x792BF8, size: 0x8, addend: 0x0, symName: __ZN4juce13zlibNamespaceL11fill_windowEPNS0_14internal_stateE, symObjAddr: 0xE66AC, symBinAddr: 0x1000E734C, symSize: 0x308 }
  - { offset: 0x792CC1, size: 0x8, addend: 0x0, symName: __ZN4juce13zlibNamespace15_tr_flush_blockEPNS0_14internal_stateEPcmi, symObjAddr: 0xE6BC0, symBinAddr: 0x1000E7860, symSize: 0x8A0 }
  - { offset: 0x7930C4, size: 0x8, addend: 0x0, symName: __ZN4juce13zlibNamespaceL12deflate_fastEPNS0_14internal_stateEi, symObjAddr: 0xE5990, symBinAddr: 0x1000E6630, symSize: 0x5E0 }
  - { offset: 0x793246, size: 0x8, addend: 0x0, symName: __ZN4juce13zlibNamespaceL13longest_matchEPNS0_14internal_stateEj, symObjAddr: 0xE69B4, symBinAddr: 0x1000E7654, symSize: 0x20C }
  - { offset: 0x793354, size: 0x8, addend: 0x0, symName: __ZN4juce13zlibNamespaceL12deflate_slowEPNS0_14internal_stateEi, symObjAddr: 0xE5F70, symBinAddr: 0x1000E6C10, symSize: 0x73C }
  - { offset: 0x793737, size: 0x8, addend: 0x0, symName: __ZN4juce13zlibNamespaceL10build_treeEPNS0_14internal_stateEPNS0_11tree_desc_sE, symObjAddr: 0xE7460, symBinAddr: 0x1000E8100, symSize: 0x7BC }
  - { offset: 0x7939D6, size: 0x8, addend: 0x0, symName: __ZN4juce13zlibNamespaceL9send_treeEPNS0_14internal_stateEPNS0_9ct_data_sEi, symObjAddr: 0xE7FC8, symBinAddr: 0x1000E8C68, symSize: 0x4B4 }
  - { offset: 0x793C56, size: 0x8, addend: 0x0, symName: __ZN4juce13zlibNamespaceL14compress_blockEPNS0_14internal_stateEPNS0_9ct_data_sES4_, symObjAddr: 0xE7C1C, symBinAddr: 0x1000E88BC, symSize: 0x3AC }
  - { offset: 0x793E4A, size: 0x8, addend: 0x0, symName: __ZN4juce13zlibNamespaceL10init_blockEPNS0_14internal_stateE, symObjAddr: 0xE847C, symBinAddr: 0x1000E911C, symSize: 0x10C }
  - { offset: 0x79405C, size: 0x8, addend: 0x0, symName: __ZN4juce13zlibNamespace12z_deflateEndEPNS0_10z_stream_sE, symObjAddr: 0xE86BC, symBinAddr: 0x1000E935C, symSize: 0xEC }
  - { offset: 0x7940DA, size: 0x8, addend: 0x0, symName: __ZN4juce13zlibNamespace14z_deflateResetEPNS0_10z_stream_sE, symObjAddr: 0x108118, symBinAddr: 0x100108BEC, symSize: 0x154 }
  - { offset: 0x7941B8, size: 0x8, addend: 0x0, symName: __ZN4juce9juce_argvE, symObjAddr: 0x4640F90, symBinAddr: 0x100786100, symSize: 0x0 }
  - { offset: 0x7941D2, size: 0x8, addend: 0x0, symName: __ZN4juce9juce_argcE, symObjAddr: 0x4640F88, symBinAddr: 0x1007860F8, symSize: 0x0 }
  - { offset: 0x7941ED, size: 0x8, addend: 0x0, symName: __ZN4juceL16hiResCounterInfoE.0, symObjAddr: 0x4640EA0, symBinAddr: 0x100786010, symSize: 0x0 }
  - { offset: 0x7941F8, size: 0x8, addend: 0x0, symName: __ZN4juceL16hiResCounterInfoE.1, symObjAddr: 0x4640EA8, symBinAddr: 0x100786018, symSize: 0x0 }
  - { offset: 0x794278, size: 0x8, addend: 0x0, symName: __ZN4juceL19base64DecodingTableE, symObjAddr: 0x706E5A, symBinAddr: 0x1006E546A, symSize: 0x0 }
  - { offset: 0x7942B2, size: 0x8, addend: 0x0, symName: __ZN4juceL11emptyStringE, symObjAddr: 0x77A4C0, symBinAddr: 0x100782660, symSize: 0x0 }
  - { offset: 0x7945AD, size: 0x8, addend: 0x0, symName: __ZN4juce24NumberToStringConvertersL16createFromDoubleEdib, symObjAddr: 0xD71BC, symBinAddr: 0x1000D7FC0, symSize: 0x228 }
  - { offset: 0x794E64, size: 0x8, addend: 0x0, symName: __ZN4juceL23currentThreadHolderLockE, symObjAddr: 0x4640F08, symBinAddr: 0x100786078, symSize: 0x0 }
  - { offset: 0x794EB3, size: 0x8, addend: 0x0, symName: __ZN4juce18XmlIdentifierCharsL14findEndOfTokenENS_16CharPointer_UTF8E, symObjAddr: 0xF1764, symBinAddr: 0x1000F2404, symSize: 0x128 }
  - { offset: 0x795052, size: 0x8, addend: 0x0, symName: __ZN4juce18XmlOutputFunctionsL21escapeIllegalXmlCharsERNS_12OutputStreamERKNS_6StringEb, symObjAddr: 0xF870C, symBinAddr: 0x1000F93AC, symSize: 0x2B8 }
  - { offset: 0x79534E, size: 0x8, addend: 0x0, symName: __ZN4juceL21hiResCounterNumeratorE, symObjAddr: 0x4640F30, symBinAddr: 0x1007860A0, symSize: 0x0 }
  - { offset: 0x795369, size: 0x8, addend: 0x0, symName: __ZN4juceL23hiResCounterDenominatorE, symObjAddr: 0x77A4D8, symBinAddr: 0x100782678, symSize: 0x0 }
  - { offset: 0x795452, size: 0x8, addend: 0x0, symName: __ZN4juceL9emptyCharE, symObjAddr: 0x70C5C8, symBinAddr: 0x1006EABD8, symSize: 0x0 }
  - { offset: 0x79A592, size: 0x8, addend: 0x0, symName: __ZN4juceplEPKcRKNS_6StringE, symObjAddr: 0xD6E34, symBinAddr: 0x1000D7C38, symSize: 0x158 }
  - { offset: 0x79B2C3, size: 0x8, addend: 0x0, symName: __ZN4juceL15serialiseDoubleEdi, symObjAddr: 0xDF64C, symBinAddr: 0x1000E02EC, symSize: 0x204 }
  - { offset: 0x79B59E, size: 0x8, addend: 0x0, symName: __ZN4juceL25reduceLengthOfFloatStringERKNS_6StringE, symObjAddr: 0xDF988, symBinAddr: 0x1000E0628, symSize: 0xD70 }
  - { offset: 0x79E070, size: 0x8, addend: 0x0, symName: __ZN4jucelsERNS_12OutputStreamERKNS_6StringE, symObjAddr: 0xDF850, symBinAddr: 0x1000E04F0, symSize: 0x138 }
  - { offset: 0x79E1F0, size: 0x8, addend: 0x0, symName: __ZN4juceL14findTrimmedEndENS_16CharPointer_UTF8ES0_, symObjAddr: 0xE9888, symBinAddr: 0x1000EA528, symSize: 0x198 }
  - { offset: 0x79ED53, size: 0x8, addend: 0x0, symName: __ZN4juce10URLHelpersL15findEndOfSchemeERKNS_6StringE, symObjAddr: 0xEB294, symBinAddr: 0x1000EBF34, symSize: 0x51C }
  - { offset: 0x79F50C, size: 0x8, addend: 0x0, symName: __ZN4juce10URLHelpersL22findStartOfNetLocationERKNS_6StringE, symObjAddr: 0xEB104, symBinAddr: 0x1000EBDA4, symSize: 0x190 }
  - { offset: 0x79F82D, size: 0x8, addend: 0x0, symName: __ZN4juceL14compareStringsERKNS_14StartEndStringERKNS_6StringE, symObjAddr: 0xF74D4, symBinAddr: 0x1000F8174, symSize: 0x1C0 }
  - { offset: 0x79F9BC, size: 0x8, addend: 0x0, symName: __ZN4juce8parseXMLERKNS_6StringE, symObjAddr: 0xF7694, symBinAddr: 0x1000F8334, symSize: 0x8C }
  - { offset: 0x79FD36, size: 0x8, addend: 0x0, symName: __ZN4juceL15addPooledStringINS_16CharPointer_UTF8EEENS_6StringERNS_5ArrayIS2_NS_20DummyCriticalSectionELi0EEERKT_, symObjAddr: 0xF8CB8, symBinAddr: 0x1000F9958, symSize: 0x158 }
  - { offset: 0x7A0408, size: 0x8, addend: 0x0, symName: __ZN4jucelsERNS_6StringEc, symObjAddr: 0xFB960, symBinAddr: 0x1000FC4E4, symSize: 0x4C }
  - { offset: 0x7A04D5, size: 0x8, addend: 0x0, symName: __ZN4jucelsERNS_6StringEi, symObjAddr: 0xFB9AC, symBinAddr: 0x1000FC530, symSize: 0xF0 }
  - { offset: 0x7A066B, size: 0x8, addend: 0x0, symName: __ZN4juce9translateERKNS_6StringES2_, symObjAddr: 0xFEFA8, symBinAddr: 0x1000FFB2C, symSize: 0x120 }
  - { offset: 0x7A0D25, size: 0x8, addend: 0x0, symName: __ZN4juce9translateEPKc, symObjAddr: 0x102964, symBinAddr: 0x100103498, symSize: 0x10C }
  - { offset: 0x7A127B, size: 0x8, addend: 0x0, symName: __ZN4jucelsERNS_12OutputStreamEd, symObjAddr: 0x104404, symBinAddr: 0x100104F38, symSize: 0x1A0 }
  - { offset: 0x7A1683, size: 0x8, addend: 0x0, symName: __ZN4juceL35tryToUpgradeCurrentThreadToRealtimeERKNS_6Thread15RealtimeOptionsE, symObjAddr: 0x10662C, symBinAddr: 0x100107100, symSize: 0x1B0 }
  - { offset: 0x7A1A6D, size: 0x8, addend: 0x0, symName: __ZN4juceL13parseWildcardERKNS_6StringERNS_11StringArrayE, symObjAddr: 0x1082C8, symBinAddr: 0x100108D9C, symSize: 0x1E8 }
  - { offset: 0x7A26B3, size: 0x8, addend: 0x0, symName: __ZNK4juce10BigInteger8toStringEii, symObjAddr: 0x1008E0, symBinAddr: 0x100101464, symSize: 0x428 }
  - { offset: 0x7A3AC8, size: 0x8, addend: 0x0, symName: __ZN4juce6Random15setSeedRandomlyEv, symObjAddr: 0xE9498, symBinAddr: 0x1000EA138, symSize: 0x18C }
  - { offset: 0x7A3AEE, size: 0x8, addend: 0x0, symName: __ZZN4juce6Random15setSeedRandomlyEvE10globalSeed, symObjAddr: 0x4640DE8, symBinAddr: 0x100785F58, symSize: 0x0 }
  - { offset: 0x7AD1E7, size: 0x8, addend: 0x0, symName: __ZNSt3__120__throw_future_errorB8ne190102ENS_11future_errcE, symObjAddr: 0x106480, symBinAddr: 0x100106F54, symSize: 0x5C }
  - { offset: 0x7AEFEA, size: 0x8, addend: 0x0, symName: __ZN4juce6Random15getSystemRandomEv, symObjAddr: 0xFEA9C, symBinAddr: 0x1000FF620, symSize: 0x94 }
  - { offset: 0x7AF00A, size: 0x8, addend: 0x0, symName: __ZZN4juce6Random15getSystemRandomEvE7sysRand, symObjAddr: 0x77D838, symBinAddr: 0x100783068, symSize: 0x0 }
  - { offset: 0x7AF10E, size: 0x8, addend: 0x0, symName: __ZZN4juce11SystemStats30isRunningInAppExtensionSandboxEvE21isRunningInAppSandbox, symObjAddr: 0x4640E00, symBinAddr: 0x100785F70, symSize: 0x0 }
  - { offset: 0x7AF28F, size: 0x8, addend: 0x0, symName: __ZN4juce11SystemStats19isAppSandboxEnabledEv, symObjAddr: 0x108BB8, symBinAddr: 0x10010968C, symSize: 0x70 }
  - { offset: 0x7AF2B3, size: 0x8, addend: 0x0, symName: __ZZN4juce11SystemStats19isAppSandboxEnabledEvE6result, symObjAddr: 0x4640EB0, symBinAddr: 0x100786020, symSize: 0x0 }
  - { offset: 0x7AF2E8, size: 0x8, addend: 0x0, symName: __ZN4juce18CharacterFunctions15readDoubleValueINS_16CharPointer_UTF8EEEdRT_, symObjAddr: 0xECDB4, symBinAddr: 0x1000EDA54, symSize: 0x1084 }
  - { offset: 0x7AF309, size: 0x8, addend: 0x0, symName: __ZZN4juce18CharacterFunctions15readDoubleValueINS_16CharPointer_UTF8EEEdRT_E6locale, symObjAddr: 0x4640ED8, symBinAddr: 0x100786048, symSize: 0x0 }
  - { offset: 0x7B0267, size: 0x8, addend: 0x0, symName: __ZN4juce3var8Instance14attributesVoidE, symObjAddr: 0x762CF8, symBinAddr: 0x10076B690, symSize: 0x0 }
  - { offset: 0x7B027B, size: 0x8, addend: 0x0, symName: __ZN4juce3var8Instance13attributesIntE, symObjAddr: 0x762D70, symBinAddr: 0x10076B708, symSize: 0x0 }
  - { offset: 0x7B028F, size: 0x8, addend: 0x0, symName: __ZN4juce3var8Instance14attributesBoolE, symObjAddr: 0x762DE8, symBinAddr: 0x10076B780, symSize: 0x0 }
  - { offset: 0x7B02A3, size: 0x8, addend: 0x0, symName: __ZN4juce3var8Instance16attributesDoubleE, symObjAddr: 0x762E60, symBinAddr: 0x10076B7F8, symSize: 0x0 }
  - { offset: 0x7B02B7, size: 0x8, addend: 0x0, symName: __ZN4juce3var8Instance16attributesStringE, symObjAddr: 0x762ED8, symBinAddr: 0x10076B870, symSize: 0x0 }
  - { offset: 0x7B02CB, size: 0x8, addend: 0x0, symName: __ZN4juce3var8Instance16attributesBinaryE, symObjAddr: 0x762F50, symBinAddr: 0x10076B8E8, symSize: 0x0 }
  - { offset: 0x7B1683, size: 0x8, addend: 0x0, symName: __ZN4juce23StringEncodingConverterINS_16CharPointer_UTF8ENS_17CharPointer_UTF32EE7convertERKNS_6StringE, symObjAddr: 0xFF4FC, symBinAddr: 0x100100080, symSize: 0x220 }
  - { offset: 0x7B7739, size: 0x8, addend: 0x0, symName: __ZN4juce11PropertySetD1Ev, symObjAddr: 0xD3DEC, symBinAddr: 0x1000D4CD0, symSize: 0x3C }
  - { offset: 0x7B7AC6, size: 0x8, addend: 0x0, symName: __ZN4juce11PropertySetD0Ev, symObjAddr: 0xD3E28, symBinAddr: 0x1000D4D0C, symSize: 0x3C }
  - { offset: 0x7B7B84, size: 0x8, addend: 0x0, symName: __ZN4juce11PropertySet15propertyChangedEv, symObjAddr: 0xD3E64, symBinAddr: 0x1000D4D48, symSize: 0x4 }
  - { offset: 0x7B7BDD, size: 0x8, addend: 0x0, symName: __ZN4juce15FileInputStreamD1Ev, symObjAddr: 0xD3F48, symBinAddr: 0x1000D4D4C, symSize: 0x84 }
  - { offset: 0x7B7EED, size: 0x8, addend: 0x0, symName: __ZN4juce15FileInputStreamD0Ev, symObjAddr: 0xD3FCC, symBinAddr: 0x1000D4DD0, symSize: 0x84 }
  - { offset: 0x7B8221, size: 0x8, addend: 0x0, symName: __ZN4juce15FileInputStream14getTotalLengthEv, symObjAddr: 0xD4050, symBinAddr: 0x1000D4E54, symSize: 0x40 }
  - { offset: 0x7B824E, size: 0x8, addend: 0x0, symName: __ZN4juce15FileInputStream14getTotalLengthEv, symObjAddr: 0xD4050, symBinAddr: 0x1000D4E54, symSize: 0x40 }
  - { offset: 0x7B82D0, size: 0x8, addend: 0x0, symName: __ZN4juce15FileInputStream11isExhaustedEv, symObjAddr: 0xD4090, symBinAddr: 0x1000D4E94, symSize: 0x30 }
  - { offset: 0x7B836A, size: 0x8, addend: 0x0, symName: __ZN4juce15FileInputStream4readEPvi, symObjAddr: 0xD40C0, symBinAddr: 0x1000D4EC4, symSize: 0x84 }
  - { offset: 0x7B862C, size: 0x8, addend: 0x0, symName: __ZN4juce11InputStream8readByteEv, symObjAddr: 0xD4144, symBinAddr: 0x1000D4F48, symSize: 0x34 }
  - { offset: 0x7B8673, size: 0x8, addend: 0x0, symName: __ZN4juce11InputStream8readBoolEv, symObjAddr: 0xD4178, symBinAddr: 0x1000D4F7C, symSize: 0x24 }
  - { offset: 0x7B86A9, size: 0x8, addend: 0x0, symName: __ZN4juce11InputStream9readShortEv, symObjAddr: 0xD419C, symBinAddr: 0x1000D4FA0, symSize: 0x3C }
  - { offset: 0x7B86EF, size: 0x8, addend: 0x0, symName: __ZN4juce11InputStream18readShortBigEndianEv, symObjAddr: 0xD41D8, symBinAddr: 0x1000D4FDC, symSize: 0x44 }
  - { offset: 0x7B8735, size: 0x8, addend: 0x0, symName: __ZN4juce11InputStream7readIntEv, symObjAddr: 0xD421C, symBinAddr: 0x1000D5020, symSize: 0x38 }
  - { offset: 0x7B87C0, size: 0x8, addend: 0x0, symName: __ZN4juce11InputStream16readIntBigEndianEv, symObjAddr: 0xD4254, symBinAddr: 0x1000D5058, symSize: 0x44 }
  - { offset: 0x7B883D, size: 0x8, addend: 0x0, symName: __ZN4juce11InputStream9readInt64Ev, symObjAddr: 0xD4298, symBinAddr: 0x1000D509C, symSize: 0x38 }
  - { offset: 0x7B88A5, size: 0x8, addend: 0x0, symName: __ZN4juce11InputStream18readInt64BigEndianEv, symObjAddr: 0xD42D0, symBinAddr: 0x1000D50D4, symSize: 0x3C }
  - { offset: 0x7B890D, size: 0x8, addend: 0x0, symName: __ZN4juce11InputStream9readFloatEv, symObjAddr: 0xD430C, symBinAddr: 0x1000D5110, symSize: 0x20 }
  - { offset: 0x7B8976, size: 0x8, addend: 0x0, symName: __ZN4juce11InputStream18readFloatBigEndianEv, symObjAddr: 0xD432C, symBinAddr: 0x1000D5130, symSize: 0x20 }
  - { offset: 0x7B89DF, size: 0x8, addend: 0x0, symName: __ZN4juce11InputStream10readDoubleEv, symObjAddr: 0xD434C, symBinAddr: 0x1000D5150, symSize: 0x20 }
  - { offset: 0x7B8A48, size: 0x8, addend: 0x0, symName: __ZN4juce11InputStream19readDoubleBigEndianEv, symObjAddr: 0xD436C, symBinAddr: 0x1000D5170, symSize: 0x20 }
  - { offset: 0x7B8AB1, size: 0x8, addend: 0x0, symName: __ZN4juce11InputStream17readCompressedIntEv, symObjAddr: 0xD438C, symBinAddr: 0x1000D5190, symSize: 0x84 }
  - { offset: 0x7B8BEF, size: 0x8, addend: 0x0, symName: __ZN4juce11InputStream12readNextLineEv, symObjAddr: 0xD4410, symBinAddr: 0x1000D5214, symSize: 0x290 }
  - { offset: 0x7B9566, size: 0x8, addend: 0x0, symName: __ZN4juce11MemoryBlock7setSizeEmb, symObjAddr: 0xD4EE4, symBinAddr: 0x1000D5CE8, symSize: 0xB0 }
  - { offset: 0x7B96EA, size: 0x8, addend: 0x0, symName: __ZN4juce18MemoryOutputStreamD1Ev, symObjAddr: 0xD4F94, symBinAddr: 0x1000D5D98, symSize: 0x8C }
  - { offset: 0x7B9931, size: 0x8, addend: 0x0, symName: __ZN4juce11InputStream10readStringEv, symObjAddr: 0xD46A0, symBinAddr: 0x1000D54A4, symSize: 0x238 }
  - { offset: 0x7BA34F, size: 0x8, addend: 0x0, symName: __ZN4juce11InputStream24readEntireStreamAsStringEv, symObjAddr: 0xD48D8, symBinAddr: 0x1000D56DC, symSize: 0x2C8 }
  - { offset: 0x7BAC34, size: 0x8, addend: 0x0, symName: __ZN4juce6String20createStringFromDataEPKvi, symObjAddr: 0xD5CC4, symBinAddr: 0x1000D6AC8, symSize: 0x61C }
  - { offset: 0x7BBD53, size: 0x8, addend: 0x0, symName: __ZN4juce11InputStream19readIntoMemoryBlockERNS_11MemoryBlockEl, symObjAddr: 0xD4BA0, symBinAddr: 0x1000D59A4, symSize: 0x224 }
  - { offset: 0x7BC317, size: 0x8, addend: 0x0, symName: __ZN4juce15FileInputStream11getPositionEv, symObjAddr: 0xD4DC4, symBinAddr: 0x1000D5BC8, symSize: 0x8 }
  - { offset: 0x7BC341, size: 0x8, addend: 0x0, symName: __ZN4juce15FileInputStream11setPositionEx, symObjAddr: 0xD4DCC, symBinAddr: 0x1000D5BD0, symSize: 0x6C }
  - { offset: 0x7BC51C, size: 0x8, addend: 0x0, symName: __ZN4juce11InputStream13skipNextBytesEx, symObjAddr: 0xD4E38, symBinAddr: 0x1000D5C3C, symSize: 0xAC }
  - { offset: 0x7BC85D, size: 0x8, addend: 0x0, symName: __ZN4juce18MemoryOutputStreamD0Ev, symObjAddr: 0xD5020, symBinAddr: 0x1000D5E24, symSize: 0x8C }
  - { offset: 0x7BCAC8, size: 0x8, addend: 0x0, symName: __ZN4juce18MemoryOutputStream5flushEv, symObjAddr: 0xD50AC, symBinAddr: 0x1000D5EB0, symSize: 0x28 }
  - { offset: 0x7BCB19, size: 0x8, addend: 0x0, symName: __ZN4juce18MemoryOutputStream11setPositionEx, symObjAddr: 0xD50D4, symBinAddr: 0x1000D5ED8, symSize: 0x20 }
  - { offset: 0x7BCB80, size: 0x8, addend: 0x0, symName: __ZN4juce18MemoryOutputStream11getPositionEv, symObjAddr: 0xD50F4, symBinAddr: 0x1000D5EF8, symSize: 0x8 }
  - { offset: 0x7BCBA7, size: 0x8, addend: 0x0, symName: __ZN4juce18MemoryOutputStream5writeEPKvm, symObjAddr: 0xD50FC, symBinAddr: 0x1000D5F00, symSize: 0xD8 }
  - { offset: 0x7BCCD4, size: 0x8, addend: 0x0, symName: __ZN4juce12OutputStream9writeByteEc, symObjAddr: 0xD51D4, symBinAddr: 0x1000D5FD8, symSize: 0x30 }
  - { offset: 0x7BCD0D, size: 0x8, addend: 0x0, symName: __ZN4juce12OutputStream9writeBoolEb, symObjAddr: 0xD5204, symBinAddr: 0x1000D6008, symSize: 0xC }
  - { offset: 0x7BCD53, size: 0x8, addend: 0x0, symName: __ZN4juce12OutputStream10writeShortEs, symObjAddr: 0xD5210, symBinAddr: 0x1000D6014, symSize: 0x30 }
  - { offset: 0x7BCDA8, size: 0x8, addend: 0x0, symName: __ZN4juce12OutputStream19writeShortBigEndianEs, symObjAddr: 0xD5240, symBinAddr: 0x1000D6044, symSize: 0x38 }
  - { offset: 0x7BCE28, size: 0x8, addend: 0x0, symName: __ZN4juce12OutputStream8writeIntEi, symObjAddr: 0xD5278, symBinAddr: 0x1000D607C, symSize: 0x30 }
  - { offset: 0x7BCE6B, size: 0x8, addend: 0x0, symName: __ZN4juce12OutputStream17writeIntBigEndianEi, symObjAddr: 0xD52A8, symBinAddr: 0x1000D60AC, symSize: 0x34 }
  - { offset: 0x7BCEEB, size: 0x8, addend: 0x0, symName: __ZN4juce12OutputStream10writeInt64Ex, symObjAddr: 0xD52DC, symBinAddr: 0x1000D60E0, symSize: 0x30 }
  - { offset: 0x7BCF74, size: 0x8, addend: 0x0, symName: __ZN4juce12OutputStream19writeInt64BigEndianEx, symObjAddr: 0xD530C, symBinAddr: 0x1000D6110, symSize: 0x34 }
  - { offset: 0x7BD006, size: 0x8, addend: 0x0, symName: __ZN4juce12OutputStream10writeFloatEf, symObjAddr: 0xD5340, symBinAddr: 0x1000D6144, symSize: 0x10 }
  - { offset: 0x7BD078, size: 0x8, addend: 0x0, symName: __ZN4juce12OutputStream19writeFloatBigEndianEf, symObjAddr: 0xD5350, symBinAddr: 0x1000D6154, symSize: 0x10 }
  - { offset: 0x7BD0EA, size: 0x8, addend: 0x0, symName: __ZN4juce12OutputStream11writeDoubleEd, symObjAddr: 0xD5360, symBinAddr: 0x1000D6164, symSize: 0x10 }
  - { offset: 0x7BD15C, size: 0x8, addend: 0x0, symName: __ZN4juce12OutputStream20writeDoubleBigEndianEd, symObjAddr: 0xD5370, symBinAddr: 0x1000D6174, symSize: 0x10 }
  - { offset: 0x7BD1CE, size: 0x8, addend: 0x0, symName: __ZN4juce18MemoryOutputStream17writeRepeatedByteEhm, symObjAddr: 0xD5380, symBinAddr: 0x1000D6184, symSize: 0xD8 }
  - { offset: 0x7BD2FB, size: 0x8, addend: 0x0, symName: __ZN4juce12OutputStream18writeCompressedIntEi, symObjAddr: 0xD5458, symBinAddr: 0x1000D625C, symSize: 0x74 }
  - { offset: 0x7BD36F, size: 0x8, addend: 0x0, symName: __ZN4juce12OutputStream11writeStringERKNS_6StringE, symObjAddr: 0xD54CC, symBinAddr: 0x1000D62D0, symSize: 0x11C }
  - { offset: 0x7BD4AF, size: 0x8, addend: 0x0, symName: __ZN4juce12OutputStream9writeTextERKNS_6StringEbbPKc, symObjAddr: 0xD55E8, symBinAddr: 0x1000D63EC, symSize: 0x400 }
  - { offset: 0x7BD7ED, size: 0x8, addend: 0x0, symName: __ZN4juce18MemoryOutputStream20writeFromInputStreamERNS_11InputStreamEx, symObjAddr: 0xD59E8, symBinAddr: 0x1000D67EC, symSize: 0x150 }
  - { offset: 0x7BD940, size: 0x8, addend: 0x0, symName: __ZN4juce12OutputStreamD1Ev, symObjAddr: 0xD5B38, symBinAddr: 0x1000D693C, symSize: 0x4 }
  - { offset: 0x7BD969, size: 0x8, addend: 0x0, symName: __ZN4juce12OutputStreamD0Ev, symObjAddr: 0xD5B3C, symBinAddr: 0x1000D6940, symSize: 0x4 }
  - { offset: 0x7BD992, size: 0x8, addend: 0x0, symName: __ZN4juce12OutputStream17writeRepeatedByteEhm, symObjAddr: 0xD5B40, symBinAddr: 0x1000D6944, symSize: 0x90 }
  - { offset: 0x7BD9C8, size: 0x8, addend: 0x0, symName: __ZN4juce12OutputStream17writeRepeatedByteEhm, symObjAddr: 0xD5B40, symBinAddr: 0x1000D6944, symSize: 0x90 }
  - { offset: 0x7BD9FA, size: 0x8, addend: 0x0, symName: __ZN4juce12OutputStream20writeFromInputStreamERNS_11InputStreamEx, symObjAddr: 0xD5BD0, symBinAddr: 0x1000D69D4, symSize: 0xF4 }
  - { offset: 0x7BE12C, size: 0x8, addend: 0x0, symName: __ZN4juce20StringCreationHelper5writeEw, symObjAddr: 0xD62E0, symBinAddr: 0x1000D70E4, symSize: 0x208 }
  - { offset: 0x7BE67F, size: 0x8, addend: 0x0, symName: __ZN4juce16FileOutputStreamD1Ev, symObjAddr: 0xD6668, symBinAddr: 0x1000D746C, symSize: 0x4 }
  - { offset: 0x7BE6A3, size: 0x8, addend: 0x0, symName: __ZN4juce16FileOutputStreamD1Ev, symObjAddr: 0xD6668, symBinAddr: 0x1000D746C, symSize: 0x4 }
  - { offset: 0x7BE6AE, size: 0x8, addend: 0x0, symName: __ZN4juce16FileOutputStreamD2Ev, symObjAddr: 0xD6AD4, symBinAddr: 0x1000D78D8, symSize: 0x120 }
  - { offset: 0x7BEDAC, size: 0x8, addend: 0x0, symName: __ZN4juce16FileOutputStreamD0Ev, symObjAddr: 0xD666C, symBinAddr: 0x1000D7470, symSize: 0x14 }
  - { offset: 0x7BEEA0, size: 0x8, addend: 0x0, symName: __ZN4juce16FileOutputStream5flushEv, symObjAddr: 0xD6680, symBinAddr: 0x1000D7484, symSize: 0xDC }
  - { offset: 0x7BF3CD, size: 0x8, addend: 0x0, symName: __ZN4juce16FileOutputStream11setPositionEx, symObjAddr: 0xD675C, symBinAddr: 0x1000D7560, symSize: 0xCC }
  - { offset: 0x7BF6D6, size: 0x8, addend: 0x0, symName: __ZN4juce16FileOutputStream11getPositionEv, symObjAddr: 0xD6828, symBinAddr: 0x1000D762C, symSize: 0x8 }
  - { offset: 0x7BF72B, size: 0x8, addend: 0x0, symName: __ZN4juce16FileOutputStream5writeEPKvm, symObjAddr: 0xD6830, symBinAddr: 0x1000D7634, symSize: 0x1D0 }
  - { offset: 0x7BFD91, size: 0x8, addend: 0x0, symName: __ZN4juce16FileOutputStream17writeRepeatedByteEhm, symObjAddr: 0xD6A00, symBinAddr: 0x1000D7804, symSize: 0xD4 }
  - { offset: 0x7BFF68, size: 0x8, addend: 0x0, symName: __ZN4juce16FileOutputStreamC2ERKNS_4FileEm, symObjAddr: 0xD6BF4, symBinAddr: 0x1000D79F8, symSize: 0x240 }
  - { offset: 0x7C0CD5, size: 0x8, addend: 0x0, symName: __ZN4juce6StringpLERKS0_, symObjAddr: 0xD6F8C, symBinAddr: 0x1000D7D90, symSize: 0x110 }
  - { offset: 0x7C128A, size: 0x8, addend: 0x0, symName: __ZN4juce6String17appendCharPointerENS_16CharPointer_UTF8ES1_, symObjAddr: 0xD709C, symBinAddr: 0x1000D7EA0, symSize: 0x120 }
  - { offset: 0x7C197B, size: 0x8, addend: 0x0, symName: __ZN4juce17StringHolderUtils21createFromFixedLengthEPKcm, symObjAddr: 0xD73E4, symBinAddr: 0x1000D81E8, symSize: 0x1E4 }
  - { offset: 0x7C1BE9, size: 0x8, addend: 0x0, symName: __ZN4juce24NumberToStringConverters16StackArrayStreamD1Ev, symObjAddr: 0xD75C8, symBinAddr: 0x1000D83CC, symSize: 0x4 }
  - { offset: 0x7C1C0D, size: 0x8, addend: 0x0, symName: __ZN4juce24NumberToStringConverters16StackArrayStreamD1Ev, symObjAddr: 0xD75C8, symBinAddr: 0x1000D83CC, symSize: 0x4 }
  - { offset: 0x7C1C29, size: 0x8, addend: 0x0, symName: __ZN4juce24NumberToStringConverters16StackArrayStreamD0Ev, symObjAddr: 0xD75CC, symBinAddr: 0x1000D83D0, symSize: 0x14 }
  - { offset: 0x7C1CB3, size: 0x8, addend: 0x0, symName: __ZN4juce36SingleThreadedReferenceCountedObjectD1Ev, symObjAddr: 0xD75E0, symBinAddr: 0x1000D83E4, symSize: 0x10 }
  - { offset: 0x7C1CDF, size: 0x8, addend: 0x0, symName: __ZN4juce36SingleThreadedReferenceCountedObjectD1Ev, symObjAddr: 0xD75E0, symBinAddr: 0x1000D83E4, symSize: 0x10 }
  - { offset: 0x7C1CFA, size: 0x8, addend: 0x0, symName: __ZN4juce36SingleThreadedReferenceCountedObjectD0Ev, symObjAddr: 0xD75F0, symBinAddr: 0x1000D83F4, symSize: 0x4 }
  - { offset: 0x7C1E40, size: 0x8, addend: 0x0, symName: __ZN4juce19BufferedInputStreamD1Ev, symObjAddr: 0xD75F4, symBinAddr: 0x1000D83F8, symSize: 0x78 }
  - { offset: 0x7C2064, size: 0x8, addend: 0x0, symName: __ZN4juce19BufferedInputStreamD0Ev, symObjAddr: 0xD766C, symBinAddr: 0x1000D8470, symSize: 0x70 }
  - { offset: 0x7C22CB, size: 0x8, addend: 0x0, symName: __ZN4juce19BufferedInputStream14getTotalLengthEv, symObjAddr: 0xD76DC, symBinAddr: 0x1000D84E0, symSize: 0x10 }
  - { offset: 0x7C22F8, size: 0x8, addend: 0x0, symName: __ZN4juce19BufferedInputStream14getTotalLengthEv, symObjAddr: 0xD76DC, symBinAddr: 0x1000D84E0, symSize: 0x10 }
  - { offset: 0x7C2318, size: 0x8, addend: 0x0, symName: __ZN4juce19BufferedInputStream14getTotalLengthEv, symObjAddr: 0xD76DC, symBinAddr: 0x1000D84E0, symSize: 0x10 }
  - { offset: 0x7C2342, size: 0x8, addend: 0x0, symName: __ZN4juce19BufferedInputStream11isExhaustedEv, symObjAddr: 0xD76EC, symBinAddr: 0x1000D84F0, symSize: 0x28 }
  - { offset: 0x7C2442, size: 0x8, addend: 0x0, symName: __ZN4juce19BufferedInputStream4readEPvi, symObjAddr: 0xD7714, symBinAddr: 0x1000D8518, symSize: 0x23C }
  - { offset: 0x7C2A94, size: 0x8, addend: 0x0, symName: __ZN4juce19BufferedInputStream10readStringEv, symObjAddr: 0xD7950, symBinAddr: 0x1000D8754, symSize: 0xDC }
  - { offset: 0x7C2CA4, size: 0x8, addend: 0x0, symName: __ZN4juce19BufferedInputStream11getPositionEv, symObjAddr: 0xD7A2C, symBinAddr: 0x1000D8830, symSize: 0x8 }
  - { offset: 0x7C2CCE, size: 0x8, addend: 0x0, symName: __ZN4juce19BufferedInputStream11setPositionEx, symObjAddr: 0xD7A34, symBinAddr: 0x1000D8838, symSize: 0x10 }
  - { offset: 0x7C2D0A, size: 0x8, addend: 0x0, symName: __ZN4juce19BufferedInputStream11setPositionEx, symObjAddr: 0xD7A34, symBinAddr: 0x1000D8838, symSize: 0x10 }
  - { offset: 0x7C2D6E, size: 0x8, addend: 0x0, symName: __ZN4juce15FileInputSourceD1Ev, symObjAddr: 0xD7A44, symBinAddr: 0x1000D8848, symSize: 0x5C }
  - { offset: 0x7C2F0A, size: 0x8, addend: 0x0, symName: __ZN4juce15FileInputSourceD0Ev, symObjAddr: 0xD7AA0, symBinAddr: 0x1000D88A4, symSize: 0x5C }
  - { offset: 0x7C30AD, size: 0x8, addend: 0x0, symName: __ZN4juce15FileInputSource17createInputStreamEv, symObjAddr: 0xD7AFC, symBinAddr: 0x1000D8900, symSize: 0x68 }
  - { offset: 0x7C324A, size: 0x8, addend: 0x0, symName: __ZN4juce15FileInputStreamC2ERKNS_4FileE, symObjAddr: 0xD7ED8, symBinAddr: 0x1000D8CDC, symSize: 0x118 }
  - { offset: 0x7C39F7, size: 0x8, addend: 0x0, symName: __ZN4juce15FileInputSource20createInputStreamForERKNS_6StringE, symObjAddr: 0xD7B64, symBinAddr: 0x1000D8968, symSize: 0xDC }
  - { offset: 0x7C3EDD, size: 0x8, addend: 0x0, symName: __ZNK4juce4File14getSiblingFileENS_9StringRefE, symObjAddr: 0xD7DD4, symBinAddr: 0x1000D8BD8, symSize: 0x104 }
  - { offset: 0x7C472E, size: 0x8, addend: 0x0, symName: __ZNK4juce15FileInputSource8hashCodeEv, symObjAddr: 0xD7C40, symBinAddr: 0x1000D8A44, symSize: 0x194 }
  - { offset: 0x7C48F9, size: 0x8, addend: 0x0, symName: __ZNK4juce4File20getPathUpToLastSlashEv, symObjAddr: 0xD7FF0, symBinAddr: 0x1000D8DF4, symSize: 0x318 }
  - { offset: 0x7C4D61, size: 0x8, addend: 0x0, symName: __ZNK4juce4File12getChildFileENS_9StringRefE, symObjAddr: 0xD8308, symBinAddr: 0x1000D910C, symSize: 0x7EC }
  - { offset: 0x7C5DDC, size: 0x8, addend: 0x0, symName: __ZN4juce17StringHolderUtils21createFromCharPointerINS_16CharPointer_UTF8EEES2_T_, symObjAddr: 0xD8AF4, symBinAddr: 0x1000D98F8, symSize: 0x184 }
  - { offset: 0x7C5FA2, size: 0x8, addend: 0x0, symName: __ZN4juce4File17parseAbsolutePathERKNS_6StringE, symObjAddr: 0xD8C78, symBinAddr: 0x1000D9A7C, symSize: 0x1D44 }
  - { offset: 0x7CBCB0, size: 0x8, addend: 0x0, symName: __ZN4juce4File20addTrailingSeparatorERKNS_6StringE, symObjAddr: 0xDA9BC, symBinAddr: 0x1000DB7C0, symSize: 0x200 }
  - { offset: 0x7CC765, size: 0x8, addend: 0x0, symName: __ZN4juce18CharacterFunctions11compareUpToINS_16CharPointer_UTF8ES2_EEiT_T0_i, symObjAddr: 0xDADEC, symBinAddr: 0x1000DBBF0, symSize: 0x1D0 }
  - { offset: 0x7CC891, size: 0x8, addend: 0x0, symName: __ZN4juce11StringArray9addTokensENS_9StringRefES1_S1_, symObjAddr: 0xDAFBC, symBinAddr: 0x1000DBDC0, symSize: 0x504 }
  - { offset: 0x7CCFE8, size: 0x8, addend: 0x0, symName: __ZNK4juce11StringArray14joinIntoStringENS_9StringRefEii, symObjAddr: 0xDB510, symBinAddr: 0x1000DC314, symSize: 0x18C }
  - { offset: 0x7CD63C, size: 0x8, addend: 0x0, symName: __ZNK4juce6String21fromFirstOccurrenceOfENS_9StringRefEbb, symObjAddr: 0xDB69C, symBinAddr: 0x1000DC4A0, symSize: 0x364 }
  - { offset: 0x7CDB0C, size: 0x8, addend: 0x0, symName: __ZNK4juce6String14replaceSectionEiiNS_9StringRefE, symObjAddr: 0xDBA00, symBinAddr: 0x1000DC804, symSize: 0x290 }
  - { offset: 0x7CE5BF, size: 0x8, addend: 0x0, symName: __ZN4juce4File26getCurrentWorkingDirectoryEv, symObjAddr: 0xDC624, symBinAddr: 0x1000DD428, symSize: 0x150 }
  - { offset: 0x7CEA3D, size: 0x8, addend: 0x0, symName: __ZN4juce4File18getSpecialLocationENS0_19SpecialLocationTypeE, symObjAddr: 0xDBC90, symBinAddr: 0x1000DCA94, symSize: 0x750 }
  - { offset: 0x7D1FC3, size: 0x8, addend: 0x0, symName: __ZNK4juce6String21upToFirstOccurrenceOfENS_9StringRefEbb, symObjAddr: 0xDC3E0, symBinAddr: 0x1000DD1E4, symSize: 0x244 }
  - { offset: 0x7D24B3, size: 0x8, addend: 0x0, symName: __ZN4juce17StringHolderUtils21createFromCharPointerINS_16CharPointer_UTF8EEES2_T_m, symObjAddr: 0xDC774, symBinAddr: 0x1000DD578, symSize: 0x324 }
  - { offset: 0x7D2814, size: 0x8, addend: 0x0, symName: __ZN4juce6String17appendCharPointerINS_17CharPointer_UTF32EEEvT_m, symObjAddr: 0xDABBC, symBinAddr: 0x1000DB9C0, symSize: 0x230 }
  - { offset: 0x7D2F21, size: 0x8, addend: 0x0, symName: __ZN4juce6StringD1Ev, symObjAddr: 0xDB4C0, symBinAddr: 0x1000DC2C4, symSize: 0x50 }
  - { offset: 0x7D30CC, size: 0x8, addend: 0x0, symName: __ZN4juce18CharacterFunctions21compareIgnoreCaseUpToINS_16CharPointer_UTF8ES2_EEiT_T0_i, symObjAddr: 0xDCA98, symBinAddr: 0x1000DD89C, symSize: 0x250 }
  - { offset: 0x7D330A, size: 0x8, addend: 0x0, symName: __ZNK4juce6String18endsWithIgnoreCaseENS_9StringRefE, symObjAddr: 0xDD380, symBinAddr: 0x1000DE184, symSize: 0x224 }
  - { offset: 0x7D359C, size: 0x8, addend: 0x0, symName: __ZNK4juce4File27getFileNameWithoutExtensionEv, symObjAddr: 0xDCDF8, symBinAddr: 0x1000DDBFC, symSize: 0x2BC }
  - { offset: 0x7D3999, size: 0x8, addend: 0x0, symName: __ZNK4juce4File15createDirectoryEv, symObjAddr: 0xDD0B4, symBinAddr: 0x1000DDEB8, symSize: 0x2CC }
  - { offset: 0x7D4EC6, size: 0x8, addend: 0x0, symName: __ZNK4juce6String27convertToPrecomposedUnicodeEv, symObjAddr: 0xDD5A4, symBinAddr: 0x1000DE3A8, symSize: 0x71C }
  - { offset: 0x7D5C04, size: 0x8, addend: 0x0, symName: __ZZN4juce22juce_getExecutableFileEvEN12DLAddrReader11getFilenameEv, symObjAddr: 0xDE378, symBinAddr: 0x1000DF17C, symSize: 0x38 }
  - { offset: 0x7D5C9C, size: 0x8, addend: 0x0, symName: __ZNK4juce6String9substringEii, symObjAddr: 0xDE1E0, symBinAddr: 0x1000DEFE4, symSize: 0x198 }
  - { offset: 0x7D60FD, size: 0x8, addend: 0x0, symName: __ZN4juce18CharacterFunctions17compareIgnoreCaseINS_16CharPointer_UTF8ES2_EEiT_T0_, symObjAddr: 0xDDCC0, symBinAddr: 0x1000DEAC4, symSize: 0x230 }
  - { offset: 0x7D6315, size: 0x8, addend: 0x0, symName: __ZNK4juce6String19trimCharactersAtEndENS_9StringRefE, symObjAddr: 0xDDEF0, symBinAddr: 0x1000DECF4, symSize: 0x2F0 }
  - { offset: 0x7D6D49, size: 0x8, addend: 0x0, symName: __ZN4juce17MemoryInputStreamD1Ev, symObjAddr: 0xDE3B0, symBinAddr: 0x1000DF1B4, symSize: 0x34 }
  - { offset: 0x7D6E1A, size: 0x8, addend: 0x0, symName: __ZN4juce17MemoryInputStreamD0Ev, symObjAddr: 0xDE3E4, symBinAddr: 0x1000DF1E8, symSize: 0x34 }
  - { offset: 0x7D6F15, size: 0x8, addend: 0x0, symName: __ZN4juce17MemoryInputStream14getTotalLengthEv, symObjAddr: 0xDE418, symBinAddr: 0x1000DF21C, symSize: 0x8 }
  - { offset: 0x7D6F3F, size: 0x8, addend: 0x0, symName: __ZN4juce17MemoryInputStream11isExhaustedEv, symObjAddr: 0xDE420, symBinAddr: 0x1000DF224, symSize: 0x10 }
  - { offset: 0x7D6F69, size: 0x8, addend: 0x0, symName: __ZN4juce17MemoryInputStream4readEPvi, symObjAddr: 0xDE430, symBinAddr: 0x1000DF234, symSize: 0x6C }
  - { offset: 0x7D7014, size: 0x8, addend: 0x0, symName: __ZN4juce17MemoryInputStream11getPositionEv, symObjAddr: 0xDE49C, symBinAddr: 0x1000DF2A0, symSize: 0x8 }
  - { offset: 0x7D703E, size: 0x8, addend: 0x0, symName: __ZN4juce17MemoryInputStream11setPositionEx, symObjAddr: 0xDE4A4, symBinAddr: 0x1000DF2A8, symSize: 0x20 }
  - { offset: 0x7D70A7, size: 0x8, addend: 0x0, symName: __ZN4juce17MemoryInputStream13skipNextBytesEx, symObjAddr: 0xDE4C4, symBinAddr: 0x1000DF2C8, symSize: 0x48 }
  - { offset: 0x7D7135, size: 0x8, addend: 0x0, symName: __ZN4juce15SubregionStreamD1Ev, symObjAddr: 0xDE50C, symBinAddr: 0x1000DF310, symSize: 0x7C }
  - { offset: 0x7D72DC, size: 0x8, addend: 0x0, symName: __ZN4juce15SubregionStreamD0Ev, symObjAddr: 0xDE588, symBinAddr: 0x1000DF38C, symSize: 0x74 }
  - { offset: 0x7D730D, size: 0x8, addend: 0x0, symName: __ZN4juce15SubregionStreamD0Ev, symObjAddr: 0xDE588, symBinAddr: 0x1000DF38C, symSize: 0x74 }
  - { offset: 0x7D732D, size: 0x8, addend: 0x0, symName: __ZN4juce15SubregionStreamD0Ev, symObjAddr: 0xDE588, symBinAddr: 0x1000DF38C, symSize: 0x74 }
  - { offset: 0x7D74C2, size: 0x8, addend: 0x0, symName: __ZN4juce15SubregionStream14getTotalLengthEv, symObjAddr: 0xDE5FC, symBinAddr: 0x1000DF400, symSize: 0x44 }
  - { offset: 0x7D754A, size: 0x8, addend: 0x0, symName: __ZN4juce15SubregionStream11isExhaustedEv, symObjAddr: 0xDE640, symBinAddr: 0x1000DF444, symSize: 0x5C }
  - { offset: 0x7D75CC, size: 0x8, addend: 0x0, symName: __ZN4juce15SubregionStream4readEPvi, symObjAddr: 0xDE69C, symBinAddr: 0x1000DF4A0, symSize: 0x80 }
  - { offset: 0x7D7684, size: 0x8, addend: 0x0, symName: __ZN4juce15SubregionStream11getPositionEv, symObjAddr: 0xDE71C, symBinAddr: 0x1000DF520, symSize: 0x34 }
  - { offset: 0x7D76FB, size: 0x8, addend: 0x0, symName: __ZN4juce15SubregionStream11setPositionEx, symObjAddr: 0xDE750, symBinAddr: 0x1000DF554, symSize: 0x20 }
  - { offset: 0x7D772B, size: 0x8, addend: 0x0, symName: __ZN4juce15SubregionStream11setPositionEx, symObjAddr: 0xDE750, symBinAddr: 0x1000DF554, symSize: 0x20 }
  - { offset: 0x7D774B, size: 0x8, addend: 0x0, symName: __ZN4juce15SubregionStream11setPositionEx, symObjAddr: 0xDE750, symBinAddr: 0x1000DF554, symSize: 0x20 }
  - { offset: 0x7D779B, size: 0x8, addend: 0x0, symName: __ZN4juce6ThreadD1Ev, symObjAddr: 0xDE770, symBinAddr: 0x1000DF574, symSize: 0x4 }
  - { offset: 0x7D77C4, size: 0x8, addend: 0x0, symName: __ZN4juce6ThreadD0Ev, symObjAddr: 0xDE774, symBinAddr: 0x1000DF578, symSize: 0x4 }
  - { offset: 0x7D77F3, size: 0x8, addend: 0x0, symName: __ZN4juce15TimeSliceThreadD1Ev, symObjAddr: 0xDE778, symBinAddr: 0x1000DF57C, symSize: 0x4 }
  - { offset: 0x7D7817, size: 0x8, addend: 0x0, symName: __ZN4juce15TimeSliceThreadD1Ev, symObjAddr: 0xDE778, symBinAddr: 0x1000DF57C, symSize: 0x4 }
  - { offset: 0x7D7822, size: 0x8, addend: 0x0, symName: __ZN4juce15TimeSliceThreadD2Ev, symObjAddr: 0xDECEC, symBinAddr: 0x1000DFAF0, symSize: 0x5C }
  - { offset: 0x7D79D9, size: 0x8, addend: 0x0, symName: __ZN4juce15TimeSliceThreadD0Ev, symObjAddr: 0xDE77C, symBinAddr: 0x1000DF580, symSize: 0x14 }
  - { offset: 0x7D7E81, size: 0x8, addend: 0x0, symName: __ZN4juce15TimeSliceThread3runEv, symObjAddr: 0xDE790, symBinAddr: 0x1000DF594, symSize: 0x354 }
  - { offset: 0x7D87F9, size: 0x8, addend: 0x0, symName: __ZNK4juce13WaitableEvent4waitEd, symObjAddr: 0xDEAE4, symBinAddr: 0x1000DF8E8, symSize: 0x208 }
  - { offset: 0x7D9394, size: 0x8, addend: 0x0, symName: __ZN4juce6Thread10stopThreadEi, symObjAddr: 0xDED48, symBinAddr: 0x1000DFB4C, symSize: 0x270 }
  - { offset: 0x7D9F75, size: 0x8, addend: 0x0, symName: __ZN4juce6ThreadD2Ev, symObjAddr: 0xDEFB8, symBinAddr: 0x1000DFDBC, symSize: 0x1F0 }
  - { offset: 0x7DA7A1, size: 0x8, addend: 0x0, symName: __ZN4juce6Thread22signalThreadShouldExitEv, symObjAddr: 0xDF1A8, symBinAddr: 0x1000DFFAC, symSize: 0x310 }
  - { offset: 0x7DC508, size: 0x8, addend: 0x0, symName: __ZN4juce3varD1Ev, symObjAddr: 0xDF61C, symBinAddr: 0x1000E02BC, symSize: 0x30 }
  - { offset: 0x7DC64E, size: 0x8, addend: 0x0, symName: __ZN4juce3var11VariantType12defaultToIntERKNS0_10ValueUnionE, symObjAddr: 0xE06F8, symBinAddr: 0x1000E1398, symSize: 0x8 }
  - { offset: 0x7DC66B, size: 0x8, addend: 0x0, symName: __ZN4juce3var11VariantType14defaultToInt64ERKNS0_10ValueUnionE, symObjAddr: 0xE0700, symBinAddr: 0x1000E13A0, symSize: 0x8 }
  - { offset: 0x7DC688, size: 0x8, addend: 0x0, symName: __ZN4juce3var11VariantType15defaultToDoubleERKNS0_10ValueUnionE, symObjAddr: 0xE0708, symBinAddr: 0x1000E13A8, symSize: 0x8 }
  - { offset: 0x7DC6A5, size: 0x8, addend: 0x0, symName: __ZN4juce3var11VariantType15defaultToStringERKNS0_10ValueUnionE, symObjAddr: 0xE0710, symBinAddr: 0x1000E13B0, symSize: 0x10 }
  - { offset: 0x7DC6C5, size: 0x8, addend: 0x0, symName: __ZN4juce3var11VariantType15defaultToStringERKNS0_10ValueUnionE, symObjAddr: 0xE0710, symBinAddr: 0x1000E13B0, symSize: 0x10 }
  - { offset: 0x7DC6E2, size: 0x8, addend: 0x0, symName: __ZN4juce3var11VariantType15defaultToStringERKNS0_10ValueUnionE, symObjAddr: 0xE0710, symBinAddr: 0x1000E13B0, symSize: 0x10 }
  - { offset: 0x7DC6FF, size: 0x8, addend: 0x0, symName: __ZN4juce3var11VariantType15defaultToStringERKNS0_10ValueUnionE, symObjAddr: 0xE0710, symBinAddr: 0x1000E13B0, symSize: 0x10 }
  - { offset: 0x7DC726, size: 0x8, addend: 0x0, symName: __ZN4juce3var11VariantType15defaultToStringERKNS0_10ValueUnionE, symObjAddr: 0xE0710, symBinAddr: 0x1000E13B0, symSize: 0x10 }
  - { offset: 0x7DC74E, size: 0x8, addend: 0x0, symName: __ZN4juce3var11VariantType13defaultToBoolERKNS0_10ValueUnionE, symObjAddr: 0xE0720, symBinAddr: 0x1000E13C0, symSize: 0x8 }
  - { offset: 0x7DC76B, size: 0x8, addend: 0x0, symName: __ZN4juce3var11VariantType15defaultToObjectERKNS0_10ValueUnionE, symObjAddr: 0xE0728, symBinAddr: 0x1000E13C8, symSize: 0x8 }
  - { offset: 0x7DC788, size: 0x8, addend: 0x0, symName: __ZN4juce3var11VariantType14defaultToArrayERKNS0_10ValueUnionE, symObjAddr: 0xE0730, symBinAddr: 0x1000E13D0, symSize: 0x8 }
  - { offset: 0x7DC7A5, size: 0x8, addend: 0x0, symName: __ZN4juce3var11VariantType15defaultToBinaryERKNS0_10ValueUnionE, symObjAddr: 0xE0738, symBinAddr: 0x1000E13D8, symSize: 0x8 }
  - { offset: 0x7DC7C2, size: 0x8, addend: 0x0, symName: __ZN4juce3var11VariantType12defaultCloneERKS0_, symObjAddr: 0xE0740, symBinAddr: 0x1000E13E0, symSize: 0x18 }
  - { offset: 0x7DC848, size: 0x8, addend: 0x0, symName: __ZN4juce3var11VariantType14defaultCleanUpERNS0_10ValueUnionE, symObjAddr: 0xE0758, symBinAddr: 0x1000E13F8, symSize: 0x4 }
  - { offset: 0x7DC865, size: 0x8, addend: 0x0, symName: __ZN4juce3var11VariantType17defaultCreateCopyERNS0_10ValueUnionERKS2_, symObjAddr: 0xE075C, symBinAddr: 0x1000E13FC, symSize: 0xC }
  - { offset: 0x7DC896, size: 0x8, addend: 0x0, symName: __ZN4juce3var11VariantType10voidEqualsERKNS0_10ValueUnionES4_RKS1_, symObjAddr: 0xE0768, symBinAddr: 0x1000E1408, symSize: 0x14 }
  - { offset: 0x7DC8C9, size: 0x8, addend: 0x0, symName: __ZN4juce3var11VariantType17voidWriteToStreamERKNS0_10ValueUnionERNS_12OutputStreamE, symObjAddr: 0xE077C, symBinAddr: 0x1000E141C, symSize: 0x14 }
  - { offset: 0x7DC9E5, size: 0x8, addend: 0x0, symName: __ZN4juce9ArrayBaseINS_13NamedValueSet10NamedValueENS_20DummyCriticalSectionEED1Ev, symObjAddr: 0xE0790, symBinAddr: 0x1000E1430, symSize: 0xB0 }
  - { offset: 0x7DCC3F, size: 0x8, addend: 0x0, symName: __ZN4juce27GZIPDecompressorInputStreamD1Ev, symObjAddr: 0xE0840, symBinAddr: 0x1000E14E0, symSize: 0x4 }
  - { offset: 0x7DCC63, size: 0x8, addend: 0x0, symName: __ZN4juce27GZIPDecompressorInputStreamD1Ev, symObjAddr: 0xE0840, symBinAddr: 0x1000E14E0, symSize: 0x4 }
  - { offset: 0x7DCC6E, size: 0x8, addend: 0x0, symName: __ZN4juce27GZIPDecompressorInputStreamD2Ev, symObjAddr: 0xE41C0, symBinAddr: 0x1000E4E60, symSize: 0xE4 }
  - { offset: 0x7DCF73, size: 0x8, addend: 0x0, symName: __ZN4juce27GZIPDecompressorInputStreamD0Ev, symObjAddr: 0xE0844, symBinAddr: 0x1000E14E4, symSize: 0x14 }
  - { offset: 0x7DCFCA, size: 0x8, addend: 0x0, symName: __ZN4juce27GZIPDecompressorInputStream14getTotalLengthEv, symObjAddr: 0xE0858, symBinAddr: 0x1000E14F8, symSize: 0x8 }
  - { offset: 0x7DD00F, size: 0x8, addend: 0x0, symName: __ZN4juce27GZIPDecompressorInputStream11isExhaustedEv, symObjAddr: 0xE0860, symBinAddr: 0x1000E1500, symSize: 0x2C }
  - { offset: 0x7DD03C, size: 0x8, addend: 0x0, symName: __ZN4juce27GZIPDecompressorInputStream11isExhaustedEv, symObjAddr: 0xE0860, symBinAddr: 0x1000E1500, symSize: 0x2C }
  - { offset: 0x7DD0FF, size: 0x8, addend: 0x0, symName: __ZN4juce27GZIPDecompressorInputStream4readEPvi, symObjAddr: 0xE088C, symBinAddr: 0x1000E152C, symSize: 0x2994 }
  - { offset: 0x7DD5DC, size: 0x8, addend: 0x0, symName: __ZN4juce27GZIPDecompressorInputStream11getPositionEv, symObjAddr: 0xE3220, symBinAddr: 0x1000E3EC0, symSize: 0x8 }
  - { offset: 0x7DD6BE, size: 0x8, addend: 0x0, symName: __ZN4juce27GZIPDecompressorInputStream11setPositionEx, symObjAddr: 0xE3228, symBinAddr: 0x1000E3EC8, symSize: 0xF0 }
  - { offset: 0x7DD849, size: 0x8, addend: 0x0, symName: __ZN4juce27GZIPDecompressorInputStream20GZIPDecompressHelperC2ENS0_6FormatE, symObjAddr: 0xE3318, symBinAddr: 0x1000E3FB8, symSize: 0x120 }
  - { offset: 0x7DD9E1, size: 0x8, addend: 0x0, symName: __ZN4juce26GZIPCompressorOutputStreamD1Ev, symObjAddr: 0xE42A4, symBinAddr: 0x1000E4F44, symSize: 0x4 }
  - { offset: 0x7DDA05, size: 0x8, addend: 0x0, symName: __ZN4juce26GZIPCompressorOutputStreamD1Ev, symObjAddr: 0xE42A4, symBinAddr: 0x1000E4F44, symSize: 0x4 }
  - { offset: 0x7DDA10, size: 0x8, addend: 0x0, symName: __ZN4juce26GZIPCompressorOutputStreamD2Ev, symObjAddr: 0xE8588, symBinAddr: 0x1000E9228, symSize: 0x134 }
  - { offset: 0x7DDEDC, size: 0x8, addend: 0x0, symName: __ZN4juce26GZIPCompressorOutputStreamD0Ev, symObjAddr: 0xE42A8, symBinAddr: 0x1000E4F48, symSize: 0x14 }
  - { offset: 0x7DDFED, size: 0x8, addend: 0x0, symName: __ZN4juce26GZIPCompressorOutputStream5flushEv, symObjAddr: 0xE42BC, symBinAddr: 0x1000E4F5C, symSize: 0x74 }
  - { offset: 0x7DE0EF, size: 0x8, addend: 0x0, symName: __ZN4juce26GZIPCompressorOutputStream20GZIPCompressorHelper11doNextBlockERPKhRmRNS_12OutputStreamEi, symObjAddr: 0xE43A4, symBinAddr: 0x1000E5044, symSize: 0x1CC }
  - { offset: 0x7DE1FE, size: 0x8, addend: 0x0, symName: __ZN4juce26GZIPCompressorOutputStream11setPositionEx, symObjAddr: 0xE4330, symBinAddr: 0x1000E4FD0, symSize: 0x8 }
  - { offset: 0x7DE22B, size: 0x8, addend: 0x0, symName: __ZN4juce26GZIPCompressorOutputStream11getPositionEv, symObjAddr: 0xE4338, symBinAddr: 0x1000E4FD8, symSize: 0x10 }
  - { offset: 0x7DE257, size: 0x8, addend: 0x0, symName: __ZN4juce26GZIPCompressorOutputStream11getPositionEv, symObjAddr: 0xE4338, symBinAddr: 0x1000E4FD8, symSize: 0x10 }
  - { offset: 0x7DE276, size: 0x8, addend: 0x0, symName: __ZN4juce26GZIPCompressorOutputStream11getPositionEv, symObjAddr: 0xE4338, symBinAddr: 0x1000E4FD8, symSize: 0x10 }
  - { offset: 0x7DE2DA, size: 0x8, addend: 0x0, symName: __ZN4juce26GZIPCompressorOutputStream5writeEPKvm, symObjAddr: 0xE4348, symBinAddr: 0x1000E4FE8, symSize: 0x5C }
  - { offset: 0x7DE58B, size: 0x8, addend: 0x0, symName: __ZN4juce10FileFilterD1Ev, symObjAddr: 0xE87A8, symBinAddr: 0x1000E9448, symSize: 0x4 }
  - { offset: 0x7DE5B5, size: 0x8, addend: 0x0, symName: __ZN4juce10FileFilterD0Ev, symObjAddr: 0xE87AC, symBinAddr: 0x1000E944C, symSize: 0x4 }
  - { offset: 0x7DE5E5, size: 0x8, addend: 0x0, symName: __ZN4juce18WildcardFileFilterD1Ev, symObjAddr: 0xE87B0, symBinAddr: 0x1000E9450, symSize: 0x4 }
  - { offset: 0x7DE609, size: 0x8, addend: 0x0, symName: __ZN4juce18WildcardFileFilterD1Ev, symObjAddr: 0xE87B0, symBinAddr: 0x1000E9450, symSize: 0x4 }
  - { offset: 0x7DE614, size: 0x8, addend: 0x0, symName: __ZN4juce18WildcardFileFilterD2Ev, symObjAddr: 0xE8D2C, symBinAddr: 0x1000E99CC, symSize: 0x118 }
  - { offset: 0x7DECA0, size: 0x8, addend: 0x0, symName: __ZN4juce18WildcardFileFilterD0Ev, symObjAddr: 0xE87B4, symBinAddr: 0x1000E9454, symSize: 0x14 }
  - { offset: 0x7DED38, size: 0x8, addend: 0x0, symName: __ZNK4juce18WildcardFileFilter14isFileSuitableERKNS_4FileE, symObjAddr: 0xE87C8, symBinAddr: 0x1000E9468, symSize: 0xA4 }
  - { offset: 0x7DF010, size: 0x8, addend: 0x0, symName: __ZNK4juce4File11getFileNameEv, symObjAddr: 0xE8910, symBinAddr: 0x1000E95B0, symSize: 0x1A4 }
  - { offset: 0x7DF33E, size: 0x8, addend: 0x0, symName: __ZN4juce15WildCardMatcherINS_16CharPointer_UTF8EE7matchesES1_S1_b, symObjAddr: 0xE8AB4, symBinAddr: 0x1000E9754, symSize: 0x278 }
  - { offset: 0x7DF5B8, size: 0x8, addend: 0x0, symName: __ZNK4juce18WildcardFileFilter19isDirectorySuitableERKNS_4FileE, symObjAddr: 0xE886C, symBinAddr: 0x1000E950C, symSize: 0xA4 }
  - { offset: 0x7DFA01, size: 0x8, addend: 0x0, symName: __ZN4juce15StringPairArray3setERKNS_6StringES3_, symObjAddr: 0xE8E44, symBinAddr: 0x1000E9AE4, symSize: 0x4C4 }
  - { offset: 0x7E0CC7, size: 0x8, addend: 0x0, symName: __ZNK4juce8SpinLock5enterEv, symObjAddr: 0xE9308, symBinAddr: 0x1000E9FA8, symSize: 0x190 }
  - { offset: 0x7E100A, size: 0x8, addend: 0x0, symName: __ZNK4juce6String26containsNonWhitespaceCharsEv, symObjAddr: 0xE9624, symBinAddr: 0x1000EA2C4, symSize: 0x134 }
  - { offset: 0x7E114B, size: 0x8, addend: 0x0, symName: __ZN4juce18CharacterFunctions26incrementToEndOfWhitespaceINS_16CharPointer_UTF8EEEvRT_, symObjAddr: 0xE9758, symBinAddr: 0x1000EA3F8, symSize: 0x130 }
  - { offset: 0x7E1794, size: 0x8, addend: 0x0, symName: __ZN4juce3URL14addEscapeCharsERKNS_6StringEbb, symObjAddr: 0xE9A20, symBinAddr: 0x1000EA6C0, symSize: 0x520 }
  - { offset: 0x7E297E, size: 0x8, addend: 0x0, symName: __ZN4juce3URLD2Ev, symObjAddr: 0xE9F40, symBinAddr: 0x1000EABE0, symSize: 0x1BC }
  - { offset: 0x7E34A2, size: 0x8, addend: 0x0, symName: __ZNK4juce6String11lastIndexOfENS_9StringRefE, symObjAddr: 0xEA0FC, symBinAddr: 0x1000EAD9C, symSize: 0x178 }
  - { offset: 0x7E3AC1, size: 0x8, addend: 0x0, symName: __ZN4juce3URLC2ERKS0_, symObjAddr: 0xEA274, symBinAddr: 0x1000EAF14, symSize: 0x1B0 }
  - { offset: 0x7E4632, size: 0x8, addend: 0x0, symName: __ZN4juce9ArrayBaseINS_6StringENS_20DummyCriticalSectionEE8addArrayIS1_EEvPKT_i, symObjAddr: 0xEA558, symBinAddr: 0x1000EB1F8, symSize: 0x18C }
  - { offset: 0x7E4A25, size: 0x8, addend: 0x0, symName: __ZNK4juce3URL11isLocalFileEv, symObjAddr: 0xEA424, symBinAddr: 0x1000EB0C4, symSize: 0x134 }
  - { offset: 0x7E50AB, size: 0x8, addend: 0x0, symName: __ZN4juce3URL17removeEscapeCharsERKNS_6StringE, symObjAddr: 0xEA6E4, symBinAddr: 0x1000EB384, symSize: 0x6EC }
  - { offset: 0x7E6278, size: 0x8, addend: 0x0, symName: __ZNK4juce6String7replaceENS_9StringRefES1_b, symObjAddr: 0xEADD0, symBinAddr: 0x1000EBA70, symSize: 0x170 }
  - { offset: 0x7E6707, size: 0x8, addend: 0x0, symName: __ZNK4juce6String7indexOfEiNS_9StringRefE, symObjAddr: 0xEAF40, symBinAddr: 0x1000EBBE0, symSize: 0x1C4 }
  - { offset: 0x7E6D16, size: 0x8, addend: 0x0, symName: __GLOBAL__sub_I_include_juce_core.mm, symObjAddr: 0x32093C, symBinAddr: 0x100316938, symSize: 0x300 }
  - { offset: 0x7E72AF, size: 0x8, addend: 0x0, symName: __ZN4juce10IdentifierD1Ev, symObjAddr: 0xEB7B0, symBinAddr: 0x1000EC450, symSize: 0x50 }
  - { offset: 0x7E7474, size: 0x8, addend: 0x0, symName: __ZNSt3__110unique_ptrIN4juce16LocalisedStringsENS_14default_deleteIS2_EEED1B8ne190102Ev, symObjAddr: 0xEB800, symBinAddr: 0x1000EC4A0, symSize: 0x3C }
  - { offset: 0x7E7523, size: 0x8, addend: 0x0, symName: __ZN4juce16LocalisedStringsD1Ev, symObjAddr: 0xEB83C, symBinAddr: 0x1000EC4DC, symSize: 0xC4 }
  - { offset: 0x7E7A70, size: 0x8, addend: 0x0, symName: __ZN4juce13NamedValueSetD1Ev, symObjAddr: 0xEB900, symBinAddr: 0x1000EC5A0, symSize: 0xB0 }
  - { offset: 0x7E7F03, size: 0x8, addend: 0x0, symName: __ZN4juce13NamedValueSet3setERKNS_10IdentifierEONS_3varE, symObjAddr: 0xEB9B0, symBinAddr: 0x1000EC650, symSize: 0x130 }
  - { offset: 0x7E857C, size: 0x8, addend: 0x0, symName: __ZN4juce9ArrayBaseINS_13NamedValueSet10NamedValueENS_20DummyCriticalSectionEE7addImplIJS2_EEEvDpOT_, symObjAddr: 0xEBAE0, symBinAddr: 0x1000EC780, symSize: 0x198 }
  - { offset: 0x7E8DB7, size: 0x8, addend: 0x0, symName: __ZN4juce13NamedValueSet3setERKNS_10IdentifierERKNS_3varE, symObjAddr: 0xEBC78, symBinAddr: 0x1000EC918, symSize: 0x17C }
  - { offset: 0x7E96F6, size: 0x8, addend: 0x0, symName: __ZN4juce13NamedValueSet6removeERKNS_10IdentifierE, symObjAddr: 0xEBDF4, symBinAddr: 0x1000ECA94, symSize: 0x238 }
  - { offset: 0x7E9FB5, size: 0x8, addend: 0x0, symName: __ZN4juce11MemoryBlock18fromBase64EncodingENS_9StringRefE, symObjAddr: 0xEC02C, symBinAddr: 0x1000ECCCC, symSize: 0x34C }
  - { offset: 0x7EA554, size: 0x8, addend: 0x0, symName: __ZN4juce10StringPoolC1Ev, symObjAddr: 0xEC378, symBinAddr: 0x1000ED018, symSize: 0x9C }
  - { offset: 0x7EA6A7, size: 0x8, addend: 0x0, symName: __ZN4juce10StringPoolD1Ev, symObjAddr: 0xEC414, symBinAddr: 0x1000ED0B4, symSize: 0x94 }
  - { offset: 0x7EAA11, size: 0x8, addend: 0x0, symName: __ZN4juce10StringPool15getPooledStringERKNS_6StringE, symObjAddr: 0xEC4A8, symBinAddr: 0x1000ED148, symSize: 0x1F8 }
  - { offset: 0x7EB283, size: 0x8, addend: 0x0, symName: __ZN4juce10StringPool14garbageCollectEv, symObjAddr: 0xEE3DC, symBinAddr: 0x1000EF07C, symSize: 0xF4 }
  - { offset: 0x7EB69B, size: 0x8, addend: 0x0, symName: __ZN4juce9ArrayBaseINS_6StringENS_20DummyCriticalSectionEE17createInsertSpaceEii, symObjAddr: 0xEE4D0, symBinAddr: 0x1000EF170, symSize: 0x250 }
  - { offset: 0x7EB989, size: 0x8, addend: 0x0, symName: __ZN4juce3var11VariantType11stringToIntERKNS0_10ValueUnionE, symObjAddr: 0xEC6A0, symBinAddr: 0x1000ED340, symSize: 0x8 }
  - { offset: 0x7EB9B2, size: 0x8, addend: 0x0, symName: __ZN4juce3var11VariantType11stringToIntERKNS0_10ValueUnionE, symObjAddr: 0xEC6A0, symBinAddr: 0x1000ED340, symSize: 0x8 }
  - { offset: 0x7EB9D2, size: 0x8, addend: 0x0, symName: __ZN4juce3var11VariantType11stringToIntERKNS0_10ValueUnionE, symObjAddr: 0xEC6A0, symBinAddr: 0x1000ED340, symSize: 0x8 }
  - { offset: 0x7EB9FF, size: 0x8, addend: 0x0, symName: __ZN4juce3var11VariantType13stringToInt64ERKNS0_10ValueUnionE, symObjAddr: 0xEC6A8, symBinAddr: 0x1000ED348, symSize: 0x8 }
  - { offset: 0x7EBA28, size: 0x8, addend: 0x0, symName: __ZN4juce3var11VariantType13stringToInt64ERKNS0_10ValueUnionE, symObjAddr: 0xEC6A8, symBinAddr: 0x1000ED348, symSize: 0x8 }
  - { offset: 0x7EBA48, size: 0x8, addend: 0x0, symName: __ZN4juce3var11VariantType13stringToInt64ERKNS0_10ValueUnionE, symObjAddr: 0xEC6A8, symBinAddr: 0x1000ED348, symSize: 0x8 }
  - { offset: 0x7EBA75, size: 0x8, addend: 0x0, symName: __ZN4juce3var11VariantType14stringToDoubleERKNS0_10ValueUnionE, symObjAddr: 0xEC6B0, symBinAddr: 0x1000ED350, symSize: 0x28 }
  - { offset: 0x7EBB0B, size: 0x8, addend: 0x0, symName: __ZN4juce3var11VariantType14stringToStringERKNS0_10ValueUnionE, symObjAddr: 0xEC6D8, symBinAddr: 0x1000ED378, symSize: 0x28 }
  - { offset: 0x7EBB32, size: 0x8, addend: 0x0, symName: __ZN4juce3var11VariantType14stringToStringERKNS0_10ValueUnionE, symObjAddr: 0xEC6D8, symBinAddr: 0x1000ED378, symSize: 0x28 }
  - { offset: 0x7EBB5A, size: 0x8, addend: 0x0, symName: __ZN4juce3var11VariantType14stringToStringERKNS0_10ValueUnionE, symObjAddr: 0xEC6D8, symBinAddr: 0x1000ED378, symSize: 0x28 }
  - { offset: 0x7EBC84, size: 0x8, addend: 0x0, symName: __ZN4juce3var11VariantType12stringToBoolERKNS0_10ValueUnionE, symObjAddr: 0xEC700, symBinAddr: 0x1000ED3A0, symSize: 0xF4 }
  - { offset: 0x7EBFFA, size: 0x8, addend: 0x0, symName: __ZNK4juce6String4trimEv, symObjAddr: 0xECCAC, symBinAddr: 0x1000ED94C, symSize: 0x108 }
  - { offset: 0x7EC429, size: 0x8, addend: 0x0, symName: __ZN4juce3var11VariantType13stringCleanUpERNS0_10ValueUnionE, symObjAddr: 0xEC7F4, symBinAddr: 0x1000ED494, symSize: 0x2C }
  - { offset: 0x7EC562, size: 0x8, addend: 0x0, symName: __ZN4juce3var11VariantType16stringCreateCopyERNS0_10ValueUnionERKS2_, symObjAddr: 0xEC820, symBinAddr: 0x1000ED4C0, symSize: 0x28 }
  - { offset: 0x7EC598, size: 0x8, addend: 0x0, symName: __ZN4juce3var11VariantType16stringCreateCopyERNS0_10ValueUnionERKS2_, symObjAddr: 0xEC820, symBinAddr: 0x1000ED4C0, symSize: 0x28 }
  - { offset: 0x7EC5BE, size: 0x8, addend: 0x0, symName: __ZN4juce3var11VariantType16stringCreateCopyERNS0_10ValueUnionERKS2_, symObjAddr: 0xEC820, symBinAddr: 0x1000ED4C0, symSize: 0x28 }
  - { offset: 0x7EC6C0, size: 0x8, addend: 0x0, symName: __ZN4juce3var11VariantType12stringEqualsERKNS0_10ValueUnionES4_RKS1_, symObjAddr: 0xEC848, symBinAddr: 0x1000ED4E8, symSize: 0x90 }
  - { offset: 0x7EC8FD, size: 0x8, addend: 0x0, symName: __ZN4juce3var11VariantType19stringWriteToStreamERKNS0_10ValueUnionERNS_12OutputStreamE, symObjAddr: 0xEC8D8, symBinAddr: 0x1000ED578, symSize: 0x1CC }
  - { offset: 0x7ECC38, size: 0x8, addend: 0x0, symName: __ZN4juce18CharacterFunctions21copyWithDestByteLimitINS_16CharPointer_UTF8ES2_EEmRT_T0_m, symObjAddr: 0xECAA4, symBinAddr: 0x1000ED744, symSize: 0x208 }
  - { offset: 0x7ECF2D, size: 0x8, addend: 0x0, symName: __ZN4juce3var11VariantType14binaryToStringERKNS0_10ValueUnionE, symObjAddr: 0xEDE38, symBinAddr: 0x1000EEAD8, symSize: 0xC }
  - { offset: 0x7ECF61, size: 0x8, addend: 0x0, symName: __ZNK4juce11MemoryBlock16toBase64EncodingEv, symObjAddr: 0xEE000, symBinAddr: 0x1000EECA0, symSize: 0x3DC }
  - { offset: 0x7ED6ED, size: 0x8, addend: 0x0, symName: __ZN4juce3var11VariantType14binaryToBinaryERKNS0_10ValueUnionE, symObjAddr: 0xEDE44, symBinAddr: 0x1000EEAE4, symSize: 0x8 }
  - { offset: 0x7ED713, size: 0x8, addend: 0x0, symName: __ZN4juce3var11VariantType13binaryCleanUpERNS0_10ValueUnionE, symObjAddr: 0xEDE4C, symBinAddr: 0x1000EEAEC, symSize: 0x38 }
  - { offset: 0x7ED7C0, size: 0x8, addend: 0x0, symName: __ZN4juce3var11VariantType16binaryCreateCopyERNS0_10ValueUnionERKS2_, symObjAddr: 0xEDE84, symBinAddr: 0x1000EEB24, symSize: 0xA4 }
  - { offset: 0x7ED9D9, size: 0x8, addend: 0x0, symName: __ZN4juce3var11VariantType12binaryEqualsERKNS0_10ValueUnionES4_RKS1_, symObjAddr: 0xEDF28, symBinAddr: 0x1000EEBC8, symSize: 0x60 }
  - { offset: 0x7EDADF, size: 0x8, addend: 0x0, symName: __ZN4juce3var11VariantType19binaryWriteToStreamERKNS0_10ValueUnionERNS_12OutputStreamE, symObjAddr: 0xEDF88, symBinAddr: 0x1000EEC28, symSize: 0x78 }
  - { offset: 0x7EDCAF, size: 0x8, addend: 0x0, symName: __ZN4juce5ArrayINS_6StringENS_20DummyCriticalSectionELi0EE14removeInternalEi, symObjAddr: 0xEE720, symBinAddr: 0x1000EF3C0, symSize: 0x170 }
  - { offset: 0x7EE1BD, size: 0x8, addend: 0x0, symName: __ZNK4juce6String9substringEi, symObjAddr: 0xEE890, symBinAddr: 0x1000EF530, symSize: 0xA8 }
  - { offset: 0x7EE4FD, size: 0x8, addend: 0x0, symName: __ZN4juce10XmlElement12setAttributeERKNS_10IdentifierERKNS_6StringE, symObjAddr: 0xEE938, symBinAddr: 0x1000EF5D8, symSize: 0x140 }
  - { offset: 0x7EEE74, size: 0x8, addend: 0x0, symName: __ZN4juce15CriticalSectionC1Ev, symObjAddr: 0xEEA78, symBinAddr: 0x1000EF718, symSize: 0x94 }
  - { offset: 0x7EEEFB, size: 0x8, addend: 0x0, symName: __ZN4juce11PropertySetD2Ev, symObjAddr: 0xEEB0C, symBinAddr: 0x1000EF7AC, symSize: 0x3C }
  - { offset: 0x7EEF7F, size: 0x8, addend: 0x0, symName: __ZN4juce15CriticalSectionD1Ev, symObjAddr: 0xEEB48, symBinAddr: 0x1000EF7E8, symSize: 0x28 }
  - { offset: 0x7EEFC8, size: 0x8, addend: 0x0, symName: __ZNK4juce11PropertySet8getValueENS_9StringRefERKNS_6StringE, symObjAddr: 0xEEB70, symBinAddr: 0x1000EF810, symSize: 0x184 }
  - { offset: 0x7EF49D, size: 0x8, addend: 0x0, symName: __ZNK4juce11PropertySet11getIntValueENS_9StringRefEi, symObjAddr: 0xEECF4, symBinAddr: 0x1000EF994, symSize: 0x160 }
  - { offset: 0x7EF90D, size: 0x8, addend: 0x0, symName: __ZNK4juce6String11getIntValueEv, symObjAddr: 0xEEE54, symBinAddr: 0x1000EFAF4, symSize: 0x4 }
  - { offset: 0x7EF92F, size: 0x8, addend: 0x0, symName: __ZNK4juce6String11getIntValueEv, symObjAddr: 0xEEE54, symBinAddr: 0x1000EFAF4, symSize: 0x4 }
  - { offset: 0x7EF945, size: 0x8, addend: 0x0, symName: __ZNK4juce6String11getIntValueEv, symObjAddr: 0xEEE54, symBinAddr: 0x1000EFAF4, symSize: 0x4 }
  - { offset: 0x7EF950, size: 0x8, addend: 0x0, symName: __ZNK4juce11PropertySet12getBoolValueENS_9StringRefEb, symObjAddr: 0xEEE58, symBinAddr: 0x1000EFAF8, symSize: 0x168 }
  - { offset: 0x7EFDE3, size: 0x8, addend: 0x0, symName: __ZN4juce11XmlDocument18getDocumentElementEb, symObjAddr: 0xEEFC0, symBinAddr: 0x1000EFC60, symSize: 0x498 }
  - { offset: 0x7F0D26, size: 0x8, addend: 0x0, symName: __ZN4juce11XmlDocument20parseDocumentElementENS_16CharPointer_UTF8Eb, symObjAddr: 0xEF558, symBinAddr: 0x1000F01F8, symSize: 0xB34 }
  - { offset: 0x7F240A, size: 0x8, addend: 0x0, symName: __ZN4juce11XmlDocumentD2Ev, symObjAddr: 0xEF458, symBinAddr: 0x1000F00F8, symSize: 0x100 }
  - { offset: 0x7F2EEB, size: 0x8, addend: 0x0, symName: __ZN4juce11XmlDocument18skipNextWhiteSpaceEv, symObjAddr: 0xF1140, symBinAddr: 0x1000F1DE0, symSize: 0x624 }
  - { offset: 0x7F342A, size: 0x8, addend: 0x0, symName: __ZN4juce11XmlDocument15readNextElementEb, symObjAddr: 0xF008C, symBinAddr: 0x1000F0D2C, symSize: 0xF1C }
  - { offset: 0x7F5FE8, size: 0x8, addend: 0x0, symName: __ZN4juce10XmlElementD1Ev, symObjAddr: 0xF0FA8, symBinAddr: 0x1000F1C48, symSize: 0xBC }
  - { offset: 0x7F6686, size: 0x8, addend: 0x0, symName: __ZN4juce10StringPool15getPooledStringENS_16CharPointer_UTF8ES1_, symObjAddr: 0xF188C, symBinAddr: 0x1000F252C, symSize: 0x278 }
  - { offset: 0x7F7068, size: 0x8, addend: 0x0, symName: __ZN4juce11XmlDocument10readEntityERNS_6StringE, symObjAddr: 0xF34A0, symBinAddr: 0x1000F4140, symSize: 0xFB4 }
  - { offset: 0x7F931A, size: 0x8, addend: 0x0, symName: __ZN4juce11XmlDocument17readChildElementsERNS_10XmlElementE, symObjAddr: 0xF1B04, symBinAddr: 0x1000F27A4, symSize: 0x199C }
  - { offset: 0x7FC447, size: 0x8, addend: 0x0, symName: __ZN4juce17LinkedListPointerINS_10XmlElementEE9deleteAllEv, symObjAddr: 0xF1064, symBinAddr: 0x1000F1D04, symSize: 0xDC }
  - { offset: 0x7FC979, size: 0x8, addend: 0x0, symName: __ZN4juce18CharacterFunctions7indexOfINS_16CharPointer_UTF8ENS_17CharPointer_ASCIIEEEiT_T0_, symObjAddr: 0xF72B4, symBinAddr: 0x1000F7F54, symSize: 0x220 }
  - { offset: 0x7FCC0A, size: 0x8, addend: 0x0, symName: __ZN4juce10XmlElement17createTextElementERKNS_6StringE, symObjAddr: 0xF712C, symBinAddr: 0x1000F7DCC, symSize: 0x188 }
  - { offset: 0x7FD0EF, size: 0x8, addend: 0x0, symName: __ZN4juce18CharacterFunctions21compareIgnoreCaseUpToINS_16CharPointer_UTF8ENS_17CharPointer_ASCIIEEEiT_T0_i, symObjAddr: 0xF4454, symBinAddr: 0x1000F50F4, symSize: 0x180 }
  - { offset: 0x7FD2E4, size: 0x8, addend: 0x0, symName: __ZNK4juce16CharPointer_UTF8ixEi, symObjAddr: 0xF45D4, symBinAddr: 0x1000F5274, symSize: 0x98 }
  - { offset: 0x7FD376, size: 0x8, addend: 0x0, symName: __ZN4juce11XmlDocument20expandExternalEntityERKNS_6StringE, symObjAddr: 0xF478C, symBinAddr: 0x1000F542C, symSize: 0x2388 }
  - { offset: 0x804F48, size: 0x8, addend: 0x0, symName: __ZN4juce6StringC1EPKc, symObjAddr: 0xF466C, symBinAddr: 0x1000F530C, symSize: 0xD4 }
  - { offset: 0x804F9A, size: 0x8, addend: 0x0, symName: __ZN4juce6StringC1EPKc, symObjAddr: 0xF466C, symBinAddr: 0x1000F530C, symSize: 0xD4 }
  - { offset: 0x8051A5, size: 0x8, addend: 0x0, symName: __ZN4juce6StringpLEc, symObjAddr: 0xF4740, symBinAddr: 0x1000F53E0, symSize: 0x4C }
  - { offset: 0x805413, size: 0x8, addend: 0x0, symName: __ZNK4juce11XmlDocument15getFileContentsERKNS_6StringE, symObjAddr: 0xF6B14, symBinAddr: 0x1000F77B4, symSize: 0x168 }
  - { offset: 0x805A9D, size: 0x8, addend: 0x0, symName: __ZNK4juce6String8unquotedEv, symObjAddr: 0xF6C7C, symBinAddr: 0x1000F791C, symSize: 0x26C }
  - { offset: 0x805AD9, size: 0x8, addend: 0x0, symName: __ZNK4juce6String8unquotedEv, symObjAddr: 0xF6C7C, symBinAddr: 0x1000F791C, symSize: 0x26C }
  - { offset: 0x805DC9, size: 0x8, addend: 0x0, symName: __ZN4juce6String12charToStringEw, symObjAddr: 0xF7024, symBinAddr: 0x1000F7CC4, symSize: 0x108 }
  - { offset: 0x805F63, size: 0x8, addend: 0x0, symName: __ZNK4juce6StringixEi, symObjAddr: 0xF6EE8, symBinAddr: 0x1000F7B88, symSize: 0x13C }
  - { offset: 0x805FB1, size: 0x8, addend: 0x0, symName: __ZNK4juce6StringixEi, symObjAddr: 0xF6EE8, symBinAddr: 0x1000F7B88, symSize: 0x13C }
  - { offset: 0x806123, size: 0x8, addend: 0x0, symName: __ZN4juce11PropertySet8setValueENS_9StringRefERKNS_3varE, symObjAddr: 0xF7720, symBinAddr: 0x1000F83C0, symSize: 0x22C }
  - { offset: 0x8069D6, size: 0x8, addend: 0x0, symName: __ZNK4juce10XmlElement8toStringERKNS0_10TextFormatE, symObjAddr: 0xF794C, symBinAddr: 0x1000F85EC, symSize: 0x210 }
  - { offset: 0x8072DD, size: 0x8, addend: 0x0, symName: __ZNK4juce10XmlElement7writeToERNS_12OutputStreamERKNS0_10TextFormatE, symObjAddr: 0xF7B5C, symBinAddr: 0x1000F87FC, symSize: 0x4EC }
  - { offset: 0x80784C, size: 0x8, addend: 0x0, symName: __ZNK4juce10XmlElement18writeElementAsTextERNS_12OutputStreamEiiPKc, symObjAddr: 0xF8048, symBinAddr: 0x1000F8CE8, symSize: 0x6C4 }
  - { offset: 0x80819F, size: 0x8, addend: 0x0, symName: __ZNK4juce10XmlElement7getTextEv, symObjAddr: 0xF89C4, symBinAddr: 0x1000F9664, symSize: 0x128 }
  - { offset: 0x8083C9, size: 0x8, addend: 0x0, symName: __ZN4juce10XmlElement21createNewChildElementENS_9StringRefE, symObjAddr: 0xF8AEC, symBinAddr: 0x1000F978C, symSize: 0xC4 }
  - { offset: 0x808517, size: 0x8, addend: 0x0, symName: __ZN4juce10StringPool15getPooledStringENS_9StringRefE, symObjAddr: 0xF8E10, symBinAddr: 0x1000F9AB0, symSize: 0x104 }
  - { offset: 0x8088FC, size: 0x8, addend: 0x0, symName: __ZN4juce10StringPool15getPooledStringEPKc, symObjAddr: 0xF8BB0, symBinAddr: 0x1000F9850, symSize: 0x108 }
  - { offset: 0x808CB6, size: 0x8, addend: 0x0, symName: __ZN4juce11StringArray4trimEv, symObjAddr: 0xF8F14, symBinAddr: 0x1000F9BB4, symSize: 0x8C }
  - { offset: 0x808CD4, size: 0x8, addend: 0x0, symName: __ZN4juce11StringArray4trimEv, symObjAddr: 0xF8F14, symBinAddr: 0x1000F9BB4, symSize: 0x8C }
  - { offset: 0x80901C, size: 0x8, addend: 0x0, symName: __ZN4juce17DirectoryIterator4nextEPbS1_PxPNS_4TimeES4_S1_, symObjAddr: 0xF8FA0, symBinAddr: 0x1000F9C40, symSize: 0x99C }
  - { offset: 0x80BC98, size: 0x8, addend: 0x0, symName: __ZNSt3__110unique_ptrIN4juce17DirectoryIteratorENS_14default_deleteIS2_EEE5resetB8ne190102EPS2_, symObjAddr: 0xF993C, symBinAddr: 0x1000FA5DC, symSize: 0x188 }
  - { offset: 0x80C7E7, size: 0x8, addend: 0x0, symName: __ZN4juce17DirectoryIteratorC2ERKNS_4FileEbRKNS_6StringEiNS1_14FollowSymlinksEPNSt3__13setIS1_NS8_4lessIS1_EENS8_9allocatorIS1_EEEE, symObjAddr: 0xF9AC4, symBinAddr: 0x1000FA764, symSize: 0x4D4 }
  - { offset: 0x80EFD4, size: 0x8, addend: 0x0, symName: __ZNSt3__110unique_ptrINS_3setIN4juce4FileENS_4lessIS3_EENS_9allocatorIS3_EEEENS_14default_deleteIS8_EEED1B8ne190102Ev, symObjAddr: 0xF9F98, symBinAddr: 0x1000FAC38, symSize: 0x40 }
  - { offset: 0x80F11D, size: 0x8, addend: 0x0, symName: __ZN4juce17DirectoryIterator14NativeIteratorD1Ev, symObjAddr: 0xF9FD8, symBinAddr: 0x1000FAC78, symSize: 0x90 }
  - { offset: 0x80F4D8, size: 0x8, addend: 0x0, symName: __ZN4juce4FileaSERKS0_, symObjAddr: 0xFA0C8, symBinAddr: 0x1000FAD08, symSize: 0x6C }
  - { offset: 0x80FD8A, size: 0x8, addend: 0x0, symName: __ZN4juce23RangedDirectoryIteratorC2ERKNS_4FileEbRKNS_6StringEiNS1_14FollowSymlinksE, symObjAddr: 0xFA134, symBinAddr: 0x1000FAD74, symSize: 0x184 }
  - { offset: 0x8104FE, size: 0x8, addend: 0x0, symName: __ZN4juce23RangedDirectoryIterator4nextEv, symObjAddr: 0xFA2B8, symBinAddr: 0x1000FAEF8, symSize: 0xF4 }
  - { offset: 0x8109E5, size: 0x8, addend: 0x0, symName: __ZN4juce14DirectoryEntryD1Ev, symObjAddr: 0xFA430, symBinAddr: 0x1000FB070, symSize: 0x54 }
  - { offset: 0x810D03, size: 0x8, addend: 0x0, symName: __ZN4juce23RangedDirectoryIteratorD1Ev, symObjAddr: 0xFA3AC, symBinAddr: 0x1000FAFEC, symSize: 0x84 }
  - { offset: 0x810FFB, size: 0x8, addend: 0x0, symName: __ZNSt3__120__shared_ptr_pointerIPN4juce17DirectoryIteratorENS_10shared_ptrIS2_E27__shared_ptr_default_deleteIS2_S2_EENS_9allocatorIS2_EEED1Ev, symObjAddr: 0xFA4D4, symBinAddr: 0x1000FB0C4, symSize: 0x4 }
  - { offset: 0x81101F, size: 0x8, addend: 0x0, symName: __ZNSt3__120__shared_ptr_pointerIPN4juce17DirectoryIteratorENS_10shared_ptrIS2_E27__shared_ptr_default_deleteIS2_S2_EENS_9allocatorIS2_EEED1Ev, symObjAddr: 0xFA4D4, symBinAddr: 0x1000FB0C4, symSize: 0x4 }
  - { offset: 0x811056, size: 0x8, addend: 0x0, symName: __ZNSt3__120__shared_ptr_pointerIPN4juce17DirectoryIteratorENS_10shared_ptrIS2_E27__shared_ptr_default_deleteIS2_S2_EENS_9allocatorIS2_EEED0Ev, symObjAddr: 0xFA4D8, symBinAddr: 0x1000FB0C8, symSize: 0x14 }
  - { offset: 0x8110BD, size: 0x8, addend: 0x0, symName: __ZNSt3__120__shared_ptr_pointerIPN4juce17DirectoryIteratorENS_10shared_ptrIS2_E27__shared_ptr_default_deleteIS2_S2_EENS_9allocatorIS2_EEE16__on_zero_sharedEv, symObjAddr: 0xFA4EC, symBinAddr: 0x1000FB0DC, symSize: 0x184 }
  - { offset: 0x811C24, size: 0x8, addend: 0x0, symName: __ZNKSt3__120__shared_ptr_pointerIPN4juce17DirectoryIteratorENS_10shared_ptrIS2_E27__shared_ptr_default_deleteIS2_S2_EENS_9allocatorIS2_EEE13__get_deleterERKSt9type_info, symObjAddr: 0xFA670, symBinAddr: 0x1000FB260, symSize: 0x64 }
  - { offset: 0x811D23, size: 0x8, addend: 0x0, symName: __ZNSt3__120__shared_ptr_pointerIPN4juce17DirectoryIteratorENS_10shared_ptrIS2_E27__shared_ptr_default_deleteIS2_S2_EENS_9allocatorIS2_EEE21__on_zero_shared_weakEv, symObjAddr: 0xFA6D4, symBinAddr: 0x1000FB2C4, symSize: 0x4 }
  - { offset: 0x811D57, size: 0x8, addend: 0x0, symName: __ZNSt3__120__shared_ptr_pointerIPN4juce17DirectoryIteratorENS_10shared_ptrIS2_E27__shared_ptr_default_deleteIS2_S2_EENS_9allocatorIS2_EEE21__on_zero_shared_weakEv, symObjAddr: 0xFA6D4, symBinAddr: 0x1000FB2C4, symSize: 0x4 }
  - { offset: 0x811D7B, size: 0x8, addend: 0x0, symName: __ZNSt3__120__shared_ptr_pointerIPN4juce17DirectoryIteratorENS_10shared_ptrIS2_E27__shared_ptr_default_deleteIS2_S2_EENS_9allocatorIS2_EEE21__on_zero_shared_weakEv, symObjAddr: 0xFA6D4, symBinAddr: 0x1000FB2C4, symSize: 0x4 }
  - { offset: 0x811DAA, size: 0x8, addend: 0x0, symName: __ZNSt3__120__shared_ptr_pointerIPN4juce17DirectoryIteratorENS_10shared_ptrIS2_E27__shared_ptr_default_deleteIS2_S2_EENS_9allocatorIS2_EEE21__on_zero_shared_weakEv, symObjAddr: 0xFA6D4, symBinAddr: 0x1000FB2C4, symSize: 0x4 }
  - { offset: 0x811DD4, size: 0x8, addend: 0x0, symName: __ZNSt3__120__shared_ptr_pointerIPN4juce17DirectoryIteratorENS_10shared_ptrIS2_E27__shared_ptr_default_deleteIS2_S2_EENS_9allocatorIS2_EEE21__on_zero_shared_weakEv, symObjAddr: 0xFA6D4, symBinAddr: 0x1000FB2C4, symSize: 0x4 }
  - { offset: 0x811DFF, size: 0x8, addend: 0x0, symName: __ZNK4juce4File18getParentDirectoryEv, symObjAddr: 0xFA744, symBinAddr: 0x1000FB2C8, symSize: 0xA4 }
  - { offset: 0x8127F6, size: 0x8, addend: 0x0, symName: __ZNK4juce4File14findChildFilesERNS_5ArrayIS0_NS_20DummyCriticalSectionELi0EEEibRKNS_6StringENS0_14FollowSymlinksE, symObjAddr: 0xFA7E8, symBinAddr: 0x1000FB36C, symSize: 0x3A8 }
  - { offset: 0x813D64, size: 0x8, addend: 0x0, symName: __ZNK4juce4File14findChildFilesEibRKNS_6StringENS0_14FollowSymlinksE, symObjAddr: 0xFAB90, symBinAddr: 0x1000FB714, symSize: 0x40 }
  - { offset: 0x813F31, size: 0x8, addend: 0x0, symName: __ZNK4juce4File17deleteRecursivelyEb, symObjAddr: 0xFABD0, symBinAddr: 0x1000FB754, symSize: 0x1C4 }
  - { offset: 0x814857, size: 0x8, addend: 0x0, symName: __ZNK4juce4File10deleteFileEv, symObjAddr: 0xFAD94, symBinAddr: 0x1000FB918, symSize: 0xB8 }
  - { offset: 0x814ACC, size: 0x8, addend: 0x0, symName: __ZNK4juce4File10moveFileToERKS0_, symObjAddr: 0xFAE4C, symBinAddr: 0x1000FB9D0, symSize: 0xA4 }
  - { offset: 0x814CBE, size: 0x8, addend: 0x0, symName: __ZNK4juce4File12moveInternalERKS0_, symObjAddr: 0xFAEF0, symBinAddr: 0x1000FBA74, symSize: 0x208 }
  - { offset: 0x815833, size: 0x8, addend: 0x0, symName: __ZNK4juce4File14hasWriteAccessEv, symObjAddr: 0xFB0F8, symBinAddr: 0x1000FBC7C, symSize: 0x240 }
  - { offset: 0x816177, size: 0x8, addend: 0x0, symName: __ZN4juce4File24descriptionOfSizeInBytesEx, symObjAddr: 0xFB338, symBinAddr: 0x1000FBEBC, symSize: 0x230 }
  - { offset: 0x8166A0, size: 0x8, addend: 0x0, symName: __ZNK4juce4File6createEv, symObjAddr: 0xFB568, symBinAddr: 0x1000FC0EC, symSize: 0x25C }
  - { offset: 0x817981, size: 0x8, addend: 0x0, symName: __ZNK4juce6String16getLastCharacterEv, symObjAddr: 0xFB7C4, symBinAddr: 0x1000FC348, symSize: 0x19C }
  - { offset: 0x8179AA, size: 0x8, addend: 0x0, symName: __ZNK4juce6String16getLastCharacterEv, symObjAddr: 0xFB7C4, symBinAddr: 0x1000FC348, symSize: 0x19C }
  - { offset: 0x8179C0, size: 0x8, addend: 0x0, symName: __ZNK4juce6String16getLastCharacterEv, symObjAddr: 0xFB7C4, symBinAddr: 0x1000FC348, symSize: 0x19C }
  - { offset: 0x817AFA, size: 0x8, addend: 0x0, symName: __ZNK4juce4File16getFileExtensionEv, symObjAddr: 0xFBA9C, symBinAddr: 0x1000FC620, symSize: 0x2AC }
  - { offset: 0x817E48, size: 0x8, addend: 0x0, symName: __ZNK4juce4File16hasFileExtensionENS_9StringRefE, symObjAddr: 0xFBD48, symBinAddr: 0x1000FC8CC, symSize: 0x834 }
  - { offset: 0x818F3D, size: 0x8, addend: 0x0, symName: __ZNK4juce4File17createInputStreamEv, symObjAddr: 0xFC57C, symBinAddr: 0x1000FD100, symSize: 0x74 }
  - { offset: 0x8191D8, size: 0x8, addend: 0x0, symName: __ZN4juce13TemporaryFileC2ERKNS_4FileEi, symObjAddr: 0xFC5F0, symBinAddr: 0x1000FD174, symSize: 0x1028 }
  - { offset: 0x81D695, size: 0x8, addend: 0x0, symName: __ZNK4juce13TemporaryFile32overwriteTargetFileWithTemporaryEv, symObjAddr: 0xFD618, symBinAddr: 0x1000FE19C, symSize: 0x270 }
  - { offset: 0x81D9DB, size: 0x8, addend: 0x0, symName: __ZNK4juce13TemporaryFile19deleteTemporaryFileEv, symObjAddr: 0xFD888, symBinAddr: 0x1000FE40C, symSize: 0x1C0 }
  - { offset: 0x81DBC6, size: 0x8, addend: 0x0, symName: __ZN4juce13TemporaryFileD1Ev, symObjAddr: 0xFDA48, symBinAddr: 0x1000FE5CC, symSize: 0x70 }
  - { offset: 0x81DEC9, size: 0x8, addend: 0x0, symName: __ZNK4juce6String16removeCharactersENS_9StringRefE, symObjAddr: 0xFDAB8, symBinAddr: 0x1000FE63C, symSize: 0x268 }
  - { offset: 0x81E492, size: 0x8, addend: 0x0, symName: __ZN4juce4File19createLegalFileNameERKNS_6StringE, symObjAddr: 0xFDD20, symBinAddr: 0x1000FE8A4, symSize: 0x4F0 }
  - { offset: 0x81F6E7, size: 0x8, addend: 0x0, symName: __ZNK4juce4File19getRelativePathFromERKS0_, symObjAddr: 0xFE210, symBinAddr: 0x1000FED94, symSize: 0x874 }
  - { offset: 0x820FDF, size: 0x8, addend: 0x0, symName: __ZN4juce18CharacterFunctions11toLowerCaseEw, symObjAddr: 0xFEA84, symBinAddr: 0x1000FF608, symSize: 0x18 }
  - { offset: 0x82102A, size: 0x8, addend: 0x0, symName: __ZN4juce11StringArrayC1ERKS0_, symObjAddr: 0xFEB30, symBinAddr: 0x1000FF6B4, symSize: 0x34 }
  - { offset: 0x821173, size: 0x8, addend: 0x0, symName: __ZNK4juce6String6quotedEw, symObjAddr: 0xFEB64, symBinAddr: 0x1000FF6E8, symSize: 0x39C }
  - { offset: 0x8220FE, size: 0x8, addend: 0x0, symName: __ZN4juce11StringArrayaSEOS0_, symObjAddr: 0xFEF00, symBinAddr: 0x1000FFA84, symSize: 0xA8 }
  - { offset: 0x82259A, size: 0x8, addend: 0x0, symName: __ZNK4juce15StringPairArray8getValueENS_9StringRefERKNS_6StringE, symObjAddr: 0xFF0C8, symBinAddr: 0x1000FFC4C, symSize: 0x158 }
  - { offset: 0x822A6B, size: 0x8, addend: 0x0, symName: __ZN4juce4Time14getCurrentTimeEv, symObjAddr: 0xFF220, symBinAddr: 0x1000FFDA4, symSize: 0x50 }
  - { offset: 0x822C3F, size: 0x8, addend: 0x0, symName: __ZNK4juce4Time9formattedERKNS_6StringE, symObjAddr: 0xFF270, symBinAddr: 0x1000FFDF4, symSize: 0x28C }
  - { offset: 0x823262, size: 0x8, addend: 0x0, symName: __ZNK4juce10BigInteger13getHighestBitEv, symObjAddr: 0xFF71C, symBinAddr: 0x1001002A0, symSize: 0x4C }
  - { offset: 0x823292, size: 0x8, addend: 0x0, symName: __ZNK4juce10BigInteger13getHighestBitEv, symObjAddr: 0xFF71C, symBinAddr: 0x1001002A0, symSize: 0x4C }
  - { offset: 0x8232B0, size: 0x8, addend: 0x0, symName: __ZNK4juce10BigInteger13getHighestBitEv, symObjAddr: 0xFF71C, symBinAddr: 0x1001002A0, symSize: 0x4C }
  - { offset: 0x823333, size: 0x8, addend: 0x0, symName: __ZN4juce10BigIntegeraSERKS0_, symObjAddr: 0xFF768, symBinAddr: 0x1001002EC, symSize: 0x104 }
  - { offset: 0x8237C1, size: 0x8, addend: 0x0, symName: __ZN4juce10BigInteger6setBitEib, symObjAddr: 0xFF86C, symBinAddr: 0x1001003F0, symSize: 0x174 }
  - { offset: 0x823B34, size: 0x8, addend: 0x0, symName: __ZN4juce10BigInteger6setBitEi, symObjAddr: 0xFF9E0, symBinAddr: 0x100100564, symSize: 0xF8 }
  - { offset: 0x823D99, size: 0x8, addend: 0x0, symName: __ZN4juce10BigInteger10shiftRightEii, symObjAddr: 0xFFAD8, symBinAddr: 0x10010065C, symSize: 0x138 }
  - { offset: 0x824046, size: 0x8, addend: 0x0, symName: __ZN4juce10BigIntegerpLERKS0_, symObjAddr: 0xFFC10, symBinAddr: 0x100100794, symSize: 0x5D8 }
  - { offset: 0x825049, size: 0x8, addend: 0x0, symName: __ZN4juce10BigIntegermIERKS0_, symObjAddr: 0x1001E8, symBinAddr: 0x100100D6C, symSize: 0x568 }
  - { offset: 0x825F18, size: 0x8, addend: 0x0, symName: __ZNK4juce10BigIntegereqERKS0_, symObjAddr: 0x100750, symBinAddr: 0x1001012D4, symSize: 0x190 }
  - { offset: 0x825F80, size: 0x8, addend: 0x0, symName: __ZNK4juce10BigIntegereqERKS0_, symObjAddr: 0x100750, symBinAddr: 0x1001012D4, symSize: 0x190 }
  - { offset: 0x8265D0, size: 0x8, addend: 0x0, symName: __ZN4juce10BigInteger11parseStringENS_9StringRefEi, symObjAddr: 0x100D08, symBinAddr: 0x10010188C, symSize: 0x3DC }
  - { offset: 0x826D9B, size: 0x8, addend: 0x0, symName: __ZN4juce11MemoryBlockC1Emb, symObjAddr: 0x1010E4, symBinAddr: 0x100101C68, symSize: 0x78 }
  - { offset: 0x826F02, size: 0x8, addend: 0x0, symName: __ZN4juce4Time21getMillisecondCounterEv, symObjAddr: 0x10115C, symBinAddr: 0x100101CE0, symSize: 0x58 }
  - { offset: 0x827041, size: 0x8, addend: 0x0, symName: __ZN4juce11StringArray10fromTokensENS_9StringRefES1_S1_, symObjAddr: 0x101204, symBinAddr: 0x100101D38, symSize: 0x38 }
  - { offset: 0x82721F, size: 0x8, addend: 0x0, symName: __ZN4juce16ErasedScopeGuardC1ENSt3__18functionIFvvEEE, symObjAddr: 0x10123C, symBinAddr: 0x100101D70, symSize: 0x68 }
  - { offset: 0x827472, size: 0x8, addend: 0x0, symName: __ZN4juce16ErasedScopeGuardD1Ev, symObjAddr: 0x1012A4, symBinAddr: 0x100101DD8, symSize: 0x184 }
  - { offset: 0x82783F, size: 0x8, addend: 0x0, symName: __ZNK4juce15CriticalSection5enterEv, symObjAddr: 0x101428, symBinAddr: 0x100101F5C, symSize: 0x18 }
  - { offset: 0x827870, size: 0x8, addend: 0x0, symName: __ZNK4juce15CriticalSection4exitEv, symObjAddr: 0x101440, symBinAddr: 0x100101F74, symSize: 0x18 }
  - { offset: 0x827A14, size: 0x8, addend: 0x0, symName: __ZN4juce16InterProcessLockD1Ev, symObjAddr: 0x101458, symBinAddr: 0x100101F8C, symSize: 0xC8 }
  - { offset: 0x827D89, size: 0x8, addend: 0x0, symName: __ZN4juce16InterProcessLock5enterEi, symObjAddr: 0x101520, symBinAddr: 0x100102054, symSize: 0x3C4 }
  - { offset: 0x82940A, size: 0x8, addend: 0x0, symName: __ZN4juce16InterProcessLock5Pimpl14createLockFileERKNS_4FileEi, symObjAddr: 0x1018E4, symBinAddr: 0x100102418, symSize: 0x190 }
  - { offset: 0x82978A, size: 0x8, addend: 0x0, symName: __ZN4juce16InterProcessLock4exitEv, symObjAddr: 0x101A74, symBinAddr: 0x1001025A8, symSize: 0xB8 }
  - { offset: 0x829BD7, size: 0x8, addend: 0x0, symName: __ZNK4juce13ReadWriteLock8exitReadEv, symObjAddr: 0x101B2C, symBinAddr: 0x100102660, symSize: 0x120 }
  - { offset: 0x82A31A, size: 0x8, addend: 0x0, symName: __ZNK4juce13ReadWriteLock10enterWriteEv, symObjAddr: 0x101C4C, symBinAddr: 0x100102780, symSize: 0xD0 }
  - { offset: 0x82A66F, size: 0x8, addend: 0x0, symName: __ZNK4juce13ReadWriteLock9exitWriteEv, symObjAddr: 0x101D1C, symBinAddr: 0x100102850, symSize: 0x80 }
  - { offset: 0x82AAC3, size: 0x8, addend: 0x0, symName: __ZN4juce13ReadWriteLockD1Ev, symObjAddr: 0x101D9C, symBinAddr: 0x1001028D0, symSize: 0x4C }
  - { offset: 0x82AC81, size: 0x8, addend: 0x0, symName: __ZNK4juce6String11toLowerCaseEv, symObjAddr: 0x101DE8, symBinAddr: 0x10010291C, symSize: 0x194 }
  - { offset: 0x82B1E6, size: 0x8, addend: 0x0, symName: __ZN4juce6String5clearEv, symObjAddr: 0x101F7C, symBinAddr: 0x100102AB0, symSize: 0x58 }
  - { offset: 0x82B325, size: 0x8, addend: 0x0, symName: __ZNK4juce6String13containsAnyOfENS_9StringRefE, symObjAddr: 0x101FD4, symBinAddr: 0x100102B08, symSize: 0x1C0 }
  - { offset: 0x82B492, size: 0x8, addend: 0x0, symName: __ZN4juce11StringArray3addENS_6StringE, symObjAddr: 0x102194, symBinAddr: 0x100102CC8, symSize: 0x144 }
  - { offset: 0x82B7FD, size: 0x8, addend: 0x0, symName: __ZN4juce18MemoryOutputStreamC1Em, symObjAddr: 0x1022D8, symBinAddr: 0x100102E0C, symSize: 0xF0 }
  - { offset: 0x82BCBB, size: 0x8, addend: 0x0, symName: __ZN4juce17MemoryInputStreamC1EPKvmb, symObjAddr: 0x1023C8, symBinAddr: 0x100102EFC, symSize: 0x18 }
  - { offset: 0x82BCF8, size: 0x8, addend: 0x0, symName: __ZN4juce17MemoryInputStreamC1EPKvmb, symObjAddr: 0x1023C8, symBinAddr: 0x100102EFC, symSize: 0x18 }
  - { offset: 0x82BE45, size: 0x8, addend: 0x0, symName: __ZN4juce6String12fromCFStringEPK10__CFString, symObjAddr: 0x1023E0, symBinAddr: 0x100102F14, symSize: 0x13C }
  - { offset: 0x82C2F3, size: 0x8, addend: 0x0, symName: __ZNSt3__110unique_ptrIKvN4juce15CFObjectDeleterEED1B8ne190102Ev, symObjAddr: 0x10251C, symBinAddr: 0x100103050, symSize: 0x34 }
  - { offset: 0x82C3A1, size: 0x8, addend: 0x0, symName: '__ZZN4juce11SystemStats30isRunningInAppExtensionSandboxEvENK3$_0clEv', symObjAddr: 0x102550, symBinAddr: 0x100103084, symSize: 0x32C }
  - { offset: 0x82DDF6, size: 0x8, addend: 0x0, symName: __ZN4juce18CharacterFunctions11toUpperCaseEw, symObjAddr: 0x10287C, symBinAddr: 0x1001033B0, symSize: 0x18 }
  - { offset: 0x82DE41, size: 0x8, addend: 0x0, symName: __ZN4juce18CharacterFunctions12isWhitespaceEw, symObjAddr: 0x102894, symBinAddr: 0x1001033C8, symSize: 0x44 }
  - { offset: 0x82DED8, size: 0x8, addend: 0x0, symName: __ZN4juce18CharacterFunctions8isLetterEw, symObjAddr: 0x1028D8, symBinAddr: 0x10010340C, symSize: 0x44 }
  - { offset: 0x82DF4E, size: 0x8, addend: 0x0, symName: __ZN4juce18CharacterFunctions15isLetterOrDigitEw, symObjAddr: 0x10291C, symBinAddr: 0x100103450, symSize: 0x48 }
  - { offset: 0x82DFC4, size: 0x8, addend: 0x0, symName: __ZNK4juce6String14compareNaturalENS_9StringRefEb, symObjAddr: 0x102A70, symBinAddr: 0x1001035A4, symSize: 0x8AC }
  - { offset: 0x82E8B8, size: 0x8, addend: 0x0, symName: __ZNK4juce6String11indexOfCharEiw, symObjAddr: 0x10331C, symBinAddr: 0x100103E50, symSize: 0x12C }
  - { offset: 0x82E8F0, size: 0x8, addend: 0x0, symName: __ZNK4juce6String11indexOfCharEiw, symObjAddr: 0x10331C, symBinAddr: 0x100103E50, symSize: 0x12C }
  - { offset: 0x82E991, size: 0x8, addend: 0x0, symName: __ZNK4juce6String7indexOfENS_9StringRefE, symObjAddr: 0x103448, symBinAddr: 0x100103F7C, symSize: 0x170 }
  - { offset: 0x82EAF1, size: 0x8, addend: 0x0, symName: __ZNK4juce6String18containsIgnoreCaseENS_9StringRefE, symObjAddr: 0x1035B8, symBinAddr: 0x1001040EC, symSize: 0x174 }
  - { offset: 0x82ECDF, size: 0x8, addend: 0x0, symName: __ZNK4juce6String27containsWholeWordIgnoreCaseENS_9StringRefE, symObjAddr: 0x10372C, symBinAddr: 0x100104260, symSize: 0x3C0 }
  - { offset: 0x82F113, size: 0x8, addend: 0x0, symName: __ZNK4juce6String17replaceCharactersENS_9StringRefES1_, symObjAddr: 0x103AEC, symBinAddr: 0x100104620, symSize: 0x358 }
  - { offset: 0x82F7B6, size: 0x8, addend: 0x0, symName: __ZNK4juce6String11toUpperCaseEv, symObjAddr: 0x103E44, symBinAddr: 0x100104978, symSize: 0x194 }
  - { offset: 0x82FD1B, size: 0x8, addend: 0x0, symName: __ZNK4juce6String16retainCharactersENS_9StringRefE, symObjAddr: 0x103FD8, symBinAddr: 0x100104B0C, symSize: 0x368 }
  - { offset: 0x83077A, size: 0x8, addend: 0x0, symName: __ZN4juce6String9createHexEj, symObjAddr: 0x104340, symBinAddr: 0x100104E74, symSize: 0xC4 }
  - { offset: 0x830961, size: 0x8, addend: 0x0, symName: __ZN4juce11StringArrayC1ERKNS_6StringE, symObjAddr: 0x1045A4, symBinAddr: 0x1001050D8, symSize: 0x64 }
  - { offset: 0x830E47, size: 0x8, addend: 0x0, symName: __ZN4juce11StringArrayC1ERKSt16initializer_listIPKcE, symObjAddr: 0x104608, symBinAddr: 0x10010513C, symSize: 0x158 }
  - { offset: 0x8313D7, size: 0x8, addend: 0x0, symName: __ZN4juce11StringArray9fromLinesENS_9StringRefE, symObjAddr: 0x104760, symBinAddr: 0x100105294, symSize: 0x3B8 }
  - { offset: 0x831A2A, size: 0x8, addend: 0x0, symName: __ZN4juce11StringArray25appendNumbersToDuplicatesEbbNS_16CharPointer_UTF8ES1_, symObjAddr: 0x104B18, symBinAddr: 0x10010564C, symSize: 0x1094 }
  - { offset: 0x835A57, size: 0x8, addend: 0x0, symName: __ZNSt3__16__treeINS_12__value_typeIN4juce6StringEiEENS_19__map_value_compareIS3_S4_NS_4lessIS3_EELb1EEENS_9allocatorIS4_EEE25__emplace_unique_key_argsIS3_JS3_RiEEENS_4pairINS_15__tree_iteratorIS4_PNS_11__tree_nodeIS4_PvEElEEbEERKT_DpOT0_, symObjAddr: 0x105BAC, symBinAddr: 0x1001066E0, symSize: 0xEC }
  - { offset: 0x8360C7, size: 0x8, addend: 0x0, symName: __ZNSt3__16__treeINS_12__value_typeIN4juce6StringEiEENS_19__map_value_compareIS3_S4_NS_4lessIS3_EELb1EEENS_9allocatorIS4_EEE25__emplace_unique_key_argsIS3_JRKS3_iEEENS_4pairINS_15__tree_iteratorIS4_PNS_11__tree_nodeIS4_PvEElEEbEERKT_DpOT0_, symObjAddr: 0x105CF8, symBinAddr: 0x1001067CC, symSize: 0xF8 }
  - { offset: 0x836694, size: 0x8, addend: 0x0, symName: __ZN4juce4Time32getApproximateMillisecondCounterEv, symObjAddr: 0x105DF0, symBinAddr: 0x1001068C4, symSize: 0x68 }
  - { offset: 0x836C38, size: 0x8, addend: 0x0, symName: __ZN4juce6ThreadC2ERKNS_6StringEm, symObjAddr: 0x105E58, symBinAddr: 0x10010692C, symSize: 0x134 }
  - { offset: 0x83754C, size: 0x8, addend: 0x0, symName: __ZN4juce25ReferenceCountedObjectPtrINS_19CurrentThreadHolderEED1Ev, symObjAddr: 0x105F8C, symBinAddr: 0x100106A60, symSize: 0x68 }
  - { offset: 0x8377B9, size: 0x8, addend: 0x0, symName: __ZN4juce19CurrentThreadHolderD1Ev, symObjAddr: 0x105FF4, symBinAddr: 0x100106AC8, symSize: 0x48 }
  - { offset: 0x8378F2, size: 0x8, addend: 0x0, symName: __ZN4juce19CurrentThreadHolderD0Ev, symObjAddr: 0x10603C, symBinAddr: 0x100106B10, symSize: 0x3C }
  - { offset: 0x838129, size: 0x8, addend: 0x0, symName: '__ZZN4juce6Thread18createNativeThreadENS0_8PriorityEEN3$_08__invokeEPv', symObjAddr: 0x106078, symBinAddr: 0x100106B4C, symSize: 0x408 }
  - { offset: 0x839A12, size: 0x8, addend: 0x0, symName: __ZNSt3__17promiseIbED2Ev, symObjAddr: 0x1064DC, symBinAddr: 0x100106FB0, symSize: 0x11C }
  - { offset: 0x839C91, size: 0x8, addend: 0x0, symName: __ZN4juce20PosixThreadAttributeD1Ev, symObjAddr: 0x1065F8, symBinAddr: 0x1001070CC, symSize: 0x34 }
  - { offset: 0x839E78, size: 0x8, addend: 0x0, symName: __ZNSt3__113__assoc_stateIbED1Ev, symObjAddr: 0x1067DC, symBinAddr: 0x1001072B0, symSize: 0x4C }
  - { offset: 0x839EFA, size: 0x8, addend: 0x0, symName: __ZNSt3__113__assoc_stateIbED0Ev, symObjAddr: 0x106828, symBinAddr: 0x1001072FC, symSize: 0x50 }
  - { offset: 0x839F85, size: 0x8, addend: 0x0, symName: __ZNSt3__113__assoc_stateIbE16__on_zero_sharedEv, symObjAddr: 0x106878, symBinAddr: 0x10010734C, symSize: 0xC }
  - { offset: 0x83A404, size: 0x8, addend: 0x0, symName: __ZN4juce6Thread11startThreadENS0_8PriorityE, symObjAddr: 0x106884, symBinAddr: 0x100107358, symSize: 0x378 }
  - { offset: 0x83B171, size: 0x8, addend: 0x0, symName: __ZN4juce15TimeSliceThreadC1ERKNS_6StringE, symObjAddr: 0x106BFC, symBinAddr: 0x1001076D0, symSize: 0xEC }
  - { offset: 0x83B488, size: 0x8, addend: 0x0, symName: __ZN4juce15TimeSliceThread18addTimeSliceClientEPNS_15TimeSliceClientEi, symObjAddr: 0x106CE8, symBinAddr: 0x1001077BC, symSize: 0x150 }
  - { offset: 0x83BA6E, size: 0x8, addend: 0x0, symName: __ZN4juce15TimeSliceThread21removeTimeSliceClientEPNS_15TimeSliceClientE, symObjAddr: 0x106E38, symBinAddr: 0x10010790C, symSize: 0x1B0 }
  - { offset: 0x83C21C, size: 0x8, addend: 0x0, symName: __ZN4juce3var11VariantType8intToIntERKNS0_10ValueUnionE, symObjAddr: 0x106FE8, symBinAddr: 0x100107ABC, symSize: 0x8 }
  - { offset: 0x83C241, size: 0x8, addend: 0x0, symName: __ZN4juce3var11VariantType10intToInt64ERKNS0_10ValueUnionE, symObjAddr: 0x106FF0, symBinAddr: 0x100107AC4, symSize: 0x8 }
  - { offset: 0x83C266, size: 0x8, addend: 0x0, symName: __ZN4juce3var11VariantType11intToDoubleERKNS0_10ValueUnionE, symObjAddr: 0x106FF8, symBinAddr: 0x100107ACC, symSize: 0x10 }
  - { offset: 0x83C289, size: 0x8, addend: 0x0, symName: __ZN4juce3var11VariantType11intToStringERKNS0_10ValueUnionE, symObjAddr: 0x107008, symBinAddr: 0x100107ADC, symSize: 0xF4 }
  - { offset: 0x83C3BC, size: 0x8, addend: 0x0, symName: __ZN4juce3var11VariantType9intToBoolERKNS0_10ValueUnionE, symObjAddr: 0x1070FC, symBinAddr: 0x100107BD0, symSize: 0x10 }
  - { offset: 0x83C42B, size: 0x8, addend: 0x0, symName: __ZN4juce3var11VariantType9intEqualsERKNS0_10ValueUnionES4_RKS1_, symObjAddr: 0x10710C, symBinAddr: 0x100107BE0, symSize: 0x10C }
  - { offset: 0x83C4C8, size: 0x8, addend: 0x0, symName: __ZN4juce3var11VariantType16intWriteToStreamERKNS0_10ValueUnionERNS_12OutputStreamE, symObjAddr: 0x107218, symBinAddr: 0x100107CEC, symSize: 0x58 }
  - { offset: 0x83C521, size: 0x8, addend: 0x0, symName: __ZN4juce3var11VariantType9boolToIntERKNS0_10ValueUnionE, symObjAddr: 0x107270, symBinAddr: 0x100107D44, symSize: 0x8 }
  - { offset: 0x83C546, size: 0x8, addend: 0x0, symName: __ZN4juce3var11VariantType11boolToInt64ERKNS0_10ValueUnionE, symObjAddr: 0x107278, symBinAddr: 0x100107D4C, symSize: 0x8 }
  - { offset: 0x83C56B, size: 0x8, addend: 0x0, symName: __ZN4juce3var11VariantType12boolToDoubleERKNS0_10ValueUnionE, symObjAddr: 0x107280, symBinAddr: 0x100107D54, symSize: 0x18 }
  - { offset: 0x83C58E, size: 0x8, addend: 0x0, symName: __ZN4juce3var11VariantType12boolToStringERKNS0_10ValueUnionE, symObjAddr: 0x107298, symBinAddr: 0x100107D6C, symSize: 0x4C }
  - { offset: 0x83C6DD, size: 0x8, addend: 0x0, symName: __ZN4juce3var11VariantType10boolToBoolERKNS0_10ValueUnionE, symObjAddr: 0x1072E4, symBinAddr: 0x100107DB8, symSize: 0x8 }
  - { offset: 0x83C702, size: 0x8, addend: 0x0, symName: __ZN4juce3var11VariantType10boolEqualsERKNS0_10ValueUnionES4_RKS1_, symObjAddr: 0x1072EC, symBinAddr: 0x100107DC0, symSize: 0x38 }
  - { offset: 0x83C753, size: 0x8, addend: 0x0, symName: __ZN4juce3var11VariantType17boolWriteToStreamERKNS0_10ValueUnionERNS_12OutputStreamE, symObjAddr: 0x107324, symBinAddr: 0x100107DF8, symSize: 0x50 }
  - { offset: 0x83C7A0, size: 0x8, addend: 0x0, symName: __ZN4juce3var11VariantType11doubleToIntERKNS0_10ValueUnionE, symObjAddr: 0x107374, symBinAddr: 0x100107E48, symSize: 0xC }
  - { offset: 0x83C7C5, size: 0x8, addend: 0x0, symName: __ZN4juce3var11VariantType13doubleToInt64ERKNS0_10ValueUnionE, symObjAddr: 0x107380, symBinAddr: 0x100107E54, symSize: 0xC }
  - { offset: 0x83C7EA, size: 0x8, addend: 0x0, symName: __ZN4juce3var11VariantType14doubleToDoubleERKNS0_10ValueUnionE, symObjAddr: 0x10738C, symBinAddr: 0x100107E60, symSize: 0x8 }
  - { offset: 0x83C80D, size: 0x8, addend: 0x0, symName: __ZN4juce3var11VariantType14doubleToStringERKNS0_10ValueUnionE, symObjAddr: 0x107394, symBinAddr: 0x100107E68, symSize: 0xC }
  - { offset: 0x83C840, size: 0x8, addend: 0x0, symName: __ZN4juce3var11VariantType12doubleToBoolERKNS0_10ValueUnionE, symObjAddr: 0x1073A0, symBinAddr: 0x100107E74, symSize: 0x10 }
  - { offset: 0x83C88B, size: 0x8, addend: 0x0, symName: __ZN4juce3var11VariantType12doubleEqualsERKNS0_10ValueUnionES4_RKS1_, symObjAddr: 0x1073B0, symBinAddr: 0x100107E84, symSize: 0x44 }
  - { offset: 0x83C8F1, size: 0x8, addend: 0x0, symName: __ZN4juce3var11VariantType19doubleWriteToStreamERKNS0_10ValueUnionERNS_12OutputStreamE, symObjAddr: 0x1073F4, symBinAddr: 0x100107EC8, symSize: 0x58 }
  - { offset: 0x83C94A, size: 0x8, addend: 0x0, symName: __ZNK4juce3varcviEv, symObjAddr: 0x10744C, symBinAddr: 0x100107F20, symSize: 0x20 }
  - { offset: 0x83C979, size: 0x8, addend: 0x0, symName: __ZNK4juce3varcvbEv, symObjAddr: 0x10746C, symBinAddr: 0x100107F40, symSize: 0x20 }
  - { offset: 0x83C9A8, size: 0x8, addend: 0x0, symName: __ZNK4juce3varcvdEv, symObjAddr: 0x10748C, symBinAddr: 0x100107F60, symSize: 0x20 }
  - { offset: 0x83CB66, size: 0x8, addend: 0x0, symName: __ZN4juce11XmlDocumentC2ERKNS_4FileE, symObjAddr: 0x1074AC, symBinAddr: 0x100107F80, symSize: 0x10C }
  - { offset: 0x83D3AD, size: 0x8, addend: 0x0, symName: __ZN4juce10XmlElementC2ERKS0_, symObjAddr: 0x1075B8, symBinAddr: 0x10010808C, symSize: 0x150 }
  - { offset: 0x83DB2F, size: 0x8, addend: 0x0, symName: __ZNK4juce10XmlElement7writeToERKNS_4FileERKNS0_10TextFormatE, symObjAddr: 0x107708, symBinAddr: 0x1001081DC, symSize: 0x11C }
  - { offset: 0x83E101, size: 0x8, addend: 0x0, symName: __ZNK4juce10XmlElement26getTagNameWithoutNamespaceEv, symObjAddr: 0x107824, symBinAddr: 0x1001082F8, symSize: 0x108 }
  - { offset: 0x83E34A, size: 0x8, addend: 0x0, symName: __ZNK4juce10XmlElement27hasTagNameIgnoringNamespaceENS_9StringRefE, symObjAddr: 0x10792C, symBinAddr: 0x100108400, symSize: 0x160 }
  - { offset: 0x83E73B, size: 0x8, addend: 0x0, symName: __ZNK4juce10XmlElement13getAllSubTextEv, symObjAddr: 0x107A8C, symBinAddr: 0x100108560, symSize: 0x430 }
  - { offset: 0x83F5C1, size: 0x8, addend: 0x0, symName: __ZN4juce10FileFilterD2Ev, symObjAddr: 0x10826C, symBinAddr: 0x100108D40, symSize: 0x5C }
  - { offset: 0x83F777, size: 0x8, addend: 0x0, symName: __ZN4juce18WildcardFileFilterC1ERKNS_6StringES3_S3_, symObjAddr: 0x1084B0, symBinAddr: 0x100108F84, symSize: 0x26C }
  - { offset: 0x8405D7, size: 0x8, addend: 0x0, symName: __ZNK4juce6String10toCFStringEv, symObjAddr: 0x10871C, symBinAddr: 0x1001091F0, symSize: 0x6C }
  - { offset: 0x8407E6, size: 0x8, addend: 0x0, symName: __ZN4juce11SystemStats22getOperatingSystemTypeEv, symObjAddr: 0x108788, symBinAddr: 0x10010925C, symSize: 0x3A0 }
  - { offset: 0x841601, size: 0x8, addend: 0x0, symName: __ZNSt3__110unique_ptrIK10__CFLocaleN4juce15CFObjectDeleterEED1B8ne190102Ev, symObjAddr: 0x108B28, symBinAddr: 0x1001095FC, symSize: 0x34 }
  - { offset: 0x8416EB, size: 0x8, addend: 0x0, symName: __ZNSt3__110unique_ptrIK9__CFArrayN4juce15CFObjectDeleterEED1B8ne190102Ev, symObjAddr: 0x108B5C, symBinAddr: 0x100109630, symSize: 0x34 }
  - { offset: 0x841785, size: 0x8, addend: 0x0, symName: __ZN4juce4Time26getMillisecondCounterHiResEv, symObjAddr: 0x108B90, symBinAddr: 0x100109664, symSize: 0x28 }
  - { offset: 0x8417C2, size: 0x8, addend: 0x0, symName: '__ZZN4juce11SystemStats19isAppSandboxEnabledEvENK3$_0clEv', symObjAddr: 0x108C28, symBinAddr: 0x1001096FC, symSize: 0x118 }
  - { offset: 0x84201C, size: 0x8, addend: 0x0, symName: __ZNSt3__110unique_ptrIK14__CFDictionaryN4juce15CFObjectDeleterEED1B8ne190102Ev, symObjAddr: 0x108D40, symBinAddr: 0x100109814, symSize: 0x34 }
  - { offset: 0x8420B6, size: 0x8, addend: 0x0, symName: __ZNSt3__110unique_ptrI9__SecCodeN4juce15CFObjectDeleterEED1B8ne190102Ev, symObjAddr: 0x108D74, symBinAddr: 0x100109848, symSize: 0x34 }
  - { offset: 0x84215A, size: 0x8, addend: 0x0, symName: __ZN4juce7Process19isForegroundProcessEv, symObjAddr: 0x108DA8, symBinAddr: 0x10010987C, symSize: 0x7C }
  - { offset: 0x84218A, size: 0x8, addend: 0x0, symName: __ZN4juce21ReferenceCountedArrayINS_3URL6UploadENS_20DummyCriticalSectionEED1Ev, symObjAddr: 0x108E24, symBinAddr: 0x1001098F8, symSize: 0xBC }
  - { offset: 0x8425BA, size: 0x8, addend: 0x0, symName: __ZNK4juce3URL12getLocalFileEv, symObjAddr: 0x108EE0, symBinAddr: 0x1001099B4, symSize: 0x9F8 }
  - { offset: 0x844A7C, size: 0x8, addend: 0x0, symName: __ZN4juce3URL12addParameterERKNS_6StringES3_, symObjAddr: 0x1098D8, symBinAddr: 0x10010A3AC, symSize: 0x288 }
  - { offset: 0x845385, size: 0x8, addend: 0x0, symName: __ZN4juce3URLC1ERKNS_6StringE, symObjAddr: 0x109B60, symBinAddr: 0x10010A634, symSize: 0xA2C }
  - { offset: 0x84724E, size: 0x8, addend: 0x0, symName: __ZN4juce3URLC1ENS_4FileE, symObjAddr: 0x10A58C, symBinAddr: 0x10010B060, symSize: 0x570 }
  - { offset: 0x849581, size: 0x8, addend: 0x0, symName: __ZNK4juce3URL11getFileNameEv, symObjAddr: 0x10AAFC, symBinAddr: 0x10010B5D0, symSize: 0x2CC }
  - { offset: 0x553D58, size: 0x8, addend: 0x0, symName: __ZN4juce13FlacNamespace17FLAC__crc16_tableE, symObjAddr: 0x680144, symBinAddr: 0x10065E774, symSize: 0x0 }
  - { offset: 0x553D7D, size: 0x8, addend: 0x0, symName: _FLAC__STREAM_SYNC_STRING, symObjAddr: 0x681244, symBinAddr: 0x10065F874, symSize: 0x0 }
  - { offset: 0x553DCF, size: 0x8, addend: 0x0, symName: __ZN4juce13FlacNamespaceL16FLAC__crc8_tableE, symObjAddr: 0x681144, symBinAddr: 0x10065F774, symSize: 0x0 }
  - { offset: 0x553DE8, size: 0x8, addend: 0x0, symName: __ZN4juce13FlacNamespaceL19compression_levels_E, symObjAddr: 0x7475B8, symBinAddr: 0x10074FF50, symSize: 0x0 }
  - { offset: 0x554E2B, size: 0x8, addend: 0x0, symName: __ZN4juce13FlacNamespaceL14find_metadata_EPNS0_19FLAC__StreamDecoderE, symObjAddr: 0x7317C, symBinAddr: 0x1000745FC, symSize: 0x2FC }
  - { offset: 0x554FA9, size: 0x8, addend: 0x0, symName: __ZN4juce13FlacNamespaceL14read_metadata_EPNS0_19FLAC__StreamDecoderE, symObjAddr: 0x73478, symBinAddr: 0x1000748F8, symSize: 0x844 }
  - { offset: 0x55557D, size: 0x8, addend: 0x0, symName: __ZN4juce13FlacNamespaceL11read_frame_EPNS0_19FLAC__StreamDecoderEPii, symObjAddr: 0x73F18, symBinAddr: 0x100075398, symSize: 0x19B0 }
  - { offset: 0x556221, size: 0x8, addend: 0x0, symName: __ZN4juce13FlacNamespaceL11frame_sync_EPNS0_19FLAC__StreamDecoderE, symObjAddr: 0x73CBC, symBinAddr: 0x10007513C, symSize: 0x25C }
  - { offset: 0x556575, size: 0x8, addend: 0x0, symName: __ZN4juce13FlacNamespaceL15resize_buffers_EPNS0_19FLAC__StreamEncoderEj, symObjAddr: 0x68B84, symBinAddr: 0x10006A004, symSize: 0x3B24 }
  - { offset: 0x55756B, size: 0x8, addend: 0x0, symName: __ZN4juce13FlacNamespace21safe_malloc_mul_2op_pEmm, symObjAddr: 0x78C2C, symBinAddr: 0x100079F98, symSize: 0x14 }
  - { offset: 0x5575AE, size: 0x8, addend: 0x0, symName: __ZN4juce13FlacNamespaceL21init_stream_internal_EPNS0_19FLAC__StreamDecoderEPFNS0_29FLAC__StreamDecoderReadStatusEPKS1_PhPmPvEPFNS0_29FLAC__StreamDecoderSeekStatusES5_yS8_EPFNS0_29FLAC__StreamDecoderTellStatusES5_PyS8_EPFNS0_31FLAC__StreamDecoderLengthStatusES5_SF_S8_EPFiS5_S8_EPFNS0_30FLAC__StreamDecoderWriteStatusES5_PKNS0_11FLAC__FrameEPKPKiS8_EPFvS5_PKNS0_20FLAC__StreamMetadataES8_EPFvS5_NS0_30FLAC__StreamDecoderErrorStatusES8_ES8_i, symObjAddr: 0x7F42C, symBinAddr: 0x100080798, symSize: 0x13C }
  - { offset: 0x55766E, size: 0x8, addend: 0x0, symName: __ZN4juce13FlacNamespaceL40FLAC__bitwriter_write_raw_uint32_nocheckEPNS0_15FLAC__BitWriterEjj, symObjAddr: 0x72C38, symBinAddr: 0x1000740B8, symSize: 0x14C }
  - { offset: 0x557726, size: 0x8, addend: 0x0, symName: __ZN4juce13FlacNamespaceL16write_bitbuffer_EPNS0_19FLAC__StreamEncoderEji, symObjAddr: 0x72D84, symBinAddr: 0x100074204, symSize: 0x340 }
  - { offset: 0x5579F6, size: 0x8, addend: 0x0, symName: __ZN4juce13FlacNamespace24FLAC__add_metadata_blockEPKNS0_20FLAC__StreamMetadataEPNS0_15FLAC__BitWriterEi, symObjAddr: 0x7F568, symBinAddr: 0x1000808D4, symSize: 0xA00 }
  - { offset: 0x5586D2, size: 0x8, addend: 0x0, symName: __ZN4juce13FlacNamespaceL18FLAC__MD5TransformEPjPKj, symObjAddr: 0x681A8, symBinAddr: 0x100069628, symSize: 0x9DC }
  - { offset: 0x55874B, size: 0x8, addend: 0x0, symName: __ZN4juce13FlacNamespaceL14process_frame_EPNS0_19FLAC__StreamEncoderEi, symObjAddr: 0x6C6A8, symBinAddr: 0x10006DB28, symSize: 0xCD0 }
  - { offset: 0x5594CC, size: 0x8, addend: 0x0, symName: __ZN4juce13FlacNamespace18FLAC__window_tukeyEPfif, symObjAddr: 0x7A1EC, symBinAddr: 0x10007B558, symSize: 0x520 }
  - { offset: 0x5599CE, size: 0x8, addend: 0x0, symName: __ZN4juce13FlacNamespace19FLAC__MD5AccumulateEPNS0_16FLAC__MD5ContextEPKPKijjj, symObjAddr: 0x6DCB8, symBinAddr: 0x10006F138, symSize: 0xBA8 }
  - { offset: 0x559BA0, size: 0x8, addend: 0x0, symName: __ZN4juce13FlacNamespaceL17process_subframe_EPNS0_19FLAC__StreamEncoderEjjPKNS0_17FLAC__FrameHeaderEjPKvPPNS0_14FLAC__SubframeEPPNS0_49FLAC__EntropyCodingMethod_PartitionedRiceContentsEPPiPjSG_, symObjAddr: 0x6E860, symBinAddr: 0x10006FCE0, symSize: 0x3334 }
  - { offset: 0x55AA11, size: 0x8, addend: 0x0, symName: __ZN4juce13FlacNamespace22FLAC__frame_add_headerEPKNS0_17FLAC__FrameHeaderEPNS0_15FLAC__BitWriterE, symObjAddr: 0x71B94, symBinAddr: 0x100073014, symSize: 0xC78 }
  - { offset: 0x55B30C, size: 0x8, addend: 0x0, symName: __ZN4juce13FlacNamespaceL13add_subframe_EPNS0_19FLAC__StreamEncoderEjjPKNS0_14FLAC__SubframeEPNS0_15FLAC__BitWriterE, symObjAddr: 0x7280C, symBinAddr: 0x100073C8C, symSize: 0x42C }
  - { offset: 0x55B8F9, size: 0x8, addend: 0x0, symName: __ZN4juce13FlacNamespaceL18seekpoint_compare_EPKNS0_30FLAC__StreamMetadata_SeekPointES3_, symObjAddr: 0x6DC9C, symBinAddr: 0x10006F11C, symSize: 0x1C }
  - { offset: 0x55C6D1, size: 0x8, addend: 0x0, symName: __ZN4juce13FlacNamespaceL26find_best_partition_order_EPNS0_26FLAC__StreamEncoderPrivateEPKiPyPjjjjjjjijPNS0_25FLAC__EntropyCodingMethodE, symObjAddr: 0x79C8C, symBinAddr: 0x10007AFF8, symSize: 0x560 }
  - { offset: 0x55CB39, size: 0x8, addend: 0x0, symName: __ZN4juce13FlacNamespace33FLAC__bitwriter_write_utf8_uint64EPNS0_15FLAC__BitWriterEy, symObjAddr: 0x79870, symBinAddr: 0x10007ABDC, symSize: 0x30C }
  - { offset: 0x55CCEA, size: 0x8, addend: 0x0, symName: __ZN4juce13FlacNamespace33FLAC__bitwriter_write_utf8_uint32EPNS0_15FLAC__BitWriterEj, symObjAddr: 0x79620, symBinAddr: 0x10007A98C, symSize: 0x250 }
  - { offset: 0x55CE39, size: 0x8, addend: 0x0, symName: __ZN4juce13FlacNamespace30FLAC__bitwriter_get_write_crc8EPNS0_15FLAC__BitWriterEPh, symObjAddr: 0x79B7C, symBinAddr: 0x10007AEE8, symSize: 0x110 }
  - { offset: 0x55D1A2, size: 0x8, addend: 0x0, symName: __ZN4juce13FlacNamespace36FLAC__bitwriter_write_unary_unsignedEPNS0_15FLAC__BitWriterEj, symObjAddr: 0x78C40, symBinAddr: 0x100079FAC, symSize: 0x248 }
  - { offset: 0x55D37B, size: 0x8, addend: 0x0, symName: __ZN4juce13FlacNamespace32FLAC__bitwriter_write_raw_uint64EPNS0_15FLAC__BitWriterEyj, symObjAddr: 0x78E88, symBinAddr: 0x10007A1F4, symSize: 0x168 }
  - { offset: 0x55D4FB, size: 0x8, addend: 0x0, symName: __ZN4juce13FlacNamespaceL30add_residual_partitioned_rice_EPNS0_15FLAC__BitWriterEPKijjPKjS6_ji, symObjAddr: 0x78FF0, symBinAddr: 0x10007A35C, symSize: 0x2B0 }
  - { offset: 0x55D9B5, size: 0x8, addend: 0x0, symName: __ZN4juce13FlacNamespace31FLAC__bitreader_read_raw_uint32EPNS0_15FLAC__BitReaderEPjj, symObjAddr: 0x758C8, symBinAddr: 0x100076D48, symSize: 0x1C4 }
  - { offset: 0x55DA9E, size: 0x8, addend: 0x0, symName: __ZN4juce13FlacNamespace46FLAC__bitreader_skip_byte_block_aligned_no_crcEPNS0_15FLAC__BitReaderEj, symObjAddr: 0x78130, symBinAddr: 0x10007949C, symSize: 0xF0 }
  - { offset: 0x55DD4C, size: 0x8, addend: 0x0, symName: __ZN4juce13FlacNamespace46FLAC__bitreader_read_byte_block_aligned_no_crcEPNS0_15FLAC__BitReaderEPhj, symObjAddr: 0x78014, symBinAddr: 0x100079380, symSize: 0x11C }
  - { offset: 0x55DDFA, size: 0x8, addend: 0x0, symName: __ZN4juce13FlacNamespaceL16has_id_filtered_EPNS0_19FLAC__StreamDecoderEPh, symObjAddr: 0x78220, symBinAddr: 0x10007958C, symSize: 0x38 }
  - { offset: 0x55DE47, size: 0x8, addend: 0x0, symName: __ZN4juce13FlacNamespaceL22read_metadata_picture_EPNS0_19FLAC__StreamDecoderEPNS0_28FLAC__StreamMetadata_PictureE, symObjAddr: 0x78A24, symBinAddr: 0x100079D90, symSize: 0x208 }
  - { offset: 0x55E077, size: 0x8, addend: 0x0, symName: __ZN4juce13FlacNamespaceL28read_metadata_vorbiscomment_EPNS0_19FLAC__StreamDecoderEPNS0_34FLAC__StreamMetadata_VorbisCommentEj, symObjAddr: 0x78258, symBinAddr: 0x1000795C4, symSize: 0x3B4 }
  - { offset: 0x55E34E, size: 0x8, addend: 0x0, symName: __ZN4juce13FlacNamespaceL23read_metadata_cuesheet_EPNS0_19FLAC__StreamDecoderEPNS0_29FLAC__StreamMetadata_CueSheetE, symObjAddr: 0x7860C, symBinAddr: 0x100079978, symSize: 0x418 }
  - { offset: 0x55EE22, size: 0x8, addend: 0x0, symName: __ZN4juce13FlacNamespace35FLAC__bitreader_read_unary_unsignedEPNS0_15FLAC__BitReaderEPj, symObjAddr: 0x75A8C, symBinAddr: 0x100076F0C, symSize: 0x164 }
  - { offset: 0x55EF02, size: 0x8, addend: 0x0, symName: __ZN4juce13FlacNamespaceL20read_subframe_fixed_EPNS0_19FLAC__StreamDecoderEjjji, symObjAddr: 0x75BF0, symBinAddr: 0x100077070, symSize: 0x2F8 }
  - { offset: 0x55F129, size: 0x8, addend: 0x0, symName: __ZN4juce13FlacNamespaceL18read_subframe_lpc_EPNS0_19FLAC__StreamDecoderEjjji, symObjAddr: 0x75EE8, symBinAddr: 0x100077368, symSize: 0x5DC }
  - { offset: 0x55F536, size: 0x8, addend: 0x0, symName: __ZN4juce13FlacNamespaceL19crc16_update_block_EPNS0_15FLAC__BitReaderE, symObjAddr: 0x764C4, symBinAddr: 0x100077944, symSize: 0x1F0 }
  - { offset: 0x55F5CE, size: 0x8, addend: 0x0, symName: __ZN4juce13FlacNamespaceL28write_audio_frame_to_client_EPNS0_19FLAC__StreamDecoderEPKNS0_11FLAC__FrameEPKPKi, symObjAddr: 0x766C8, symBinAddr: 0x100077B48, symSize: 0x1D8 }
  - { offset: 0x55F6D9, size: 0x8, addend: 0x0, symName: __ZN4juce13FlacNamespaceL12safe_calloc_Emm, symObjAddr: 0x766B4, symBinAddr: 0x100077B34, symSize: 0x14 }
  - { offset: 0x55F71B, size: 0x8, addend: 0x0, symName: __ZN4juce13FlacNamespaceL27bitreader_read_from_client_EPNS0_15FLAC__BitReaderE, symObjAddr: 0x77E90, symBinAddr: 0x1000791FC, symSize: 0x184 }
  - { offset: 0x55F7B0, size: 0x8, addend: 0x0, symName: __ZN4juce13FlacNamespaceL31read_residual_partitioned_rice_EPNS0_19FLAC__StreamDecoderEjjPNS0_49FLAC__EntropyCodingMethod_PartitionedRiceContentsEPii, symObjAddr: 0x768A0, symBinAddr: 0x100077D20, symSize: 0x2D8 }
  - { offset: 0x55FA75, size: 0x8, addend: 0x0, symName: __ZN4juce13FlacNamespace37FLAC__fixed_restore_signal_wide_33bitEPKijjPx, symObjAddr: 0x77CF4, symBinAddr: 0x100079060, symSize: 0x19C }
  - { offset: 0x55FAF1, size: 0x8, addend: 0x0, symName: __ZN4juce13FlacNamespace26FLAC__fixed_restore_signalEPKijjPi, symObjAddr: 0x77ACC, symBinAddr: 0x100078F4C, symSize: 0x114 }
  - { offset: 0x55FBCF, size: 0x8, addend: 0x0, symName: __ZN4juce13FlacNamespace35FLAC__lpc_restore_signal_wide_33bitEPKijS2_jiPx, symObjAddr: 0x778F8, symBinAddr: 0x100078D78, symSize: 0x1D4 }
  - { offset: 0x55FC69, size: 0x8, addend: 0x0, symName: __ZN4juce13FlacNamespace24FLAC__lpc_restore_signalEPKijS2_jiPi, symObjAddr: 0x76B78, symBinAddr: 0x100077FF8, symSize: 0x640 }
  - { offset: 0x55FD05, size: 0x8, addend: 0x0, symName: __ZN4juce13FlacNamespace29FLAC__lpc_restore_signal_wideEPKijS2_jiPi, symObjAddr: 0x771B8, symBinAddr: 0x100078638, symSize: 0x740 }
  - { offset: 0x55FF17, size: 0x8, addend: 0x0, symName: __ZN4juce13FlacNamespace39FLAC__bitwriter_write_rice_signed_blockEPNS0_15FLAC__BitWriterEPKijj, symObjAddr: 0x792A0, symBinAddr: 0x10007A60C, symSize: 0x380 }
  - { offset: 0x560460, size: 0x8, addend: 0x0, symName: __ZN4juce13FlacNamespace33FLAC__lpc_compute_autocorrelationEPKfjjPd, symObjAddr: 0x7A70C, symBinAddr: 0x10007BA78, symSize: 0xAEC }
  - { offset: 0x560597, size: 0x8, addend: 0x0, symName: __ZN4juce13FlacNamespaceL31precompute_partition_info_sums_EPKiPyjjjjj, symObjAddr: 0x7B87C, symBinAddr: 0x10007CBE8, symSize: 0x2BC }
  - { offset: 0x560766, size: 0x8, addend: 0x0, symName: __ZN4juce13FlacNamespace34FLAC__fixed_compute_best_predictorEPKijPf, symObjAddr: 0x7BB38, symBinAddr: 0x10007CEA4, symSize: 0x3FC }
  - { offset: 0x56090F, size: 0x8, addend: 0x0, symName: __ZN4juce13FlacNamespace39FLAC__fixed_compute_best_predictor_wideEPKijPf, symObjAddr: 0x7BF34, symBinAddr: 0x10007D2A0, symSize: 0x494 }
  - { offset: 0x560AC3, size: 0x8, addend: 0x0, symName: __ZN4juce13FlacNamespace49FLAC__fixed_compute_best_predictor_limit_residualEPKijPf, symObjAddr: 0x7C3C8, symBinAddr: 0x10007D734, symSize: 0x7DC }
  - { offset: 0x560C48, size: 0x8, addend: 0x0, symName: __ZN4juce13FlacNamespace52FLAC__lpc_compute_autocorrelation_intrin_neon_lag_14EPKfjjPd, symObjAddr: 0x7CBA4, symBinAddr: 0x10007DF10, symSize: 0xC8 }
  - { offset: 0x560F60, size: 0x8, addend: 0x0, symName: __ZN4juce13FlacNamespace51FLAC__lpc_compute_autocorrelation_intrin_neon_lag_8EPKfjjPd, symObjAddr: 0x7CC6C, symBinAddr: 0x10007DFD8, symSize: 0x84 }
  - { offset: 0x561149, size: 0x8, addend: 0x0, symName: __ZN4juce13FlacNamespace52FLAC__lpc_compute_autocorrelation_intrin_neon_lag_10EPKfjjPd, symObjAddr: 0x7CCF0, symBinAddr: 0x10007E05C, symSize: 0x9C }
  - { offset: 0x5613A1, size: 0x8, addend: 0x0, symName: __ZN4juce13FlacNamespace60FLAC__lpc_compute_residual_from_qlp_coefficients_intrin_neonEPKijS2_jiPi, symObjAddr: 0x7CD8C, symBinAddr: 0x10007E0F8, symSize: 0x1044 }
  - { offset: 0x566D1E, size: 0x8, addend: 0x0, symName: __ZN4juce13FlacNamespace65FLAC__lpc_compute_residual_from_qlp_coefficients_wide_intrin_neonEPKijS2_jiPi, symObjAddr: 0x7DDD0, symBinAddr: 0x10007F13C, symSize: 0x136C }
  - { offset: 0x56FC2B, size: 0x8, addend: 0x0, symName: __ZN4juce13FlacNamespaceL21verify_read_callback_EPKNS0_19FLAC__StreamDecoderEPhPmPv, symObjAddr: 0x7F20C, symBinAddr: 0x100080578, symSize: 0xAC }
  - { offset: 0x56FCAD, size: 0x8, addend: 0x0, symName: __ZN4juce13FlacNamespaceL22verify_write_callback_EPKNS0_19FLAC__StreamDecoderEPKNS0_11FLAC__FrameEPKPKiPv, symObjAddr: 0x7F2B8, symBinAddr: 0x100080624, symSize: 0x160 }
  - { offset: 0x56FDBF, size: 0x8, addend: 0x0, symName: __ZN4juce13FlacNamespaceL25verify_metadata_callback_EPKNS0_19FLAC__StreamDecoderEPKNS0_20FLAC__StreamMetadataEPv, symObjAddr: 0x7F418, symBinAddr: 0x100080784, symSize: 0x4 }
  - { offset: 0x56FE02, size: 0x8, addend: 0x0, symName: __ZN4juce13FlacNamespaceL22verify_error_callback_EPKNS0_19FLAC__StreamDecoderENS0_30FLAC__StreamDecoderErrorStatusEPv, symObjAddr: 0x7F41C, symBinAddr: 0x100080788, symSize: 0x10 }
  - { offset: 0x56FEE8, size: 0x8, addend: 0x0, symName: __ZN4juce13FlacNamespace46FLAC__bitwriter_write_raw_uint32_little_endianEPNS0_15FLAC__BitWriterEj, symObjAddr: 0x80150, symBinAddr: 0x1000814BC, symSize: 0x74 }
  - { offset: 0x56FF49, size: 0x8, addend: 0x0, symName: __ZN4juce13FlacNamespace32FLAC__bitwriter_write_byte_blockEPNS0_15FLAC__BitWriterEPKhj, symObjAddr: 0x7FF68, symBinAddr: 0x1000812D4, symSize: 0xC0 }
  - { offset: 0x57000B, size: 0x8, addend: 0x0, symName: __ZN4juce13FlacNamespace28FLAC__bitwriter_write_zeroesEPNS0_15FLAC__BitWriterEj, symObjAddr: 0x80028, symBinAddr: 0x100081394, symSize: 0x128 }
  - { offset: 0x5700E8, size: 0x8, addend: 0x0, symName: __ZN4juce13FlacNamespace38FLAC__bitreader_read_rice_signed_blockEPNS0_15FLAC__BitReaderEPijj, symObjAddr: 0x801C4, symBinAddr: 0x100081530, symSize: 0x26C }
  - { offset: 0x570222, size: 0x8, addend: 0x0, symName: __ZN4juce13FlacNamespaceL14read_callback_EPhPmPv, symObjAddr: 0x80430, symBinAddr: 0x10008179C, symSize: 0xDC }
  - { offset: 0x570499, size: 0x8, addend: 0x0, symName: __ZN4juce18OggVorbisNamespace8_floor_PE, symObjAddr: 0x7478B0, symBinAddr: 0x100750248, symSize: 0x0 }
  - { offset: 0x570529, size: 0x8, addend: 0x0, symName: __ZN4juce18OggVorbisNamespace10_residue_PE, symObjAddr: 0x747980, symBinAddr: 0x100750318, symSize: 0x0 }
  - { offset: 0x5705CE, size: 0x8, addend: 0x0, symName: __ZN4juce18OggVorbisNamespace21residue0_exportbundleE, symObjAddr: 0x7478C0, symBinAddr: 0x100750258, symSize: 0x0 }
  - { offset: 0x5705E9, size: 0x8, addend: 0x0, symName: __ZN4juce18OggVorbisNamespace21residue1_exportbundleE, symObjAddr: 0x747900, symBinAddr: 0x100750298, symSize: 0x0 }
  - { offset: 0x570604, size: 0x8, addend: 0x0, symName: __ZN4juce18OggVorbisNamespace21residue2_exportbundleE, symObjAddr: 0x747940, symBinAddr: 0x1007502D8, symSize: 0x0 }
  - { offset: 0x57061D, size: 0x8, addend: 0x0, symName: __ZN4juce18OggVorbisNamespaceL4maskE, symObjAddr: 0x681248, symBinAddr: 0x10065F878, symSize: 0x0 }
  - { offset: 0x570636, size: 0x8, addend: 0x0, symName: __ZN4juce18OggVorbisNamespaceL10crc_lookupE, symObjAddr: 0x682AD0, symBinAddr: 0x1006610F0, symSize: 0x0 }
  - { offset: 0x57064F, size: 0x8, addend: 0x0, symName: __ZN4juce18OggVorbisNamespaceL3ATHE, symObjAddr: 0x681350, symBinAddr: 0x10065F980, symSize: 0x0 }
  - { offset: 0x570668, size: 0x8, addend: 0x0, symName: __ZN4juce18OggVorbisNamespaceL9tonemasksE, symObjAddr: 0x684AD0, symBinAddr: 0x1006630F0, symSize: 0x0 }
  - { offset: 0x570681, size: 0x8, addend: 0x0, symName: __ZN4juce18OggVorbisNamespaceL18stereo_threshholdsE, symObjAddr: 0x6814B0, symBinAddr: 0x10065FAE0, symSize: 0x0 }
  - { offset: 0x57069A, size: 0x8, addend: 0x0, symName: __ZN4juce18OggVorbisNamespaceL26stereo_threshholds_limitedE, symObjAddr: 0x6814F8, symBinAddr: 0x10065FB28, symSize: 0x0 }
  - { offset: 0x5706B5, size: 0x8, addend: 0x0, symName: __ZN4juce18OggVorbisNamespaceL20FLOOR1_fromdB_LOOKUPE, symObjAddr: 0x681540, symBinAddr: 0x10065FB70, symSize: 0x0 }
  - { offset: 0x5706CE, size: 0x8, addend: 0x0, symName: __ZN4juce18OggVorbisNamespaceL19floor0_exportbundleE, symObjAddr: 0x747840, symBinAddr: 0x1007501D8, symSize: 0x0 }
  - { offset: 0x5706E9, size: 0x8, addend: 0x0, symName: __ZN4juce18OggVorbisNamespaceL19floor1_exportbundleE, symObjAddr: 0x747878, symBinAddr: 0x100750210, symSize: 0x0 }
  - { offset: 0x5706F7, size: 0x8, addend: 0x0, symName: __ZN4juce18OggVorbisNamespaceL6dradf4EiiPfS1_S1_S1_S1_, symObjAddr: 0x8E3D0, symBinAddr: 0x10008F73C, symSize: 0x468 }
  - { offset: 0x57090F, size: 0x8, addend: 0x0, symName: __ZN4juce18OggVorbisNamespaceL6dradfgEiiiiPfS1_S1_S1_S1_S1_, symObjAddr: 0x8EADC, symBinAddr: 0x10008FE48, symSize: 0x16D0 }
  - { offset: 0x570C7D, size: 0x8, addend: 0x0, symName: __ZN4juce18OggVorbisNamespaceL18_psy_info_templateE, symObjAddr: 0x68A420, symBinAddr: 0x100668A40, symSize: 0x0 }
  - { offset: 0x570DBB, size: 0x8, addend: 0x0, symName: __ZN4juce18OggVorbisNamespaceL14_mode_templateE, symObjAddr: 0x68A628, symBinAddr: 0x100668C48, symSize: 0x0 }
  - { offset: 0x570E16, size: 0x8, addend: 0x0, symName: __ZN4juce18OggVorbisNamespaceL10setup_listE, symObjAddr: 0x747EF0, symBinAddr: 0x100750888, symSize: 0x0 }
  - { offset: 0x5714B8, size: 0x8, addend: 0x0, symName: __ZN4juce18OggVorbisNamespaceL18ve_setup_44_stereoE, symObjAddr: 0x747F80, symBinAddr: 0x100750918, symSize: 0x0 }
  - { offset: 0x5714D1, size: 0x8, addend: 0x0, symName: __ZN4juce18OggVorbisNamespaceL22rate_mapping_44_stereoE, symObjAddr: 0x68A648, symBinAddr: 0x100668C68, symSize: 0x0 }
  - { offset: 0x5714EA, size: 0x8, addend: 0x0, symName: __ZN4juce18OggVorbisNamespaceL18quality_mapping_44E, symObjAddr: 0x68A6A8, symBinAddr: 0x100668CC8, symSize: 0x0 }
  - { offset: 0x571503, size: 0x8, addend: 0x0, symName: __ZN4juce18OggVorbisNamespaceL18blocksize_short_44E, symObjAddr: 0x68A708, symBinAddr: 0x100668D28, symSize: 0x0 }
  - { offset: 0x57151C, size: 0x8, addend: 0x0, symName: __ZN4juce18OggVorbisNamespaceL17blocksize_long_44E, symObjAddr: 0x68A734, symBinAddr: 0x100668D54, symSize: 0x0 }
  - { offset: 0x571537, size: 0x8, addend: 0x0, symName: __ZN4juce18OggVorbisNamespaceL22_psy_tone_masteratt_44E, symObjAddr: 0x68A760, symBinAddr: 0x100668D80, symSize: 0x0 }
  - { offset: 0x571552, size: 0x8, addend: 0x0, symName: __ZN4juce18OggVorbisNamespaceL13_psy_tone_0dBE, symObjAddr: 0x68A850, symBinAddr: 0x100668E70, symSize: 0x0 }
  - { offset: 0x57156D, size: 0x8, addend: 0x0, symName: __ZN4juce18OggVorbisNamespaceL18_psy_tone_suppressE, symObjAddr: 0x68A880, symBinAddr: 0x100668EA0, symSize: 0x0 }
  - { offset: 0x571586, size: 0x8, addend: 0x0, symName: __ZN4juce18OggVorbisNamespaceL27_vp_tonemask_adj_otherblockE, symObjAddr: 0x68A8B0, symBinAddr: 0x100668ED0, symSize: 0x0 }
  - { offset: 0x57159F, size: 0x8, addend: 0x0, symName: __ZN4juce18OggVorbisNamespaceL26_vp_tonemask_adj_longblockE, symObjAddr: 0x68ABE0, symBinAddr: 0x100669200, symSize: 0x0 }
  - { offset: 0x5715BA, size: 0x8, addend: 0x0, symName: __ZN4juce18OggVorbisNamespaceL19_psy_noiseguards_44E, symObjAddr: 0x68AF10, symBinAddr: 0x100669530, symSize: 0x0 }
  - { offset: 0x5715D5, size: 0x8, addend: 0x0, symName: __ZN4juce18OggVorbisNamespaceL22_psy_noisebias_impulseE, symObjAddr: 0x68AF40, symBinAddr: 0x100669560, symSize: 0x0 }
  - { offset: 0x5715F0, size: 0x8, addend: 0x0, symName: __ZN4juce18OggVorbisNamespaceL22_psy_noisebias_paddingE, symObjAddr: 0x68B8D0, symBinAddr: 0x100669EF0, symSize: 0x0 }
  - { offset: 0x571609, size: 0x8, addend: 0x0, symName: __ZN4juce18OggVorbisNamespaceL20_psy_noisebias_transE, symObjAddr: 0x68C260, symBinAddr: 0x10066A880, symSize: 0x0 }
  - { offset: 0x571624, size: 0x8, addend: 0x0, symName: __ZN4juce18OggVorbisNamespaceL19_psy_noisebias_longE, symObjAddr: 0x68CBF0, symBinAddr: 0x10066B210, symSize: 0x0 }
  - { offset: 0x57163F, size: 0x8, addend: 0x0, symName: __ZN4juce18OggVorbisNamespaceL19_psy_noise_suppressE, symObjAddr: 0x68D580, symBinAddr: 0x10066BBA0, symSize: 0x0 }
  - { offset: 0x571658, size: 0x8, addend: 0x0, symName: __ZN4juce18OggVorbisNamespaceL15_psy_compand_44E, symObjAddr: 0x68D5B0, symBinAddr: 0x10066BBD0, symSize: 0x0 }
  - { offset: 0x571671, size: 0x8, addend: 0x0, symName: __ZN4juce18OggVorbisNamespaceL26_psy_compand_short_mappingE, symObjAddr: 0x68D970, symBinAddr: 0x10066BF90, symSize: 0x0 }
  - { offset: 0x57168A, size: 0x8, addend: 0x0, symName: __ZN4juce18OggVorbisNamespaceL25_psy_compand_long_mappingE, symObjAddr: 0x68D9D0, symBinAddr: 0x10066BFF0, symSize: 0x0 }
  - { offset: 0x5716A5, size: 0x8, addend: 0x0, symName: __ZN4juce18OggVorbisNamespaceL21_noise_start_short_44E, symObjAddr: 0x68DA30, symBinAddr: 0x10066C050, symSize: 0x0 }
  - { offset: 0x5716C0, size: 0x8, addend: 0x0, symName: __ZN4juce18OggVorbisNamespaceL20_noise_start_long_44E, symObjAddr: 0x68DA5C, symBinAddr: 0x10066C07C, symSize: 0x0 }
  - { offset: 0x5716DB, size: 0x8, addend: 0x0, symName: __ZN4juce18OggVorbisNamespaceL20_noise_part_short_44E, symObjAddr: 0x68DA88, symBinAddr: 0x10066C0A8, symSize: 0x0 }
  - { offset: 0x5716F6, size: 0x8, addend: 0x0, symName: __ZN4juce18OggVorbisNamespaceL19_noise_part_long_44E, symObjAddr: 0x68DAB4, symBinAddr: 0x10066C0D4, symSize: 0x0 }
  - { offset: 0x571711, size: 0x8, addend: 0x0, symName: __ZN4juce18OggVorbisNamespaceL16_noise_thresh_44E, symObjAddr: 0x68DAE0, symBinAddr: 0x10066C100, symSize: 0x0 }
  - { offset: 0x57172C, size: 0x8, addend: 0x0, symName: __ZN4juce18OggVorbisNamespaceL16_psy_ath_floaterE, symObjAddr: 0x68DB38, symBinAddr: 0x10066C158, symSize: 0x0 }
  - { offset: 0x571747, size: 0x8, addend: 0x0, symName: __ZN4juce18OggVorbisNamespaceL12_psy_ath_absE, symObjAddr: 0x68DB68, symBinAddr: 0x10066C188, symSize: 0x0 }
  - { offset: 0x571762, size: 0x8, addend: 0x0, symName: __ZN4juce18OggVorbisNamespaceL15_psy_lowpass_44E, symObjAddr: 0x68DB98, symBinAddr: 0x10066C1B8, symSize: 0x0 }
  - { offset: 0x57177B, size: 0x8, addend: 0x0, symName: __ZN4juce18OggVorbisNamespaceL14_psy_global_44E, symObjAddr: 0x68DC58, symBinAddr: 0x10066C278, symSize: 0x0 }
  - { offset: 0x571794, size: 0x8, addend: 0x0, symName: __ZN4juce18OggVorbisNamespaceL18_global_mapping_44E, symObjAddr: 0x68DBF8, symBinAddr: 0x10066C218, symSize: 0x0 }
  - { offset: 0x5717AF, size: 0x8, addend: 0x0, symName: __ZN4juce18OggVorbisNamespaceL20_psy_stereo_modes_44E, symObjAddr: 0x68E5F4, symBinAddr: 0x10066CC14, symSize: 0x0 }
  - { offset: 0x5717C8, size: 0x8, addend: 0x0, symName: __ZN4juce18OggVorbisNamespaceL12_floor_booksE, symObjAddr: 0x749438, symBinAddr: 0x100751DD0, symSize: 0x0 }
  - { offset: 0x5717E1, size: 0x8, addend: 0x0, symName: __ZN4juce18OggVorbisNamespaceL18_floor_128x4_booksE, symObjAddr: 0x749540, symBinAddr: 0x100751ED8, symSize: 0x0 }
  - { offset: 0x5717FC, size: 0x8, addend: 0x0, symName: __ZN4juce18OggVorbisNamespaceL28_huff_book_line_128x4_class0E, symObjAddr: 0x749848, symBinAddr: 0x1007521E0, symSize: 0x0 }
  - { offset: 0x571817, size: 0x8, addend: 0x0, symName: __ZN4juce18OggVorbisNamespaceL34_huff_lengthlist_line_128x4_class0E, symObjAddr: 0x68F140, symBinAddr: 0x10066D760, symSize: 0x0 }
  - { offset: 0x571832, size: 0x8, addend: 0x0, symName: __ZN4juce18OggVorbisNamespaceL27_huff_book_line_128x4_0sub0E, symObjAddr: 0x749890, symBinAddr: 0x100752228, symSize: 0x0 }
  - { offset: 0x57184D, size: 0x8, addend: 0x0, symName: __ZN4juce18OggVorbisNamespaceL33_huff_lengthlist_line_128x4_0sub0E, symObjAddr: 0x68F240, symBinAddr: 0x10066D860, symSize: 0x0 }
  - { offset: 0x571868, size: 0x8, addend: 0x0, symName: __ZN4juce18OggVorbisNamespaceL27_huff_book_line_128x4_0sub1E, symObjAddr: 0x7498D8, symBinAddr: 0x100752270, symSize: 0x0 }
  - { offset: 0x571883, size: 0x8, addend: 0x0, symName: __ZN4juce18OggVorbisNamespaceL33_huff_lengthlist_line_128x4_0sub1E, symObjAddr: 0x68F244, symBinAddr: 0x10066D864, symSize: 0x0 }
  - { offset: 0x57189E, size: 0x8, addend: 0x0, symName: __ZN4juce18OggVorbisNamespaceL27_huff_book_line_128x4_0sub2E, symObjAddr: 0x749920, symBinAddr: 0x1007522B8, symSize: 0x0 }
  - { offset: 0x5718B9, size: 0x8, addend: 0x0, symName: __ZN4juce18OggVorbisNamespaceL33_huff_lengthlist_line_128x4_0sub2E, symObjAddr: 0x68F24E, symBinAddr: 0x10066D86E, symSize: 0x0 }
  - { offset: 0x5718D4, size: 0x8, addend: 0x0, symName: __ZN4juce18OggVorbisNamespaceL27_huff_book_line_128x4_0sub3E, symObjAddr: 0x749968, symBinAddr: 0x100752300, symSize: 0x0 }
  - { offset: 0x5718EF, size: 0x8, addend: 0x0, symName: __ZN4juce18OggVorbisNamespaceL33_huff_lengthlist_line_128x4_0sub3E, symObjAddr: 0x68F267, symBinAddr: 0x10066D887, symSize: 0x0 }
  - { offset: 0x571908, size: 0x8, addend: 0x0, symName: __ZN4juce18OggVorbisNamespaceL18_floor_256x4_booksE, symObjAddr: 0x749568, symBinAddr: 0x100751F00, symSize: 0x0 }
  - { offset: 0x571923, size: 0x8, addend: 0x0, symName: __ZN4juce18OggVorbisNamespaceL28_huff_book_line_256x4_class0E, symObjAddr: 0x7499B0, symBinAddr: 0x100752348, symSize: 0x0 }
  - { offset: 0x57193E, size: 0x8, addend: 0x0, symName: __ZN4juce18OggVorbisNamespaceL34_huff_lengthlist_line_256x4_class0E, symObjAddr: 0x68F2A7, symBinAddr: 0x10066D8C7, symSize: 0x0 }
  - { offset: 0x571959, size: 0x8, addend: 0x0, symName: __ZN4juce18OggVorbisNamespaceL27_huff_book_line_256x4_0sub0E, symObjAddr: 0x7499F8, symBinAddr: 0x100752390, symSize: 0x0 }
  - { offset: 0x571974, size: 0x8, addend: 0x0, symName: __ZN4juce18OggVorbisNamespaceL33_huff_lengthlist_line_256x4_0sub0E, symObjAddr: 0x68F3A7, symBinAddr: 0x10066D9C7, symSize: 0x0 }
  - { offset: 0x57198F, size: 0x8, addend: 0x0, symName: __ZN4juce18OggVorbisNamespaceL27_huff_book_line_256x4_0sub1E, symObjAddr: 0x749A40, symBinAddr: 0x1007523D8, symSize: 0x0 }
  - { offset: 0x5719AA, size: 0x8, addend: 0x0, symName: __ZN4juce18OggVorbisNamespaceL33_huff_lengthlist_line_256x4_0sub1E, symObjAddr: 0x68F3AB, symBinAddr: 0x10066D9CB, symSize: 0x0 }
  - { offset: 0x5719C5, size: 0x8, addend: 0x0, symName: __ZN4juce18OggVorbisNamespaceL27_huff_book_line_256x4_0sub2E, symObjAddr: 0x749A88, symBinAddr: 0x100752420, symSize: 0x0 }
  - { offset: 0x5719E0, size: 0x8, addend: 0x0, symName: __ZN4juce18OggVorbisNamespaceL33_huff_lengthlist_line_256x4_0sub2E, symObjAddr: 0x68F3B5, symBinAddr: 0x10066D9D5, symSize: 0x0 }
  - { offset: 0x5719FB, size: 0x8, addend: 0x0, symName: __ZN4juce18OggVorbisNamespaceL27_huff_book_line_256x4_0sub3E, symObjAddr: 0x749AD0, symBinAddr: 0x100752468, symSize: 0x0 }
  - { offset: 0x571A16, size: 0x8, addend: 0x0, symName: __ZN4juce18OggVorbisNamespaceL33_huff_lengthlist_line_256x4_0sub3E, symObjAddr: 0x68F3CE, symBinAddr: 0x10066D9EE, symSize: 0x0 }
  - { offset: 0x571A2F, size: 0x8, addend: 0x0, symName: __ZN4juce18OggVorbisNamespaceL18_floor_128x7_booksE, symObjAddr: 0x749590, symBinAddr: 0x100751F28, symSize: 0x0 }
  - { offset: 0x571A4A, size: 0x8, addend: 0x0, symName: __ZN4juce18OggVorbisNamespaceL28_huff_book_line_128x7_class0E, symObjAddr: 0x749B18, symBinAddr: 0x1007524B0, symSize: 0x0 }
  - { offset: 0x571A65, size: 0x8, addend: 0x0, symName: __ZN4juce18OggVorbisNamespaceL34_huff_lengthlist_line_128x7_class0E, symObjAddr: 0x68F40E, symBinAddr: 0x10066DA2E, symSize: 0x0 }
  - { offset: 0x571A80, size: 0x8, addend: 0x0, symName: __ZN4juce18OggVorbisNamespaceL28_huff_book_line_128x7_class1E, symObjAddr: 0x749B60, symBinAddr: 0x1007524F8, symSize: 0x0 }
  - { offset: 0x571A9B, size: 0x8, addend: 0x0, symName: __ZN4juce18OggVorbisNamespaceL34_huff_lengthlist_line_128x7_class1E, symObjAddr: 0x68F44E, symBinAddr: 0x10066DA6E, symSize: 0x0 }
  - { offset: 0x571AB6, size: 0x8, addend: 0x0, symName: __ZN4juce18OggVorbisNamespaceL27_huff_book_line_128x7_0sub1E, symObjAddr: 0x749BA8, symBinAddr: 0x100752540, symSize: 0x0 }
  - { offset: 0x571AD1, size: 0x8, addend: 0x0, symName: __ZN4juce18OggVorbisNamespaceL33_huff_lengthlist_line_128x7_0sub1E, symObjAddr: 0x68F54E, symBinAddr: 0x10066DB6E, symSize: 0x0 }
  - { offset: 0x571AEC, size: 0x8, addend: 0x0, symName: __ZN4juce18OggVorbisNamespaceL27_huff_book_line_128x7_0sub2E, symObjAddr: 0x749BF0, symBinAddr: 0x100752588, symSize: 0x0 }
  - { offset: 0x571B07, size: 0x8, addend: 0x0, symName: __ZN4juce18OggVorbisNamespaceL33_huff_lengthlist_line_128x7_0sub2E, symObjAddr: 0x68F557, symBinAddr: 0x10066DB77, symSize: 0x0 }
  - { offset: 0x571B22, size: 0x8, addend: 0x0, symName: __ZN4juce18OggVorbisNamespaceL27_huff_book_line_128x7_0sub3E, symObjAddr: 0x749C38, symBinAddr: 0x1007525D0, symSize: 0x0 }
  - { offset: 0x571B3D, size: 0x8, addend: 0x0, symName: __ZN4juce18OggVorbisNamespaceL33_huff_lengthlist_line_128x7_0sub3E, symObjAddr: 0x68F570, symBinAddr: 0x10066DB90, symSize: 0x0 }
  - { offset: 0x571B58, size: 0x8, addend: 0x0, symName: __ZN4juce18OggVorbisNamespaceL27_huff_book_line_128x7_1sub1E, symObjAddr: 0x749C80, symBinAddr: 0x100752618, symSize: 0x0 }
  - { offset: 0x571B73, size: 0x8, addend: 0x0, symName: __ZN4juce18OggVorbisNamespaceL33_huff_lengthlist_line_128x7_1sub1E, symObjAddr: 0x68F5B0, symBinAddr: 0x10066DBD0, symSize: 0x0 }
  - { offset: 0x571B8E, size: 0x8, addend: 0x0, symName: __ZN4juce18OggVorbisNamespaceL27_huff_book_line_128x7_1sub2E, symObjAddr: 0x749CC8, symBinAddr: 0x100752660, symSize: 0x0 }
  - { offset: 0x571BA9, size: 0x8, addend: 0x0, symName: __ZN4juce18OggVorbisNamespaceL33_huff_lengthlist_line_128x7_1sub2E, symObjAddr: 0x68F5B9, symBinAddr: 0x10066DBD9, symSize: 0x0 }
  - { offset: 0x571BC4, size: 0x8, addend: 0x0, symName: __ZN4juce18OggVorbisNamespaceL27_huff_book_line_128x7_1sub3E, symObjAddr: 0x749D10, symBinAddr: 0x1007526A8, symSize: 0x0 }
  - { offset: 0x571BDF, size: 0x8, addend: 0x0, symName: __ZN4juce18OggVorbisNamespaceL33_huff_lengthlist_line_128x7_1sub3E, symObjAddr: 0x68F5D2, symBinAddr: 0x10066DBF2, symSize: 0x0 }
  - { offset: 0x571BF8, size: 0x8, addend: 0x0, symName: __ZN4juce18OggVorbisNamespaceL18_floor_256x7_booksE, symObjAddr: 0x7495D0, symBinAddr: 0x100751F68, symSize: 0x0 }
  - { offset: 0x571C11, size: 0x8, addend: 0x0, symName: __ZN4juce18OggVorbisNamespaceL28_huff_book_line_256x7_class0E, symObjAddr: 0x749D58, symBinAddr: 0x1007526F0, symSize: 0x0 }
  - { offset: 0x571C2A, size: 0x8, addend: 0x0, symName: __ZN4juce18OggVorbisNamespaceL34_huff_lengthlist_line_256x7_class0E, symObjAddr: 0x68F612, symBinAddr: 0x10066DC32, symSize: 0x0 }
  - { offset: 0x571C43, size: 0x8, addend: 0x0, symName: __ZN4juce18OggVorbisNamespaceL28_huff_book_line_256x7_class1E, symObjAddr: 0x749DA0, symBinAddr: 0x100752738, symSize: 0x0 }
  - { offset: 0x571C5C, size: 0x8, addend: 0x0, symName: __ZN4juce18OggVorbisNamespaceL34_huff_lengthlist_line_256x7_class1E, symObjAddr: 0x68F652, symBinAddr: 0x10066DC72, symSize: 0x0 }
  - { offset: 0x571C75, size: 0x8, addend: 0x0, symName: __ZN4juce18OggVorbisNamespaceL27_huff_book_line_256x7_0sub1E, symObjAddr: 0x749DE8, symBinAddr: 0x100752780, symSize: 0x0 }
  - { offset: 0x571C8E, size: 0x8, addend: 0x0, symName: __ZN4juce18OggVorbisNamespaceL33_huff_lengthlist_line_256x7_0sub1E, symObjAddr: 0x68F752, symBinAddr: 0x10066DD72, symSize: 0x0 }
  - { offset: 0x571CA7, size: 0x8, addend: 0x0, symName: __ZN4juce18OggVorbisNamespaceL27_huff_book_line_256x7_0sub2E, symObjAddr: 0x749E30, symBinAddr: 0x1007527C8, symSize: 0x0 }
  - { offset: 0x571CC0, size: 0x8, addend: 0x0, symName: __ZN4juce18OggVorbisNamespaceL33_huff_lengthlist_line_256x7_0sub2E, symObjAddr: 0x68F75B, symBinAddr: 0x10066DD7B, symSize: 0x0 }
  - { offset: 0x571CD9, size: 0x8, addend: 0x0, symName: __ZN4juce18OggVorbisNamespaceL27_huff_book_line_256x7_0sub3E, symObjAddr: 0x749E78, symBinAddr: 0x100752810, symSize: 0x0 }
  - { offset: 0x571CF2, size: 0x8, addend: 0x0, symName: __ZN4juce18OggVorbisNamespaceL33_huff_lengthlist_line_256x7_0sub3E, symObjAddr: 0x68F774, symBinAddr: 0x10066DD94, symSize: 0x0 }
  - { offset: 0x571D0B, size: 0x8, addend: 0x0, symName: __ZN4juce18OggVorbisNamespaceL27_huff_book_line_256x7_1sub1E, symObjAddr: 0x749EC0, symBinAddr: 0x100752858, symSize: 0x0 }
  - { offset: 0x571D24, size: 0x8, addend: 0x0, symName: __ZN4juce18OggVorbisNamespaceL33_huff_lengthlist_line_256x7_1sub1E, symObjAddr: 0x68F7B4, symBinAddr: 0x10066DDD4, symSize: 0x0 }
  - { offset: 0x571D3D, size: 0x8, addend: 0x0, symName: __ZN4juce18OggVorbisNamespaceL27_huff_book_line_256x7_1sub2E, symObjAddr: 0x749F08, symBinAddr: 0x1007528A0, symSize: 0x0 }
  - { offset: 0x571D56, size: 0x8, addend: 0x0, symName: __ZN4juce18OggVorbisNamespaceL33_huff_lengthlist_line_256x7_1sub2E, symObjAddr: 0x68F7BD, symBinAddr: 0x10066DDDD, symSize: 0x0 }
  - { offset: 0x571D6F, size: 0x8, addend: 0x0, symName: __ZN4juce18OggVorbisNamespaceL27_huff_book_line_256x7_1sub3E, symObjAddr: 0x749F50, symBinAddr: 0x1007528E8, symSize: 0x0 }
  - { offset: 0x571D88, size: 0x8, addend: 0x0, symName: __ZN4juce18OggVorbisNamespaceL33_huff_lengthlist_line_256x7_1sub3E, symObjAddr: 0x68F7D6, symBinAddr: 0x10066DDF6, symSize: 0x0 }
  - { offset: 0x571DA1, size: 0x8, addend: 0x0, symName: __ZN4juce18OggVorbisNamespaceL19_floor_128x11_booksE, symObjAddr: 0x749610, symBinAddr: 0x100751FA8, symSize: 0x0 }
  - { offset: 0x571DBC, size: 0x8, addend: 0x0, symName: __ZN4juce18OggVorbisNamespaceL29_huff_book_line_128x11_class1E, symObjAddr: 0x749F98, symBinAddr: 0x100752930, symSize: 0x0 }
  - { offset: 0x571DD7, size: 0x8, addend: 0x0, symName: __ZN4juce18OggVorbisNamespaceL35_huff_lengthlist_line_128x11_class1E, symObjAddr: 0x68F816, symBinAddr: 0x10066DE36, symSize: 0x0 }
  - { offset: 0x571DF2, size: 0x8, addend: 0x0, symName: __ZN4juce18OggVorbisNamespaceL29_huff_book_line_128x11_class2E, symObjAddr: 0x749FE0, symBinAddr: 0x100752978, symSize: 0x0 }
  - { offset: 0x571E0D, size: 0x8, addend: 0x0, symName: __ZN4juce18OggVorbisNamespaceL35_huff_lengthlist_line_128x11_class2E, symObjAddr: 0x68F81E, symBinAddr: 0x10066DE3E, symSize: 0x0 }
  - { offset: 0x571E28, size: 0x8, addend: 0x0, symName: __ZN4juce18OggVorbisNamespaceL29_huff_book_line_128x11_class3E, symObjAddr: 0x74A028, symBinAddr: 0x1007529C0, symSize: 0x0 }
  - { offset: 0x571E43, size: 0x8, addend: 0x0, symName: __ZN4juce18OggVorbisNamespaceL35_huff_lengthlist_line_128x11_class3E, symObjAddr: 0x68F85E, symBinAddr: 0x10066DE7E, symSize: 0x0 }
  - { offset: 0x571E5E, size: 0x8, addend: 0x0, symName: __ZN4juce18OggVorbisNamespaceL28_huff_book_line_128x11_0sub0E, symObjAddr: 0x74A070, symBinAddr: 0x100752A08, symSize: 0x0 }
  - { offset: 0x571E79, size: 0x8, addend: 0x0, symName: __ZN4juce18OggVorbisNamespaceL34_huff_lengthlist_line_128x11_0sub0E, symObjAddr: 0x68F89E, symBinAddr: 0x10066DEBE, symSize: 0x0 }
  - { offset: 0x571E94, size: 0x8, addend: 0x0, symName: __ZN4juce18OggVorbisNamespaceL28_huff_book_line_128x11_1sub0E, symObjAddr: 0x74A0B8, symBinAddr: 0x100752A50, symSize: 0x0 }
  - { offset: 0x571EAF, size: 0x8, addend: 0x0, symName: __ZN4juce18OggVorbisNamespaceL34_huff_lengthlist_line_128x11_1sub0E, symObjAddr: 0x68F91E, symBinAddr: 0x10066DF3E, symSize: 0x0 }
  - { offset: 0x571ECA, size: 0x8, addend: 0x0, symName: __ZN4juce18OggVorbisNamespaceL28_huff_book_line_128x11_1sub1E, symObjAddr: 0x74A100, symBinAddr: 0x100752A98, symSize: 0x0 }
  - { offset: 0x571EE5, size: 0x8, addend: 0x0, symName: __ZN4juce18OggVorbisNamespaceL34_huff_lengthlist_line_128x11_1sub1E, symObjAddr: 0x68F93E, symBinAddr: 0x10066DF5E, symSize: 0x0 }
  - { offset: 0x571F00, size: 0x8, addend: 0x0, symName: __ZN4juce18OggVorbisNamespaceL28_huff_book_line_128x11_2sub1E, symObjAddr: 0x74A148, symBinAddr: 0x100752AE0, symSize: 0x0 }
  - { offset: 0x571F1B, size: 0x8, addend: 0x0, symName: __ZN4juce18OggVorbisNamespaceL34_huff_lengthlist_line_128x11_2sub1E, symObjAddr: 0x68F9BE, symBinAddr: 0x10066DFDE, symSize: 0x0 }
  - { offset: 0x571F36, size: 0x8, addend: 0x0, symName: __ZN4juce18OggVorbisNamespaceL28_huff_book_line_128x11_2sub2E, symObjAddr: 0x74A190, symBinAddr: 0x100752B28, symSize: 0x0 }
  - { offset: 0x571F51, size: 0x8, addend: 0x0, symName: __ZN4juce18OggVorbisNamespaceL34_huff_lengthlist_line_128x11_2sub2E, symObjAddr: 0x68F9D0, symBinAddr: 0x10066DFF0, symSize: 0x0 }
  - { offset: 0x571F6C, size: 0x8, addend: 0x0, symName: __ZN4juce18OggVorbisNamespaceL28_huff_book_line_128x11_2sub3E, symObjAddr: 0x74A1D8, symBinAddr: 0x100752B70, symSize: 0x0 }
  - { offset: 0x571F87, size: 0x8, addend: 0x0, symName: __ZN4juce18OggVorbisNamespaceL34_huff_lengthlist_line_128x11_2sub3E, symObjAddr: 0x68FA02, symBinAddr: 0x10066E022, symSize: 0x0 }
  - { offset: 0x571FA2, size: 0x8, addend: 0x0, symName: __ZN4juce18OggVorbisNamespaceL28_huff_book_line_128x11_3sub1E, symObjAddr: 0x74A220, symBinAddr: 0x100752BB8, symSize: 0x0 }
  - { offset: 0x571FBD, size: 0x8, addend: 0x0, symName: __ZN4juce18OggVorbisNamespaceL34_huff_lengthlist_line_128x11_3sub1E, symObjAddr: 0x68FA82, symBinAddr: 0x10066E0A2, symSize: 0x0 }
  - { offset: 0x571FD8, size: 0x8, addend: 0x0, symName: __ZN4juce18OggVorbisNamespaceL28_huff_book_line_128x11_3sub2E, symObjAddr: 0x74A268, symBinAddr: 0x100752C00, symSize: 0x0 }
  - { offset: 0x571FF3, size: 0x8, addend: 0x0, symName: __ZN4juce18OggVorbisNamespaceL34_huff_lengthlist_line_128x11_3sub2E, symObjAddr: 0x68FA94, symBinAddr: 0x10066E0B4, symSize: 0x0 }
  - { offset: 0x57200E, size: 0x8, addend: 0x0, symName: __ZN4juce18OggVorbisNamespaceL28_huff_book_line_128x11_3sub3E, symObjAddr: 0x74A2B0, symBinAddr: 0x100752C48, symSize: 0x0 }
  - { offset: 0x572029, size: 0x8, addend: 0x0, symName: __ZN4juce18OggVorbisNamespaceL34_huff_lengthlist_line_128x11_3sub3E, symObjAddr: 0x68FAC6, symBinAddr: 0x10066E0E6, symSize: 0x0 }
  - { offset: 0x572042, size: 0x8, addend: 0x0, symName: __ZN4juce18OggVorbisNamespaceL19_floor_128x17_booksE, symObjAddr: 0x749670, symBinAddr: 0x100752008, symSize: 0x0 }
  - { offset: 0x57205D, size: 0x8, addend: 0x0, symName: __ZN4juce18OggVorbisNamespaceL29_huff_book_line_128x17_class1E, symObjAddr: 0x74A2F8, symBinAddr: 0x100752C90, symSize: 0x0 }
  - { offset: 0x572078, size: 0x8, addend: 0x0, symName: __ZN4juce18OggVorbisNamespaceL35_huff_lengthlist_line_128x17_class1E, symObjAddr: 0x68FB46, symBinAddr: 0x10066E166, symSize: 0x0 }
  - { offset: 0x572093, size: 0x8, addend: 0x0, symName: __ZN4juce18OggVorbisNamespaceL29_huff_book_line_128x17_class2E, symObjAddr: 0x74A340, symBinAddr: 0x100752CD8, symSize: 0x0 }
  - { offset: 0x5720AE, size: 0x8, addend: 0x0, symName: __ZN4juce18OggVorbisNamespaceL35_huff_lengthlist_line_128x17_class2E, symObjAddr: 0x68FB4E, symBinAddr: 0x10066E16E, symSize: 0x0 }
  - { offset: 0x5720C9, size: 0x8, addend: 0x0, symName: __ZN4juce18OggVorbisNamespaceL29_huff_book_line_128x17_class3E, symObjAddr: 0x74A388, symBinAddr: 0x100752D20, symSize: 0x0 }
  - { offset: 0x5720E4, size: 0x8, addend: 0x0, symName: __ZN4juce18OggVorbisNamespaceL35_huff_lengthlist_line_128x17_class3E, symObjAddr: 0x68FB8E, symBinAddr: 0x10066E1AE, symSize: 0x0 }
  - { offset: 0x5720FF, size: 0x8, addend: 0x0, symName: __ZN4juce18OggVorbisNamespaceL28_huff_book_line_128x17_0sub0E, symObjAddr: 0x74A3D0, symBinAddr: 0x100752D68, symSize: 0x0 }
  - { offset: 0x57211A, size: 0x8, addend: 0x0, symName: __ZN4juce18OggVorbisNamespaceL34_huff_lengthlist_line_128x17_0sub0E, symObjAddr: 0x68FBCE, symBinAddr: 0x10066E1EE, symSize: 0x0 }
  - { offset: 0x572135, size: 0x8, addend: 0x0, symName: __ZN4juce18OggVorbisNamespaceL28_huff_book_line_128x17_1sub0E, symObjAddr: 0x74A418, symBinAddr: 0x100752DB0, symSize: 0x0 }
  - { offset: 0x572150, size: 0x8, addend: 0x0, symName: __ZN4juce18OggVorbisNamespaceL34_huff_lengthlist_line_128x17_1sub0E, symObjAddr: 0x68FC4E, symBinAddr: 0x10066E26E, symSize: 0x0 }
  - { offset: 0x57216B, size: 0x8, addend: 0x0, symName: __ZN4juce18OggVorbisNamespaceL28_huff_book_line_128x17_1sub1E, symObjAddr: 0x74A460, symBinAddr: 0x100752DF8, symSize: 0x0 }
  - { offset: 0x572186, size: 0x8, addend: 0x0, symName: __ZN4juce18OggVorbisNamespaceL34_huff_lengthlist_line_128x17_1sub1E, symObjAddr: 0x68FC6E, symBinAddr: 0x10066E28E, symSize: 0x0 }
  - { offset: 0x5721A1, size: 0x8, addend: 0x0, symName: __ZN4juce18OggVorbisNamespaceL28_huff_book_line_128x17_2sub1E, symObjAddr: 0x74A4A8, symBinAddr: 0x100752E40, symSize: 0x0 }
  - { offset: 0x5721BC, size: 0x8, addend: 0x0, symName: __ZN4juce18OggVorbisNamespaceL34_huff_lengthlist_line_128x17_2sub1E, symObjAddr: 0x68FCEE, symBinAddr: 0x10066E30E, symSize: 0x0 }
  - { offset: 0x5721D7, size: 0x8, addend: 0x0, symName: __ZN4juce18OggVorbisNamespaceL28_huff_book_line_128x17_2sub2E, symObjAddr: 0x74A4F0, symBinAddr: 0x100752E88, symSize: 0x0 }
  - { offset: 0x5721F2, size: 0x8, addend: 0x0, symName: __ZN4juce18OggVorbisNamespaceL34_huff_lengthlist_line_128x17_2sub2E, symObjAddr: 0x68FD00, symBinAddr: 0x10066E320, symSize: 0x0 }
  - { offset: 0x57220D, size: 0x8, addend: 0x0, symName: __ZN4juce18OggVorbisNamespaceL28_huff_book_line_128x17_2sub3E, symObjAddr: 0x74A538, symBinAddr: 0x100752ED0, symSize: 0x0 }
  - { offset: 0x572228, size: 0x8, addend: 0x0, symName: __ZN4juce18OggVorbisNamespaceL34_huff_lengthlist_line_128x17_2sub3E, symObjAddr: 0x68FD32, symBinAddr: 0x10066E352, symSize: 0x0 }
  - { offset: 0x572243, size: 0x8, addend: 0x0, symName: __ZN4juce18OggVorbisNamespaceL28_huff_book_line_128x17_3sub1E, symObjAddr: 0x74A580, symBinAddr: 0x100752F18, symSize: 0x0 }
  - { offset: 0x57225E, size: 0x8, addend: 0x0, symName: __ZN4juce18OggVorbisNamespaceL34_huff_lengthlist_line_128x17_3sub1E, symObjAddr: 0x68FDB2, symBinAddr: 0x10066E3D2, symSize: 0x0 }
  - { offset: 0x572279, size: 0x8, addend: 0x0, symName: __ZN4juce18OggVorbisNamespaceL28_huff_book_line_128x17_3sub2E, symObjAddr: 0x74A5C8, symBinAddr: 0x100752F60, symSize: 0x0 }
  - { offset: 0x572294, size: 0x8, addend: 0x0, symName: __ZN4juce18OggVorbisNamespaceL34_huff_lengthlist_line_128x17_3sub2E, symObjAddr: 0x68FDC4, symBinAddr: 0x10066E3E4, symSize: 0x0 }
  - { offset: 0x5722AF, size: 0x8, addend: 0x0, symName: __ZN4juce18OggVorbisNamespaceL28_huff_book_line_128x17_3sub3E, symObjAddr: 0x74A610, symBinAddr: 0x100752FA8, symSize: 0x0 }
  - { offset: 0x5722CA, size: 0x8, addend: 0x0, symName: __ZN4juce18OggVorbisNamespaceL34_huff_lengthlist_line_128x17_3sub3E, symObjAddr: 0x68FDF6, symBinAddr: 0x10066E416, symSize: 0x0 }
  - { offset: 0x5722E3, size: 0x8, addend: 0x0, symName: __ZN4juce18OggVorbisNamespaceL21_floor_256x4low_booksE, symObjAddr: 0x7496D0, symBinAddr: 0x100752068, symSize: 0x0 }
  - { offset: 0x5722FE, size: 0x8, addend: 0x0, symName: __ZN4juce18OggVorbisNamespaceL31_huff_book_line_256x4low_class0E, symObjAddr: 0x74A658, symBinAddr: 0x100752FF0, symSize: 0x0 }
  - { offset: 0x572319, size: 0x8, addend: 0x0, symName: __ZN4juce18OggVorbisNamespaceL37_huff_lengthlist_line_256x4low_class0E, symObjAddr: 0x68FE76, symBinAddr: 0x10066E496, symSize: 0x0 }
  - { offset: 0x572334, size: 0x8, addend: 0x0, symName: __ZN4juce18OggVorbisNamespaceL30_huff_book_line_256x4low_0sub0E, symObjAddr: 0x74A6A0, symBinAddr: 0x100753038, symSize: 0x0 }
  - { offset: 0x57234F, size: 0x8, addend: 0x0, symName: __ZN4juce18OggVorbisNamespaceL36_huff_lengthlist_line_256x4low_0sub0E, symObjAddr: 0x68FF76, symBinAddr: 0x10066E596, symSize: 0x0 }
  - { offset: 0x57236A, size: 0x8, addend: 0x0, symName: __ZN4juce18OggVorbisNamespaceL30_huff_book_line_256x4low_0sub1E, symObjAddr: 0x74A6E8, symBinAddr: 0x100753080, symSize: 0x0 }
  - { offset: 0x572385, size: 0x8, addend: 0x0, symName: __ZN4juce18OggVorbisNamespaceL36_huff_lengthlist_line_256x4low_0sub1E, symObjAddr: 0x68FF7A, symBinAddr: 0x10066E59A, symSize: 0x0 }
  - { offset: 0x5723A0, size: 0x8, addend: 0x0, symName: __ZN4juce18OggVorbisNamespaceL30_huff_book_line_256x4low_0sub2E, symObjAddr: 0x74A730, symBinAddr: 0x1007530C8, symSize: 0x0 }
  - { offset: 0x5723BB, size: 0x8, addend: 0x0, symName: __ZN4juce18OggVorbisNamespaceL36_huff_lengthlist_line_256x4low_0sub2E, symObjAddr: 0x68FF84, symBinAddr: 0x10066E5A4, symSize: 0x0 }
  - { offset: 0x5723D6, size: 0x8, addend: 0x0, symName: __ZN4juce18OggVorbisNamespaceL30_huff_book_line_256x4low_0sub3E, symObjAddr: 0x74A778, symBinAddr: 0x100753110, symSize: 0x0 }
  - { offset: 0x5723F1, size: 0x8, addend: 0x0, symName: __ZN4juce18OggVorbisNamespaceL36_huff_lengthlist_line_256x4low_0sub3E, symObjAddr: 0x68FF9D, symBinAddr: 0x10066E5BD, symSize: 0x0 }
  - { offset: 0x57240A, size: 0x8, addend: 0x0, symName: __ZN4juce18OggVorbisNamespaceL20_floor_1024x27_booksE, symObjAddr: 0x7496F8, symBinAddr: 0x100752090, symSize: 0x0 }
  - { offset: 0x572425, size: 0x8, addend: 0x0, symName: __ZN4juce18OggVorbisNamespaceL30_huff_book_line_1024x27_class1E, symObjAddr: 0x74A7C0, symBinAddr: 0x100753158, symSize: 0x0 }
  - { offset: 0x572440, size: 0x8, addend: 0x0, symName: __ZN4juce18OggVorbisNamespaceL36_huff_lengthlist_line_1024x27_class1E, symObjAddr: 0x68FFDD, symBinAddr: 0x10066E5FD, symSize: 0x0 }
  - { offset: 0x57245B, size: 0x8, addend: 0x0, symName: __ZN4juce18OggVorbisNamespaceL30_huff_book_line_1024x27_class2E, symObjAddr: 0x74A808, symBinAddr: 0x1007531A0, symSize: 0x0 }
  - { offset: 0x572476, size: 0x8, addend: 0x0, symName: __ZN4juce18OggVorbisNamespaceL36_huff_lengthlist_line_1024x27_class2E, symObjAddr: 0x68FFED, symBinAddr: 0x10066E60D, symSize: 0x0 }
  - { offset: 0x572491, size: 0x8, addend: 0x0, symName: __ZN4juce18OggVorbisNamespaceL30_huff_book_line_1024x27_class3E, symObjAddr: 0x74A850, symBinAddr: 0x1007531E8, symSize: 0x0 }
  - { offset: 0x5724AC, size: 0x8, addend: 0x0, symName: __ZN4juce18OggVorbisNamespaceL36_huff_lengthlist_line_1024x27_class3E, symObjAddr: 0x68FFF5, symBinAddr: 0x10066E615, symSize: 0x0 }
  - { offset: 0x5724C7, size: 0x8, addend: 0x0, symName: __ZN4juce18OggVorbisNamespaceL30_huff_book_line_1024x27_class4E, symObjAddr: 0x74A898, symBinAddr: 0x100753230, symSize: 0x0 }
  - { offset: 0x5724E2, size: 0x8, addend: 0x0, symName: __ZN4juce18OggVorbisNamespaceL36_huff_lengthlist_line_1024x27_class4E, symObjAddr: 0x6900F5, symBinAddr: 0x10066E715, symSize: 0x0 }
  - { offset: 0x5724FD, size: 0x8, addend: 0x0, symName: __ZN4juce18OggVorbisNamespaceL29_huff_book_line_1024x27_0sub0E, symObjAddr: 0x74A8E0, symBinAddr: 0x100753278, symSize: 0x0 }
  - { offset: 0x572518, size: 0x8, addend: 0x0, symName: __ZN4juce18OggVorbisNamespaceL35_huff_lengthlist_line_1024x27_0sub0E, symObjAddr: 0x690135, symBinAddr: 0x10066E755, symSize: 0x0 }
  - { offset: 0x572533, size: 0x8, addend: 0x0, symName: __ZN4juce18OggVorbisNamespaceL29_huff_book_line_1024x27_1sub0E, symObjAddr: 0x74A928, symBinAddr: 0x1007532C0, symSize: 0x0 }
  - { offset: 0x57254E, size: 0x8, addend: 0x0, symName: __ZN4juce18OggVorbisNamespaceL35_huff_lengthlist_line_1024x27_1sub0E, symObjAddr: 0x6901B5, symBinAddr: 0x10066E7D5, symSize: 0x0 }
  - { offset: 0x572569, size: 0x8, addend: 0x0, symName: __ZN4juce18OggVorbisNamespaceL29_huff_book_line_1024x27_1sub1E, symObjAddr: 0x74A970, symBinAddr: 0x100753308, symSize: 0x0 }
  - { offset: 0x572584, size: 0x8, addend: 0x0, symName: __ZN4juce18OggVorbisNamespaceL35_huff_lengthlist_line_1024x27_1sub1E, symObjAddr: 0x6901D5, symBinAddr: 0x10066E7F5, symSize: 0x0 }
  - { offset: 0x57259F, size: 0x8, addend: 0x0, symName: __ZN4juce18OggVorbisNamespaceL29_huff_book_line_1024x27_2sub0E, symObjAddr: 0x74A9B8, symBinAddr: 0x100753350, symSize: 0x0 }
  - { offset: 0x5725BA, size: 0x8, addend: 0x0, symName: __ZN4juce18OggVorbisNamespaceL35_huff_lengthlist_line_1024x27_2sub0E, symObjAddr: 0x690255, symBinAddr: 0x10066E875, symSize: 0x0 }
  - { offset: 0x5725D5, size: 0x8, addend: 0x0, symName: __ZN4juce18OggVorbisNamespaceL29_huff_book_line_1024x27_2sub1E, symObjAddr: 0x74AA00, symBinAddr: 0x100753398, symSize: 0x0 }
  - { offset: 0x5725F0, size: 0x8, addend: 0x0, symName: __ZN4juce18OggVorbisNamespaceL35_huff_lengthlist_line_1024x27_2sub1E, symObjAddr: 0x690275, symBinAddr: 0x10066E895, symSize: 0x0 }
  - { offset: 0x57260B, size: 0x8, addend: 0x0, symName: __ZN4juce18OggVorbisNamespaceL29_huff_book_line_1024x27_3sub1E, symObjAddr: 0x74AA48, symBinAddr: 0x1007533E0, symSize: 0x0 }
  - { offset: 0x572626, size: 0x8, addend: 0x0, symName: __ZN4juce18OggVorbisNamespaceL35_huff_lengthlist_line_1024x27_3sub1E, symObjAddr: 0x6902F5, symBinAddr: 0x10066E915, symSize: 0x0 }
  - { offset: 0x572641, size: 0x8, addend: 0x0, symName: __ZN4juce18OggVorbisNamespaceL29_huff_book_line_1024x27_3sub2E, symObjAddr: 0x74AA90, symBinAddr: 0x100753428, symSize: 0x0 }
  - { offset: 0x57265C, size: 0x8, addend: 0x0, symName: __ZN4juce18OggVorbisNamespaceL35_huff_lengthlist_line_1024x27_3sub2E, symObjAddr: 0x690307, symBinAddr: 0x10066E927, symSize: 0x0 }
  - { offset: 0x572677, size: 0x8, addend: 0x0, symName: __ZN4juce18OggVorbisNamespaceL29_huff_book_line_1024x27_3sub3E, symObjAddr: 0x74AAD8, symBinAddr: 0x100753470, symSize: 0x0 }
  - { offset: 0x572692, size: 0x8, addend: 0x0, symName: __ZN4juce18OggVorbisNamespaceL35_huff_lengthlist_line_1024x27_3sub3E, symObjAddr: 0x690339, symBinAddr: 0x10066E959, symSize: 0x0 }
  - { offset: 0x5726AD, size: 0x8, addend: 0x0, symName: __ZN4juce18OggVorbisNamespaceL29_huff_book_line_1024x27_4sub1E, symObjAddr: 0x74AB20, symBinAddr: 0x1007534B8, symSize: 0x0 }
  - { offset: 0x5726C8, size: 0x8, addend: 0x0, symName: __ZN4juce18OggVorbisNamespaceL35_huff_lengthlist_line_1024x27_4sub1E, symObjAddr: 0x6903B9, symBinAddr: 0x10066E9D9, symSize: 0x0 }
  - { offset: 0x5726E3, size: 0x8, addend: 0x0, symName: __ZN4juce18OggVorbisNamespaceL29_huff_book_line_1024x27_4sub2E, symObjAddr: 0x74AB68, symBinAddr: 0x100753500, symSize: 0x0 }
  - { offset: 0x5726FE, size: 0x8, addend: 0x0, symName: __ZN4juce18OggVorbisNamespaceL35_huff_lengthlist_line_1024x27_4sub2E, symObjAddr: 0x6903CB, symBinAddr: 0x10066E9EB, symSize: 0x0 }
  - { offset: 0x572719, size: 0x8, addend: 0x0, symName: __ZN4juce18OggVorbisNamespaceL29_huff_book_line_1024x27_4sub3E, symObjAddr: 0x74ABB0, symBinAddr: 0x100753548, symSize: 0x0 }
  - { offset: 0x572734, size: 0x8, addend: 0x0, symName: __ZN4juce18OggVorbisNamespaceL35_huff_lengthlist_line_1024x27_4sub3E, symObjAddr: 0x6903FD, symBinAddr: 0x10066EA1D, symSize: 0x0 }
  - { offset: 0x57274D, size: 0x8, addend: 0x0, symName: __ZN4juce18OggVorbisNamespaceL20_floor_2048x27_booksE, symObjAddr: 0x749770, symBinAddr: 0x100752108, symSize: 0x0 }
  - { offset: 0x572768, size: 0x8, addend: 0x0, symName: __ZN4juce18OggVorbisNamespaceL30_huff_book_line_2048x27_class1E, symObjAddr: 0x74ABF8, symBinAddr: 0x100753590, symSize: 0x0 }
  - { offset: 0x572783, size: 0x8, addend: 0x0, symName: __ZN4juce18OggVorbisNamespaceL36_huff_lengthlist_line_2048x27_class1E, symObjAddr: 0x69047D, symBinAddr: 0x10066EA9D, symSize: 0x0 }
  - { offset: 0x57279E, size: 0x8, addend: 0x0, symName: __ZN4juce18OggVorbisNamespaceL30_huff_book_line_2048x27_class2E, symObjAddr: 0x74AC40, symBinAddr: 0x1007535D8, symSize: 0x0 }
  - { offset: 0x5727B9, size: 0x8, addend: 0x0, symName: __ZN4juce18OggVorbisNamespaceL36_huff_lengthlist_line_2048x27_class2E, symObjAddr: 0x69048D, symBinAddr: 0x10066EAAD, symSize: 0x0 }
  - { offset: 0x5727D4, size: 0x8, addend: 0x0, symName: __ZN4juce18OggVorbisNamespaceL30_huff_book_line_2048x27_class3E, symObjAddr: 0x74AC88, symBinAddr: 0x100753620, symSize: 0x0 }
  - { offset: 0x5727EF, size: 0x8, addend: 0x0, symName: __ZN4juce18OggVorbisNamespaceL36_huff_lengthlist_line_2048x27_class3E, symObjAddr: 0x690495, symBinAddr: 0x10066EAB5, symSize: 0x0 }
  - { offset: 0x57280A, size: 0x8, addend: 0x0, symName: __ZN4juce18OggVorbisNamespaceL30_huff_book_line_2048x27_class4E, symObjAddr: 0x74ACD0, symBinAddr: 0x100753668, symSize: 0x0 }
  - { offset: 0x572825, size: 0x8, addend: 0x0, symName: __ZN4juce18OggVorbisNamespaceL36_huff_lengthlist_line_2048x27_class4E, symObjAddr: 0x690595, symBinAddr: 0x10066EBB5, symSize: 0x0 }
  - { offset: 0x572840, size: 0x8, addend: 0x0, symName: __ZN4juce18OggVorbisNamespaceL29_huff_book_line_2048x27_0sub0E, symObjAddr: 0x74AD18, symBinAddr: 0x1007536B0, symSize: 0x0 }
  - { offset: 0x57285B, size: 0x8, addend: 0x0, symName: __ZN4juce18OggVorbisNamespaceL35_huff_lengthlist_line_2048x27_0sub0E, symObjAddr: 0x6905D5, symBinAddr: 0x10066EBF5, symSize: 0x0 }
  - { offset: 0x572876, size: 0x8, addend: 0x0, symName: __ZN4juce18OggVorbisNamespaceL29_huff_book_line_2048x27_1sub0E, symObjAddr: 0x74AD60, symBinAddr: 0x1007536F8, symSize: 0x0 }
  - { offset: 0x572891, size: 0x8, addend: 0x0, symName: __ZN4juce18OggVorbisNamespaceL35_huff_lengthlist_line_2048x27_1sub0E, symObjAddr: 0x690655, symBinAddr: 0x10066EC75, symSize: 0x0 }
  - { offset: 0x5728AC, size: 0x8, addend: 0x0, symName: __ZN4juce18OggVorbisNamespaceL29_huff_book_line_2048x27_1sub1E, symObjAddr: 0x74ADA8, symBinAddr: 0x100753740, symSize: 0x0 }
  - { offset: 0x5728C7, size: 0x8, addend: 0x0, symName: __ZN4juce18OggVorbisNamespaceL35_huff_lengthlist_line_2048x27_1sub1E, symObjAddr: 0x690675, symBinAddr: 0x10066EC95, symSize: 0x0 }
  - { offset: 0x5728E2, size: 0x8, addend: 0x0, symName: __ZN4juce18OggVorbisNamespaceL29_huff_book_line_2048x27_2sub0E, symObjAddr: 0x74ADF0, symBinAddr: 0x100753788, symSize: 0x0 }
  - { offset: 0x5728FD, size: 0x8, addend: 0x0, symName: __ZN4juce18OggVorbisNamespaceL35_huff_lengthlist_line_2048x27_2sub0E, symObjAddr: 0x6906F5, symBinAddr: 0x10066ED15, symSize: 0x0 }
  - { offset: 0x572918, size: 0x8, addend: 0x0, symName: __ZN4juce18OggVorbisNamespaceL29_huff_book_line_2048x27_2sub1E, symObjAddr: 0x74AE38, symBinAddr: 0x1007537D0, symSize: 0x0 }
  - { offset: 0x572933, size: 0x8, addend: 0x0, symName: __ZN4juce18OggVorbisNamespaceL35_huff_lengthlist_line_2048x27_2sub1E, symObjAddr: 0x690715, symBinAddr: 0x10066ED35, symSize: 0x0 }
  - { offset: 0x57294E, size: 0x8, addend: 0x0, symName: __ZN4juce18OggVorbisNamespaceL29_huff_book_line_2048x27_3sub1E, symObjAddr: 0x74AE80, symBinAddr: 0x100753818, symSize: 0x0 }
  - { offset: 0x572969, size: 0x8, addend: 0x0, symName: __ZN4juce18OggVorbisNamespaceL35_huff_lengthlist_line_2048x27_3sub1E, symObjAddr: 0x690795, symBinAddr: 0x10066EDB5, symSize: 0x0 }
  - { offset: 0x572984, size: 0x8, addend: 0x0, symName: __ZN4juce18OggVorbisNamespaceL29_huff_book_line_2048x27_3sub2E, symObjAddr: 0x74AEC8, symBinAddr: 0x100753860, symSize: 0x0 }
  - { offset: 0x57299F, size: 0x8, addend: 0x0, symName: __ZN4juce18OggVorbisNamespaceL35_huff_lengthlist_line_2048x27_3sub2E, symObjAddr: 0x6907A7, symBinAddr: 0x10066EDC7, symSize: 0x0 }
  - { offset: 0x5729BA, size: 0x8, addend: 0x0, symName: __ZN4juce18OggVorbisNamespaceL29_huff_book_line_2048x27_3sub3E, symObjAddr: 0x74AF10, symBinAddr: 0x1007538A8, symSize: 0x0 }
  - { offset: 0x5729D5, size: 0x8, addend: 0x0, symName: __ZN4juce18OggVorbisNamespaceL35_huff_lengthlist_line_2048x27_3sub3E, symObjAddr: 0x6907D9, symBinAddr: 0x10066EDF9, symSize: 0x0 }
  - { offset: 0x5729F0, size: 0x8, addend: 0x0, symName: __ZN4juce18OggVorbisNamespaceL29_huff_book_line_2048x27_4sub1E, symObjAddr: 0x74AF58, symBinAddr: 0x1007538F0, symSize: 0x0 }
  - { offset: 0x572A0B, size: 0x8, addend: 0x0, symName: __ZN4juce18OggVorbisNamespaceL35_huff_lengthlist_line_2048x27_4sub1E, symObjAddr: 0x690859, symBinAddr: 0x10066EE79, symSize: 0x0 }
  - { offset: 0x572A26, size: 0x8, addend: 0x0, symName: __ZN4juce18OggVorbisNamespaceL29_huff_book_line_2048x27_4sub2E, symObjAddr: 0x74AFA0, symBinAddr: 0x100753938, symSize: 0x0 }
  - { offset: 0x572A41, size: 0x8, addend: 0x0, symName: __ZN4juce18OggVorbisNamespaceL35_huff_lengthlist_line_2048x27_4sub2E, symObjAddr: 0x69086B, symBinAddr: 0x10066EE8B, symSize: 0x0 }
  - { offset: 0x572A5C, size: 0x8, addend: 0x0, symName: __ZN4juce18OggVorbisNamespaceL29_huff_book_line_2048x27_4sub3E, symObjAddr: 0x74AFE8, symBinAddr: 0x100753980, symSize: 0x0 }
  - { offset: 0x572A77, size: 0x8, addend: 0x0, symName: __ZN4juce18OggVorbisNamespaceL35_huff_lengthlist_line_2048x27_4sub3E, symObjAddr: 0x69089D, symBinAddr: 0x10066EEBD, symSize: 0x0 }
  - { offset: 0x572A90, size: 0x8, addend: 0x0, symName: __ZN4juce18OggVorbisNamespaceL19_floor_512x17_booksE, symObjAddr: 0x7497E8, symBinAddr: 0x100752180, symSize: 0x0 }
  - { offset: 0x572AAB, size: 0x8, addend: 0x0, symName: __ZN4juce18OggVorbisNamespaceL29_huff_book_line_512x17_class1E, symObjAddr: 0x74B030, symBinAddr: 0x1007539C8, symSize: 0x0 }
  - { offset: 0x572AC6, size: 0x8, addend: 0x0, symName: __ZN4juce18OggVorbisNamespaceL35_huff_lengthlist_line_512x17_class1E, symObjAddr: 0x69091D, symBinAddr: 0x10066EF3D, symSize: 0x0 }
  - { offset: 0x572AE1, size: 0x8, addend: 0x0, symName: __ZN4juce18OggVorbisNamespaceL29_huff_book_line_512x17_class2E, symObjAddr: 0x74B078, symBinAddr: 0x100753A10, symSize: 0x0 }
  - { offset: 0x572AFC, size: 0x8, addend: 0x0, symName: __ZN4juce18OggVorbisNamespaceL35_huff_lengthlist_line_512x17_class2E, symObjAddr: 0x690925, symBinAddr: 0x10066EF45, symSize: 0x0 }
  - { offset: 0x572B17, size: 0x8, addend: 0x0, symName: __ZN4juce18OggVorbisNamespaceL29_huff_book_line_512x17_class3E, symObjAddr: 0x74B0C0, symBinAddr: 0x100753A58, symSize: 0x0 }
  - { offset: 0x572B32, size: 0x8, addend: 0x0, symName: __ZN4juce18OggVorbisNamespaceL35_huff_lengthlist_line_512x17_class3E, symObjAddr: 0x690965, symBinAddr: 0x10066EF85, symSize: 0x0 }
  - { offset: 0x572B4B, size: 0x8, addend: 0x0, symName: __ZN4juce18OggVorbisNamespaceL28_huff_book_line_512x17_0sub0E, symObjAddr: 0x74B108, symBinAddr: 0x100753AA0, symSize: 0x0 }
  - { offset: 0x572B64, size: 0x8, addend: 0x0, symName: __ZN4juce18OggVorbisNamespaceL34_huff_lengthlist_line_512x17_0sub0E, symObjAddr: 0x6909A5, symBinAddr: 0x10066EFC5, symSize: 0x0 }
  - { offset: 0x572B7D, size: 0x8, addend: 0x0, symName: __ZN4juce18OggVorbisNamespaceL28_huff_book_line_512x17_1sub0E, symObjAddr: 0x74B150, symBinAddr: 0x100753AE8, symSize: 0x0 }
  - { offset: 0x572B96, size: 0x8, addend: 0x0, symName: __ZN4juce18OggVorbisNamespaceL34_huff_lengthlist_line_512x17_1sub0E, symObjAddr: 0x690A25, symBinAddr: 0x10066F045, symSize: 0x0 }
  - { offset: 0x572BAF, size: 0x8, addend: 0x0, symName: __ZN4juce18OggVorbisNamespaceL28_huff_book_line_512x17_1sub1E, symObjAddr: 0x74B198, symBinAddr: 0x100753B30, symSize: 0x0 }
  - { offset: 0x572BC8, size: 0x8, addend: 0x0, symName: __ZN4juce18OggVorbisNamespaceL34_huff_lengthlist_line_512x17_1sub1E, symObjAddr: 0x690A45, symBinAddr: 0x10066F065, symSize: 0x0 }
  - { offset: 0x572BE1, size: 0x8, addend: 0x0, symName: __ZN4juce18OggVorbisNamespaceL28_huff_book_line_512x17_2sub1E, symObjAddr: 0x74B1E0, symBinAddr: 0x100753B78, symSize: 0x0 }
  - { offset: 0x572BFA, size: 0x8, addend: 0x0, symName: __ZN4juce18OggVorbisNamespaceL34_huff_lengthlist_line_512x17_2sub1E, symObjAddr: 0x690AC5, symBinAddr: 0x10066F0E5, symSize: 0x0 }
  - { offset: 0x572C13, size: 0x8, addend: 0x0, symName: __ZN4juce18OggVorbisNamespaceL28_huff_book_line_512x17_2sub2E, symObjAddr: 0x74B228, symBinAddr: 0x100753BC0, symSize: 0x0 }
  - { offset: 0x572C2C, size: 0x8, addend: 0x0, symName: __ZN4juce18OggVorbisNamespaceL34_huff_lengthlist_line_512x17_2sub2E, symObjAddr: 0x690AD7, symBinAddr: 0x10066F0F7, symSize: 0x0 }
  - { offset: 0x572C45, size: 0x8, addend: 0x0, symName: __ZN4juce18OggVorbisNamespaceL28_huff_book_line_512x17_2sub3E, symObjAddr: 0x74B270, symBinAddr: 0x100753C08, symSize: 0x0 }
  - { offset: 0x572C5E, size: 0x8, addend: 0x0, symName: __ZN4juce18OggVorbisNamespaceL34_huff_lengthlist_line_512x17_2sub3E, symObjAddr: 0x690B09, symBinAddr: 0x10066F129, symSize: 0x0 }
  - { offset: 0x572C77, size: 0x8, addend: 0x0, symName: __ZN4juce18OggVorbisNamespaceL28_huff_book_line_512x17_3sub1E, symObjAddr: 0x74B2B8, symBinAddr: 0x100753C50, symSize: 0x0 }
  - { offset: 0x572C90, size: 0x8, addend: 0x0, symName: __ZN4juce18OggVorbisNamespaceL34_huff_lengthlist_line_512x17_3sub1E, symObjAddr: 0x690B89, symBinAddr: 0x10066F1A9, symSize: 0x0 }
  - { offset: 0x572CAB, size: 0x8, addend: 0x0, symName: __ZN4juce18OggVorbisNamespaceL28_huff_book_line_512x17_3sub2E, symObjAddr: 0x74B300, symBinAddr: 0x100753C98, symSize: 0x0 }
  - { offset: 0x572CC4, size: 0x8, addend: 0x0, symName: __ZN4juce18OggVorbisNamespaceL34_huff_lengthlist_line_512x17_3sub2E, symObjAddr: 0x690B9B, symBinAddr: 0x10066F1BB, symSize: 0x0 }
  - { offset: 0x572CDF, size: 0x8, addend: 0x0, symName: __ZN4juce18OggVorbisNamespaceL28_huff_book_line_512x17_3sub3E, symObjAddr: 0x74B348, symBinAddr: 0x100753CE0, symSize: 0x0 }
  - { offset: 0x572CFA, size: 0x8, addend: 0x0, symName: __ZN4juce18OggVorbisNamespaceL34_huff_lengthlist_line_512x17_3sub3E, symObjAddr: 0x690BCD, symBinAddr: 0x10066F1ED, symSize: 0x0 }
  - { offset: 0x572D13, size: 0x8, addend: 0x0, symName: __ZN4juce18OggVorbisNamespaceL16_floor_Xx0_booksE, symObjAddr: 0x68F138, symBinAddr: 0x10066D758, symSize: 0x0 }
  - { offset: 0x572D2C, size: 0x8, addend: 0x0, symName: __ZN4juce18OggVorbisNamespaceL6_floorE, symObjAddr: 0x690C50, symBinAddr: 0x10066F270, symSize: 0x0 }
  - { offset: 0x572D45, size: 0x8, addend: 0x0, symName: __ZN4juce18OggVorbisNamespaceL17_floor_mapping_44E, symObjAddr: 0x77A428, symBinAddr: 0x1007825C8, symSize: 0x0 }
  - { offset: 0x572D5E, size: 0x8, addend: 0x0, symName: __ZN4juce18OggVorbisNamespaceL18_floor_mapping_44aE, symObjAddr: 0x693C70, symBinAddr: 0x100672290, symSize: 0x0 }
  - { offset: 0x572D77, size: 0x8, addend: 0x0, symName: __ZN4juce18OggVorbisNamespaceL18_floor_mapping_44bE, symObjAddr: 0x693C9C, symBinAddr: 0x1006722BC, symSize: 0x0 }
  - { offset: 0x572D90, size: 0x8, addend: 0x0, symName: __ZN4juce18OggVorbisNamespaceL18_floor_mapping_44cE, symObjAddr: 0x693CC8, symBinAddr: 0x1006722E8, symSize: 0x0 }
  - { offset: 0x572DAB, size: 0x8, addend: 0x0, symName: __ZN4juce18OggVorbisNamespaceL26_mapres_template_44_stereoE, symObjAddr: 0x749490, symBinAddr: 0x100751E28, symSize: 0x0 }
  - { offset: 0x572DC4, size: 0x8, addend: 0x0, symName: __ZN4juce18OggVorbisNamespaceL12_map_nominalE, symObjAddr: 0x693CF4, symBinAddr: 0x100672314, symSize: 0x0 }
  - { offset: 0x572DDD, size: 0x8, addend: 0x0, symName: __ZN4juce18OggVorbisNamespaceL11_res_44s_n1E, symObjAddr: 0x74B390, symBinAddr: 0x100753D28, symSize: 0x0 }
  - { offset: 0x572DF6, size: 0x8, addend: 0x0, symName: __ZN4juce18OggVorbisNamespaceL15_residue_44_lowE, symObjAddr: 0x695608, symBinAddr: 0x100673C28, symSize: 0x0 }
  - { offset: 0x572E11, size: 0x8, addend: 0x0, symName: __ZN4juce18OggVorbisNamespaceL25_huff_book__44cn1_s_shortE, symObjAddr: 0x74B860, symBinAddr: 0x1007541F8, symSize: 0x0 }
  - { offset: 0x572E2C, size: 0x8, addend: 0x0, symName: __ZN4juce18OggVorbisNamespaceL31_huff_lengthlist__44cn1_s_shortE, symObjAddr: 0x696128, symBinAddr: 0x100674748, symSize: 0x0 }
  - { offset: 0x572E47, size: 0x8, addend: 0x0, symName: __ZN4juce18OggVorbisNamespaceL26_huff_book__44cn1_sm_shortE, symObjAddr: 0x74B8A8, symBinAddr: 0x100754240, symSize: 0x0 }
  - { offset: 0x572E62, size: 0x8, addend: 0x0, symName: __ZN4juce18OggVorbisNamespaceL32_huff_lengthlist__44cn1_sm_shortE, symObjAddr: 0x696179, symBinAddr: 0x100674799, symSize: 0x0 }
  - { offset: 0x572E7B, size: 0x8, addend: 0x0, symName: __ZN4juce18OggVorbisNamespaceL15_resbook_44s_n1E, symObjAddr: 0x74B8F0, symBinAddr: 0x100754288, symSize: 0x0 }
  - { offset: 0x572E96, size: 0x8, addend: 0x0, symName: __ZN4juce18OggVorbisNamespaceL13_44cn1_s_p1_0E, symObjAddr: 0x74BC80, symBinAddr: 0x100754618, symSize: 0x0 }
  - { offset: 0x572EB1, size: 0x8, addend: 0x0, symName: __ZN4juce18OggVorbisNamespaceL28_vq_lengthlist__44cn1_s_p1_0E, symObjAddr: 0x6961E8, symBinAddr: 0x100674808, symSize: 0x0 }
  - { offset: 0x572ECC, size: 0x8, addend: 0x0, symName: __ZN4juce18OggVorbisNamespaceL27_vq_quantlist__44cn1_s_p1_0E, symObjAddr: 0x6961D0, symBinAddr: 0x1006747F0, symSize: 0x0 }
  - { offset: 0x572EE7, size: 0x8, addend: 0x0, symName: __ZN4juce18OggVorbisNamespaceL13_44cn1_s_p2_0E, symObjAddr: 0x74BCC8, symBinAddr: 0x100754660, symSize: 0x0 }
  - { offset: 0x572F02, size: 0x8, addend: 0x0, symName: __ZN4juce18OggVorbisNamespaceL28_vq_lengthlist__44cn1_s_p2_0E, symObjAddr: 0x697BB8, symBinAddr: 0x1006761D8, symSize: 0x0 }
  - { offset: 0x572F1D, size: 0x8, addend: 0x0, symName: __ZN4juce18OggVorbisNamespaceL27_vq_quantlist__44cn1_s_p2_0E, symObjAddr: 0x697B90, symBinAddr: 0x1006761B0, symSize: 0x0 }
  - { offset: 0x572F38, size: 0x8, addend: 0x0, symName: __ZN4juce18OggVorbisNamespaceL13_44cn1_s_p3_0E, symObjAddr: 0x74BD10, symBinAddr: 0x1007546A8, symSize: 0x0 }
  - { offset: 0x572F53, size: 0x8, addend: 0x0, symName: __ZN4juce18OggVorbisNamespaceL28_vq_lengthlist__44cn1_s_p3_0E, symObjAddr: 0x697E78, symBinAddr: 0x100676498, symSize: 0x0 }
  - { offset: 0x572F6E, size: 0x8, addend: 0x0, symName: __ZN4juce18OggVorbisNamespaceL27_vq_quantlist__44cn1_s_p3_0E, symObjAddr: 0x697E30, symBinAddr: 0x100676450, symSize: 0x0 }
  - { offset: 0x572F89, size: 0x8, addend: 0x0, symName: __ZN4juce18OggVorbisNamespaceL13_44cn1_s_p4_0E, symObjAddr: 0x74BD58, symBinAddr: 0x1007546F0, symSize: 0x0 }
  - { offset: 0x572FA4, size: 0x8, addend: 0x0, symName: __ZN4juce18OggVorbisNamespaceL28_vq_lengthlist__44cn1_s_p4_0E, symObjAddr: 0x697EC9, symBinAddr: 0x1006764E9, symSize: 0x0 }
  - { offset: 0x572FBF, size: 0x8, addend: 0x0, symName: __ZN4juce18OggVorbisNamespaceL27_vq_quantlist__44cn1_s_p4_0E, symObjAddr: 0x697F20, symBinAddr: 0x100676540, symSize: 0x0 }
  - { offset: 0x572FDA, size: 0x8, addend: 0x0, symName: __ZN4juce18OggVorbisNamespaceL13_44cn1_s_p5_0E, symObjAddr: 0x74BDA0, symBinAddr: 0x100754738, symSize: 0x0 }
  - { offset: 0x572FF5, size: 0x8, addend: 0x0, symName: __ZN4juce18OggVorbisNamespaceL28_vq_lengthlist__44cn1_s_p5_0E, symObjAddr: 0x697F68, symBinAddr: 0x100676588, symSize: 0x0 }
  - { offset: 0x573010, size: 0x8, addend: 0x0, symName: __ZN4juce18OggVorbisNamespaceL27_vq_quantlist__44cn1_s_p5_0E, symObjAddr: 0x698090, symBinAddr: 0x1006766B0, symSize: 0x0 }
  - { offset: 0x57302B, size: 0x8, addend: 0x0, symName: __ZN4juce18OggVorbisNamespaceL13_44cn1_s_p6_0E, symObjAddr: 0x74BDE8, symBinAddr: 0x100754780, symSize: 0x0 }
  - { offset: 0x573046, size: 0x8, addend: 0x0, symName: __ZN4juce18OggVorbisNamespaceL28_vq_lengthlist__44cn1_s_p6_0E, symObjAddr: 0x698118, symBinAddr: 0x100676738, symSize: 0x0 }
  - { offset: 0x573061, size: 0x8, addend: 0x0, symName: __ZN4juce18OggVorbisNamespaceL27_vq_quantlist__44cn1_s_p6_0E, symObjAddr: 0x698170, symBinAddr: 0x100676790, symSize: 0x0 }
  - { offset: 0x57307C, size: 0x8, addend: 0x0, symName: __ZN4juce18OggVorbisNamespaceL13_44cn1_s_p6_1E, symObjAddr: 0x74BE30, symBinAddr: 0x1007547C8, symSize: 0x0 }
  - { offset: 0x573097, size: 0x8, addend: 0x0, symName: __ZN4juce18OggVorbisNamespaceL28_vq_lengthlist__44cn1_s_p6_1E, symObjAddr: 0x698188, symBinAddr: 0x1006767A8, symSize: 0x0 }
  - { offset: 0x5730B2, size: 0x8, addend: 0x0, symName: __ZN4juce18OggVorbisNamespaceL27_vq_quantlist__44cn1_s_p6_1E, symObjAddr: 0x698208, symBinAddr: 0x100676828, symSize: 0x0 }
  - { offset: 0x5730CD, size: 0x8, addend: 0x0, symName: __ZN4juce18OggVorbisNamespaceL13_44cn1_s_p7_0E, symObjAddr: 0x74BE78, symBinAddr: 0x100754810, symSize: 0x0 }
  - { offset: 0x5730E8, size: 0x8, addend: 0x0, symName: __ZN4juce18OggVorbisNamespaceL28_vq_lengthlist__44cn1_s_p7_0E, symObjAddr: 0x698260, symBinAddr: 0x100676880, symSize: 0x0 }
  - { offset: 0x573103, size: 0x8, addend: 0x0, symName: __ZN4juce18OggVorbisNamespaceL27_vq_quantlist__44cn1_s_p7_0E, symObjAddr: 0x698310, symBinAddr: 0x100676930, symSize: 0x0 }
  - { offset: 0x57311E, size: 0x8, addend: 0x0, symName: __ZN4juce18OggVorbisNamespaceL13_44cn1_s_p7_1E, symObjAddr: 0x74BEC0, symBinAddr: 0x100754858, symSize: 0x0 }
  - { offset: 0x573139, size: 0x8, addend: 0x0, symName: __ZN4juce18OggVorbisNamespaceL28_vq_lengthlist__44cn1_s_p7_1E, symObjAddr: 0x698378, symBinAddr: 0x100676998, symSize: 0x0 }
  - { offset: 0x573154, size: 0x8, addend: 0x0, symName: __ZN4juce18OggVorbisNamespaceL27_vq_quantlist__44cn1_s_p7_1E, symObjAddr: 0x698398, symBinAddr: 0x1006769B8, symSize: 0x0 }
  - { offset: 0x57316F, size: 0x8, addend: 0x0, symName: __ZN4juce18OggVorbisNamespaceL13_44cn1_s_p8_0E, symObjAddr: 0x74BF08, symBinAddr: 0x1007548A0, symSize: 0x0 }
  - { offset: 0x57318A, size: 0x8, addend: 0x0, symName: __ZN4juce18OggVorbisNamespaceL28_vq_lengthlist__44cn1_s_p8_0E, symObjAddr: 0x6983C0, symBinAddr: 0x1006769E0, symSize: 0x0 }
  - { offset: 0x5731A5, size: 0x8, addend: 0x0, symName: __ZN4juce18OggVorbisNamespaceL27_vq_quantlist__44cn1_s_p8_0E, symObjAddr: 0x698638, symBinAddr: 0x100676C58, symSize: 0x0 }
  - { offset: 0x5731C0, size: 0x8, addend: 0x0, symName: __ZN4juce18OggVorbisNamespaceL13_44cn1_s_p8_1E, symObjAddr: 0x74BF50, symBinAddr: 0x1007548E8, symSize: 0x0 }
  - { offset: 0x5731DB, size: 0x8, addend: 0x0, symName: __ZN4juce18OggVorbisNamespaceL28_vq_lengthlist__44cn1_s_p8_1E, symObjAddr: 0x698660, symBinAddr: 0x100676C80, symSize: 0x0 }
  - { offset: 0x5731F6, size: 0x8, addend: 0x0, symName: __ZN4juce18OggVorbisNamespaceL27_vq_quantlist__44cn1_s_p8_1E, symObjAddr: 0x698710, symBinAddr: 0x100676D30, symSize: 0x0 }
  - { offset: 0x573211, size: 0x8, addend: 0x0, symName: __ZN4juce18OggVorbisNamespaceL13_44cn1_s_p8_2E, symObjAddr: 0x74BF98, symBinAddr: 0x100754930, symSize: 0x0 }
  - { offset: 0x57322C, size: 0x8, addend: 0x0, symName: __ZN4juce18OggVorbisNamespaceL28_vq_lengthlist__44cn1_s_p8_2E, symObjAddr: 0x698778, symBinAddr: 0x100676D98, symSize: 0x0 }
  - { offset: 0x573247, size: 0x8, addend: 0x0, symName: __ZN4juce18OggVorbisNamespaceL27_vq_quantlist__44cn1_s_p8_2E, symObjAddr: 0x6988A0, symBinAddr: 0x100676EC0, symSize: 0x0 }
  - { offset: 0x573260, size: 0x8, addend: 0x0, symName: __ZN4juce18OggVorbisNamespaceL16_resbook_44sm_n1E, symObjAddr: 0x74BA70, symBinAddr: 0x100754408, symSize: 0x0 }
  - { offset: 0x57327B, size: 0x8, addend: 0x0, symName: __ZN4juce18OggVorbisNamespaceL14_44cn1_sm_p1_0E, symObjAddr: 0x74BFE0, symBinAddr: 0x100754978, symSize: 0x0 }
  - { offset: 0x573296, size: 0x8, addend: 0x0, symName: __ZN4juce18OggVorbisNamespaceL29_vq_lengthlist__44cn1_sm_p1_0E, symObjAddr: 0x698940, symBinAddr: 0x100676F60, symSize: 0x0 }
  - { offset: 0x5732B1, size: 0x8, addend: 0x0, symName: __ZN4juce18OggVorbisNamespaceL28_vq_quantlist__44cn1_sm_p1_0E, symObjAddr: 0x698928, symBinAddr: 0x100676F48, symSize: 0x0 }
  - { offset: 0x5732CC, size: 0x8, addend: 0x0, symName: __ZN4juce18OggVorbisNamespaceL14_44cn1_sm_p2_0E, symObjAddr: 0x74C028, symBinAddr: 0x1007549C0, symSize: 0x0 }
  - { offset: 0x5732E7, size: 0x8, addend: 0x0, symName: __ZN4juce18OggVorbisNamespaceL29_vq_lengthlist__44cn1_sm_p2_0E, symObjAddr: 0x69A310, symBinAddr: 0x100678930, symSize: 0x0 }
  - { offset: 0x573302, size: 0x8, addend: 0x0, symName: __ZN4juce18OggVorbisNamespaceL28_vq_quantlist__44cn1_sm_p2_0E, symObjAddr: 0x69A2E8, symBinAddr: 0x100678908, symSize: 0x0 }
  - { offset: 0x57331D, size: 0x8, addend: 0x0, symName: __ZN4juce18OggVorbisNamespaceL14_44cn1_sm_p3_0E, symObjAddr: 0x74C070, symBinAddr: 0x100754A08, symSize: 0x0 }
  - { offset: 0x573338, size: 0x8, addend: 0x0, symName: __ZN4juce18OggVorbisNamespaceL29_vq_lengthlist__44cn1_sm_p3_0E, symObjAddr: 0x69A5D0, symBinAddr: 0x100678BF0, symSize: 0x0 }
  - { offset: 0x573353, size: 0x8, addend: 0x0, symName: __ZN4juce18OggVorbisNamespaceL28_vq_quantlist__44cn1_sm_p3_0E, symObjAddr: 0x69A588, symBinAddr: 0x100678BA8, symSize: 0x0 }
  - { offset: 0x57336E, size: 0x8, addend: 0x0, symName: __ZN4juce18OggVorbisNamespaceL14_44cn1_sm_p4_0E, symObjAddr: 0x74C0B8, symBinAddr: 0x100754A50, symSize: 0x0 }
  - { offset: 0x573389, size: 0x8, addend: 0x0, symName: __ZN4juce18OggVorbisNamespaceL29_vq_lengthlist__44cn1_sm_p4_0E, symObjAddr: 0x69A621, symBinAddr: 0x100678C41, symSize: 0x0 }
  - { offset: 0x5733A4, size: 0x8, addend: 0x0, symName: __ZN4juce18OggVorbisNamespaceL28_vq_quantlist__44cn1_sm_p4_0E, symObjAddr: 0x69A678, symBinAddr: 0x100678C98, symSize: 0x0 }
  - { offset: 0x5733BF, size: 0x8, addend: 0x0, symName: __ZN4juce18OggVorbisNamespaceL14_44cn1_sm_p5_0E, symObjAddr: 0x74C100, symBinAddr: 0x100754A98, symSize: 0x0 }
  - { offset: 0x5733DA, size: 0x8, addend: 0x0, symName: __ZN4juce18OggVorbisNamespaceL29_vq_lengthlist__44cn1_sm_p5_0E, symObjAddr: 0x69A6C0, symBinAddr: 0x100678CE0, symSize: 0x0 }
  - { offset: 0x5733F5, size: 0x8, addend: 0x0, symName: __ZN4juce18OggVorbisNamespaceL28_vq_quantlist__44cn1_sm_p5_0E, symObjAddr: 0x69A7E8, symBinAddr: 0x100678E08, symSize: 0x0 }
  - { offset: 0x573410, size: 0x8, addend: 0x0, symName: __ZN4juce18OggVorbisNamespaceL14_44cn1_sm_p6_0E, symObjAddr: 0x74C148, symBinAddr: 0x100754AE0, symSize: 0x0 }
  - { offset: 0x57342B, size: 0x8, addend: 0x0, symName: __ZN4juce18OggVorbisNamespaceL29_vq_lengthlist__44cn1_sm_p6_0E, symObjAddr: 0x69A870, symBinAddr: 0x100678E90, symSize: 0x0 }
  - { offset: 0x573446, size: 0x8, addend: 0x0, symName: __ZN4juce18OggVorbisNamespaceL28_vq_quantlist__44cn1_sm_p6_0E, symObjAddr: 0x69A8C8, symBinAddr: 0x100678EE8, symSize: 0x0 }
  - { offset: 0x573461, size: 0x8, addend: 0x0, symName: __ZN4juce18OggVorbisNamespaceL14_44cn1_sm_p6_1E, symObjAddr: 0x74C190, symBinAddr: 0x100754B28, symSize: 0x0 }
  - { offset: 0x57347C, size: 0x8, addend: 0x0, symName: __ZN4juce18OggVorbisNamespaceL29_vq_lengthlist__44cn1_sm_p6_1E, symObjAddr: 0x69A8E0, symBinAddr: 0x100678F00, symSize: 0x0 }
  - { offset: 0x573497, size: 0x8, addend: 0x0, symName: __ZN4juce18OggVorbisNamespaceL28_vq_quantlist__44cn1_sm_p6_1E, symObjAddr: 0x69A960, symBinAddr: 0x100678F80, symSize: 0x0 }
  - { offset: 0x5734B2, size: 0x8, addend: 0x0, symName: __ZN4juce18OggVorbisNamespaceL14_44cn1_sm_p7_0E, symObjAddr: 0x74C1D8, symBinAddr: 0x100754B70, symSize: 0x0 }
  - { offset: 0x5734CD, size: 0x8, addend: 0x0, symName: __ZN4juce18OggVorbisNamespaceL29_vq_lengthlist__44cn1_sm_p7_0E, symObjAddr: 0x69A9B8, symBinAddr: 0x100678FD8, symSize: 0x0 }
  - { offset: 0x5734E8, size: 0x8, addend: 0x0, symName: __ZN4juce18OggVorbisNamespaceL28_vq_quantlist__44cn1_sm_p7_0E, symObjAddr: 0x69AA68, symBinAddr: 0x100679088, symSize: 0x0 }
  - { offset: 0x573503, size: 0x8, addend: 0x0, symName: __ZN4juce18OggVorbisNamespaceL14_44cn1_sm_p7_1E, symObjAddr: 0x74C220, symBinAddr: 0x100754BB8, symSize: 0x0 }
  - { offset: 0x57351E, size: 0x8, addend: 0x0, symName: __ZN4juce18OggVorbisNamespaceL29_vq_lengthlist__44cn1_sm_p7_1E, symObjAddr: 0x69AAD0, symBinAddr: 0x1006790F0, symSize: 0x0 }
  - { offset: 0x573539, size: 0x8, addend: 0x0, symName: __ZN4juce18OggVorbisNamespaceL28_vq_quantlist__44cn1_sm_p7_1E, symObjAddr: 0x69AAF0, symBinAddr: 0x100679110, symSize: 0x0 }
  - { offset: 0x573554, size: 0x8, addend: 0x0, symName: __ZN4juce18OggVorbisNamespaceL14_44cn1_sm_p8_0E, symObjAddr: 0x74C268, symBinAddr: 0x100754C00, symSize: 0x0 }
  - { offset: 0x57356F, size: 0x8, addend: 0x0, symName: __ZN4juce18OggVorbisNamespaceL29_vq_lengthlist__44cn1_sm_p8_0E, symObjAddr: 0x69AB18, symBinAddr: 0x100679138, symSize: 0x0 }
  - { offset: 0x57358A, size: 0x8, addend: 0x0, symName: __ZN4juce18OggVorbisNamespaceL28_vq_quantlist__44cn1_sm_p8_0E, symObjAddr: 0x69AB70, symBinAddr: 0x100679190, symSize: 0x0 }
  - { offset: 0x5735A5, size: 0x8, addend: 0x0, symName: __ZN4juce18OggVorbisNamespaceL14_44cn1_sm_p8_1E, symObjAddr: 0x74C2B0, symBinAddr: 0x100754C48, symSize: 0x0 }
  - { offset: 0x5735C0, size: 0x8, addend: 0x0, symName: __ZN4juce18OggVorbisNamespaceL29_vq_lengthlist__44cn1_sm_p8_1E, symObjAddr: 0x69ABB8, symBinAddr: 0x1006791D8, symSize: 0x0 }
  - { offset: 0x5735DB, size: 0x8, addend: 0x0, symName: __ZN4juce18OggVorbisNamespaceL28_vq_quantlist__44cn1_sm_p8_1E, symObjAddr: 0x69AC68, symBinAddr: 0x100679288, symSize: 0x0 }
  - { offset: 0x5735F6, size: 0x8, addend: 0x0, symName: __ZN4juce18OggVorbisNamespaceL14_44cn1_sm_p8_2E, symObjAddr: 0x74C2F8, symBinAddr: 0x100754C90, symSize: 0x0 }
  - { offset: 0x573611, size: 0x8, addend: 0x0, symName: __ZN4juce18OggVorbisNamespaceL29_vq_lengthlist__44cn1_sm_p8_2E, symObjAddr: 0x69ACD0, symBinAddr: 0x1006792F0, symSize: 0x0 }
  - { offset: 0x57362C, size: 0x8, addend: 0x0, symName: __ZN4juce18OggVorbisNamespaceL28_vq_quantlist__44cn1_sm_p8_2E, symObjAddr: 0x69ADF8, symBinAddr: 0x100679418, symSize: 0x0 }
  - { offset: 0x573647, size: 0x8, addend: 0x0, symName: __ZN4juce18OggVorbisNamespaceL24_huff_book__44cn1_s_longE, symObjAddr: 0x74BBF0, symBinAddr: 0x100754588, symSize: 0x0 }
  - { offset: 0x573662, size: 0x8, addend: 0x0, symName: __ZN4juce18OggVorbisNamespaceL30_huff_lengthlist__44cn1_s_longE, symObjAddr: 0x69AE80, symBinAddr: 0x1006794A0, symSize: 0x0 }
  - { offset: 0x57367D, size: 0x8, addend: 0x0, symName: __ZN4juce18OggVorbisNamespaceL25_huff_book__44cn1_sm_longE, symObjAddr: 0x74BC38, symBinAddr: 0x1007545D0, symSize: 0x0 }
  - { offset: 0x573698, size: 0x8, addend: 0x0, symName: __ZN4juce18OggVorbisNamespaceL31_huff_lengthlist__44cn1_sm_longE, symObjAddr: 0x69AED1, symBinAddr: 0x1006794F1, symSize: 0x0 }
  - { offset: 0x5736B1, size: 0x8, addend: 0x0, symName: __ZN4juce18OggVorbisNamespaceL10_res_44s_0E, symObjAddr: 0x74B400, symBinAddr: 0x100753D98, symSize: 0x0 }
  - { offset: 0x5736CC, size: 0x8, addend: 0x0, symName: __ZN4juce18OggVorbisNamespaceL24_huff_book__44c0_s_shortE, symObjAddr: 0x74C340, symBinAddr: 0x100754CD8, symSize: 0x0 }
  - { offset: 0x5736E7, size: 0x8, addend: 0x0, symName: __ZN4juce18OggVorbisNamespaceL30_huff_lengthlist__44c0_s_shortE, symObjAddr: 0x69AF22, symBinAddr: 0x100679542, symSize: 0x0 }
  - { offset: 0x573702, size: 0x8, addend: 0x0, symName: __ZN4juce18OggVorbisNamespaceL25_huff_book__44c0_sm_shortE, symObjAddr: 0x74C388, symBinAddr: 0x100754D20, symSize: 0x0 }
  - { offset: 0x57371D, size: 0x8, addend: 0x0, symName: __ZN4juce18OggVorbisNamespaceL31_huff_lengthlist__44c0_sm_shortE, symObjAddr: 0x69AF73, symBinAddr: 0x100679593, symSize: 0x0 }
  - { offset: 0x573736, size: 0x8, addend: 0x0, symName: __ZN4juce18OggVorbisNamespaceL14_resbook_44s_0E, symObjAddr: 0x74C3D0, symBinAddr: 0x100754D68, symSize: 0x0 }
  - { offset: 0x573751, size: 0x8, addend: 0x0, symName: __ZN4juce18OggVorbisNamespaceL12_44c0_s_p1_0E, symObjAddr: 0x74C760, symBinAddr: 0x1007550F8, symSize: 0x0 }
  - { offset: 0x57376C, size: 0x8, addend: 0x0, symName: __ZN4juce18OggVorbisNamespaceL27_vq_lengthlist__44c0_s_p1_0E, symObjAddr: 0x69AFE0, symBinAddr: 0x100679600, symSize: 0x0 }
  - { offset: 0x573787, size: 0x8, addend: 0x0, symName: __ZN4juce18OggVorbisNamespaceL26_vq_quantlist__44c0_s_p1_0E, symObjAddr: 0x69AFC8, symBinAddr: 0x1006795E8, symSize: 0x0 }
  - { offset: 0x5737A2, size: 0x8, addend: 0x0, symName: __ZN4juce18OggVorbisNamespaceL12_44c0_s_p2_0E, symObjAddr: 0x74C7A8, symBinAddr: 0x100755140, symSize: 0x0 }
  - { offset: 0x5737BD, size: 0x8, addend: 0x0, symName: __ZN4juce18OggVorbisNamespaceL27_vq_lengthlist__44c0_s_p2_0E, symObjAddr: 0x69C9B0, symBinAddr: 0x10067AFD0, symSize: 0x0 }
  - { offset: 0x5737D8, size: 0x8, addend: 0x0, symName: __ZN4juce18OggVorbisNamespaceL26_vq_quantlist__44c0_s_p2_0E, symObjAddr: 0x69C988, symBinAddr: 0x10067AFA8, symSize: 0x0 }
  - { offset: 0x5737F3, size: 0x8, addend: 0x0, symName: __ZN4juce18OggVorbisNamespaceL12_44c0_s_p3_0E, symObjAddr: 0x74C7F0, symBinAddr: 0x100755188, symSize: 0x0 }
  - { offset: 0x57380E, size: 0x8, addend: 0x0, symName: __ZN4juce18OggVorbisNamespaceL27_vq_lengthlist__44c0_s_p3_0E, symObjAddr: 0x69CC70, symBinAddr: 0x10067B290, symSize: 0x0 }
  - { offset: 0x573829, size: 0x8, addend: 0x0, symName: __ZN4juce18OggVorbisNamespaceL26_vq_quantlist__44c0_s_p3_0E, symObjAddr: 0x69CC28, symBinAddr: 0x10067B248, symSize: 0x0 }
  - { offset: 0x573844, size: 0x8, addend: 0x0, symName: __ZN4juce18OggVorbisNamespaceL12_44c0_s_p4_0E, symObjAddr: 0x74C838, symBinAddr: 0x1007551D0, symSize: 0x0 }
  - { offset: 0x57385F, size: 0x8, addend: 0x0, symName: __ZN4juce18OggVorbisNamespaceL27_vq_lengthlist__44c0_s_p4_0E, symObjAddr: 0x69CCC1, symBinAddr: 0x10067B2E1, symSize: 0x0 }
  - { offset: 0x57387A, size: 0x8, addend: 0x0, symName: __ZN4juce18OggVorbisNamespaceL26_vq_quantlist__44c0_s_p4_0E, symObjAddr: 0x69CD18, symBinAddr: 0x10067B338, symSize: 0x0 }
  - { offset: 0x573895, size: 0x8, addend: 0x0, symName: __ZN4juce18OggVorbisNamespaceL12_44c0_s_p5_0E, symObjAddr: 0x74C880, symBinAddr: 0x100755218, symSize: 0x0 }
  - { offset: 0x5738B0, size: 0x8, addend: 0x0, symName: __ZN4juce18OggVorbisNamespaceL27_vq_lengthlist__44c0_s_p5_0E, symObjAddr: 0x69CD60, symBinAddr: 0x10067B380, symSize: 0x0 }
  - { offset: 0x5738CB, size: 0x8, addend: 0x0, symName: __ZN4juce18OggVorbisNamespaceL26_vq_quantlist__44c0_s_p5_0E, symObjAddr: 0x69CE88, symBinAddr: 0x10067B4A8, symSize: 0x0 }
  - { offset: 0x5738E6, size: 0x8, addend: 0x0, symName: __ZN4juce18OggVorbisNamespaceL12_44c0_s_p6_0E, symObjAddr: 0x74C8C8, symBinAddr: 0x100755260, symSize: 0x0 }
  - { offset: 0x573901, size: 0x8, addend: 0x0, symName: __ZN4juce18OggVorbisNamespaceL27_vq_lengthlist__44c0_s_p6_0E, symObjAddr: 0x69CF10, symBinAddr: 0x10067B530, symSize: 0x0 }
  - { offset: 0x57391C, size: 0x8, addend: 0x0, symName: __ZN4juce18OggVorbisNamespaceL26_vq_quantlist__44c0_s_p6_0E, symObjAddr: 0x69CF68, symBinAddr: 0x10067B588, symSize: 0x0 }
  - { offset: 0x573937, size: 0x8, addend: 0x0, symName: __ZN4juce18OggVorbisNamespaceL12_44c0_s_p6_1E, symObjAddr: 0x74C910, symBinAddr: 0x1007552A8, symSize: 0x0 }
  - { offset: 0x573952, size: 0x8, addend: 0x0, symName: __ZN4juce18OggVorbisNamespaceL27_vq_lengthlist__44c0_s_p6_1E, symObjAddr: 0x69CF80, symBinAddr: 0x10067B5A0, symSize: 0x0 }
  - { offset: 0x57396D, size: 0x8, addend: 0x0, symName: __ZN4juce18OggVorbisNamespaceL26_vq_quantlist__44c0_s_p6_1E, symObjAddr: 0x69D000, symBinAddr: 0x10067B620, symSize: 0x0 }
  - { offset: 0x573988, size: 0x8, addend: 0x0, symName: __ZN4juce18OggVorbisNamespaceL12_44c0_s_p7_0E, symObjAddr: 0x74C958, symBinAddr: 0x1007552F0, symSize: 0x0 }
  - { offset: 0x5739A3, size: 0x8, addend: 0x0, symName: __ZN4juce18OggVorbisNamespaceL27_vq_lengthlist__44c0_s_p7_0E, symObjAddr: 0x69D058, symBinAddr: 0x10067B678, symSize: 0x0 }
  - { offset: 0x5739BE, size: 0x8, addend: 0x0, symName: __ZN4juce18OggVorbisNamespaceL26_vq_quantlist__44c0_s_p7_0E, symObjAddr: 0x69D108, symBinAddr: 0x10067B728, symSize: 0x0 }
  - { offset: 0x5739D9, size: 0x8, addend: 0x0, symName: __ZN4juce18OggVorbisNamespaceL12_44c0_s_p7_1E, symObjAddr: 0x74C9A0, symBinAddr: 0x100755338, symSize: 0x0 }
  - { offset: 0x5739F4, size: 0x8, addend: 0x0, symName: __ZN4juce18OggVorbisNamespaceL27_vq_lengthlist__44c0_s_p7_1E, symObjAddr: 0x69D170, symBinAddr: 0x10067B790, symSize: 0x0 }
  - { offset: 0x573A0F, size: 0x8, addend: 0x0, symName: __ZN4juce18OggVorbisNamespaceL26_vq_quantlist__44c0_s_p7_1E, symObjAddr: 0x69D190, symBinAddr: 0x10067B7B0, symSize: 0x0 }
  - { offset: 0x573A2A, size: 0x8, addend: 0x0, symName: __ZN4juce18OggVorbisNamespaceL12_44c0_s_p8_0E, symObjAddr: 0x74C9E8, symBinAddr: 0x100755380, symSize: 0x0 }
  - { offset: 0x573A45, size: 0x8, addend: 0x0, symName: __ZN4juce18OggVorbisNamespaceL27_vq_lengthlist__44c0_s_p8_0E, symObjAddr: 0x69D1B8, symBinAddr: 0x10067B7D8, symSize: 0x0 }
  - { offset: 0x573A60, size: 0x8, addend: 0x0, symName: __ZN4juce18OggVorbisNamespaceL26_vq_quantlist__44c0_s_p8_0E, symObjAddr: 0x69D430, symBinAddr: 0x10067BA50, symSize: 0x0 }
  - { offset: 0x573A7B, size: 0x8, addend: 0x0, symName: __ZN4juce18OggVorbisNamespaceL12_44c0_s_p8_1E, symObjAddr: 0x74CA30, symBinAddr: 0x1007553C8, symSize: 0x0 }
  - { offset: 0x573A96, size: 0x8, addend: 0x0, symName: __ZN4juce18OggVorbisNamespaceL27_vq_lengthlist__44c0_s_p8_1E, symObjAddr: 0x69D458, symBinAddr: 0x10067BA78, symSize: 0x0 }
  - { offset: 0x573AB1, size: 0x8, addend: 0x0, symName: __ZN4juce18OggVorbisNamespaceL26_vq_quantlist__44c0_s_p8_1E, symObjAddr: 0x69D508, symBinAddr: 0x10067BB28, symSize: 0x0 }
  - { offset: 0x573ACC, size: 0x8, addend: 0x0, symName: __ZN4juce18OggVorbisNamespaceL12_44c0_s_p8_2E, symObjAddr: 0x74CA78, symBinAddr: 0x100755410, symSize: 0x0 }
  - { offset: 0x573AE7, size: 0x8, addend: 0x0, symName: __ZN4juce18OggVorbisNamespaceL27_vq_lengthlist__44c0_s_p8_2E, symObjAddr: 0x69D570, symBinAddr: 0x10067BB90, symSize: 0x0 }
  - { offset: 0x573B02, size: 0x8, addend: 0x0, symName: __ZN4juce18OggVorbisNamespaceL26_vq_quantlist__44c0_s_p8_2E, symObjAddr: 0x69D698, symBinAddr: 0x10067BCB8, symSize: 0x0 }
  - { offset: 0x573B1B, size: 0x8, addend: 0x0, symName: __ZN4juce18OggVorbisNamespaceL15_resbook_44sm_0E, symObjAddr: 0x74C550, symBinAddr: 0x100754EE8, symSize: 0x0 }
  - { offset: 0x573B36, size: 0x8, addend: 0x0, symName: __ZN4juce18OggVorbisNamespaceL13_44c0_sm_p1_0E, symObjAddr: 0x74CAC0, symBinAddr: 0x100755458, symSize: 0x0 }
  - { offset: 0x573B51, size: 0x8, addend: 0x0, symName: __ZN4juce18OggVorbisNamespaceL28_vq_lengthlist__44c0_sm_p1_0E, symObjAddr: 0x69D738, symBinAddr: 0x10067BD58, symSize: 0x0 }
  - { offset: 0x573B6C, size: 0x8, addend: 0x0, symName: __ZN4juce18OggVorbisNamespaceL27_vq_quantlist__44c0_sm_p1_0E, symObjAddr: 0x69D720, symBinAddr: 0x10067BD40, symSize: 0x0 }
  - { offset: 0x573B87, size: 0x8, addend: 0x0, symName: __ZN4juce18OggVorbisNamespaceL13_44c0_sm_p2_0E, symObjAddr: 0x74CB08, symBinAddr: 0x1007554A0, symSize: 0x0 }
  - { offset: 0x573BA2, size: 0x8, addend: 0x0, symName: __ZN4juce18OggVorbisNamespaceL28_vq_lengthlist__44c0_sm_p2_0E, symObjAddr: 0x69F108, symBinAddr: 0x10067D728, symSize: 0x0 }
  - { offset: 0x573BBD, size: 0x8, addend: 0x0, symName: __ZN4juce18OggVorbisNamespaceL27_vq_quantlist__44c0_sm_p2_0E, symObjAddr: 0x69F0E0, symBinAddr: 0x10067D700, symSize: 0x0 }
  - { offset: 0x573BD8, size: 0x8, addend: 0x0, symName: __ZN4juce18OggVorbisNamespaceL13_44c0_sm_p3_0E, symObjAddr: 0x74CB50, symBinAddr: 0x1007554E8, symSize: 0x0 }
  - { offset: 0x573BF3, size: 0x8, addend: 0x0, symName: __ZN4juce18OggVorbisNamespaceL28_vq_lengthlist__44c0_sm_p3_0E, symObjAddr: 0x69F3C8, symBinAddr: 0x10067D9E8, symSize: 0x0 }
  - { offset: 0x573C0E, size: 0x8, addend: 0x0, symName: __ZN4juce18OggVorbisNamespaceL27_vq_quantlist__44c0_sm_p3_0E, symObjAddr: 0x69F380, symBinAddr: 0x10067D9A0, symSize: 0x0 }
  - { offset: 0x573C29, size: 0x8, addend: 0x0, symName: __ZN4juce18OggVorbisNamespaceL13_44c0_sm_p4_0E, symObjAddr: 0x74CB98, symBinAddr: 0x100755530, symSize: 0x0 }
  - { offset: 0x573C44, size: 0x8, addend: 0x0, symName: __ZN4juce18OggVorbisNamespaceL28_vq_lengthlist__44c0_sm_p4_0E, symObjAddr: 0x69F419, symBinAddr: 0x10067DA39, symSize: 0x0 }
  - { offset: 0x573C5F, size: 0x8, addend: 0x0, symName: __ZN4juce18OggVorbisNamespaceL27_vq_quantlist__44c0_sm_p4_0E, symObjAddr: 0x69F470, symBinAddr: 0x10067DA90, symSize: 0x0 }
  - { offset: 0x573C7A, size: 0x8, addend: 0x0, symName: __ZN4juce18OggVorbisNamespaceL13_44c0_sm_p5_0E, symObjAddr: 0x74CBE0, symBinAddr: 0x100755578, symSize: 0x0 }
  - { offset: 0x573C95, size: 0x8, addend: 0x0, symName: __ZN4juce18OggVorbisNamespaceL28_vq_lengthlist__44c0_sm_p5_0E, symObjAddr: 0x69F4B8, symBinAddr: 0x10067DAD8, symSize: 0x0 }
  - { offset: 0x573CB0, size: 0x8, addend: 0x0, symName: __ZN4juce18OggVorbisNamespaceL27_vq_quantlist__44c0_sm_p5_0E, symObjAddr: 0x69F5E0, symBinAddr: 0x10067DC00, symSize: 0x0 }
  - { offset: 0x573CCB, size: 0x8, addend: 0x0, symName: __ZN4juce18OggVorbisNamespaceL13_44c0_sm_p6_0E, symObjAddr: 0x74CC28, symBinAddr: 0x1007555C0, symSize: 0x0 }
  - { offset: 0x573CE6, size: 0x8, addend: 0x0, symName: __ZN4juce18OggVorbisNamespaceL28_vq_lengthlist__44c0_sm_p6_0E, symObjAddr: 0x69F668, symBinAddr: 0x10067DC88, symSize: 0x0 }
  - { offset: 0x573D01, size: 0x8, addend: 0x0, symName: __ZN4juce18OggVorbisNamespaceL27_vq_quantlist__44c0_sm_p6_0E, symObjAddr: 0x69F6C0, symBinAddr: 0x10067DCE0, symSize: 0x0 }
  - { offset: 0x573D1C, size: 0x8, addend: 0x0, symName: __ZN4juce18OggVorbisNamespaceL13_44c0_sm_p6_1E, symObjAddr: 0x74CC70, symBinAddr: 0x100755608, symSize: 0x0 }
  - { offset: 0x573D37, size: 0x8, addend: 0x0, symName: __ZN4juce18OggVorbisNamespaceL28_vq_lengthlist__44c0_sm_p6_1E, symObjAddr: 0x69F6D8, symBinAddr: 0x10067DCF8, symSize: 0x0 }
  - { offset: 0x573D52, size: 0x8, addend: 0x0, symName: __ZN4juce18OggVorbisNamespaceL27_vq_quantlist__44c0_sm_p6_1E, symObjAddr: 0x69F758, symBinAddr: 0x10067DD78, symSize: 0x0 }
  - { offset: 0x573D6D, size: 0x8, addend: 0x0, symName: __ZN4juce18OggVorbisNamespaceL13_44c0_sm_p7_0E, symObjAddr: 0x74CCB8, symBinAddr: 0x100755650, symSize: 0x0 }
  - { offset: 0x573D88, size: 0x8, addend: 0x0, symName: __ZN4juce18OggVorbisNamespaceL28_vq_lengthlist__44c0_sm_p7_0E, symObjAddr: 0x69F7B0, symBinAddr: 0x10067DDD0, symSize: 0x0 }
  - { offset: 0x573DA3, size: 0x8, addend: 0x0, symName: __ZN4juce18OggVorbisNamespaceL27_vq_quantlist__44c0_sm_p7_0E, symObjAddr: 0x69F860, symBinAddr: 0x10067DE80, symSize: 0x0 }
  - { offset: 0x573DBE, size: 0x8, addend: 0x0, symName: __ZN4juce18OggVorbisNamespaceL13_44c0_sm_p7_1E, symObjAddr: 0x74CD00, symBinAddr: 0x100755698, symSize: 0x0 }
  - { offset: 0x573DD9, size: 0x8, addend: 0x0, symName: __ZN4juce18OggVorbisNamespaceL28_vq_lengthlist__44c0_sm_p7_1E, symObjAddr: 0x69F8C8, symBinAddr: 0x10067DEE8, symSize: 0x0 }
  - { offset: 0x573DF4, size: 0x8, addend: 0x0, symName: __ZN4juce18OggVorbisNamespaceL27_vq_quantlist__44c0_sm_p7_1E, symObjAddr: 0x69F8E8, symBinAddr: 0x10067DF08, symSize: 0x0 }
  - { offset: 0x573E0F, size: 0x8, addend: 0x0, symName: __ZN4juce18OggVorbisNamespaceL13_44c0_sm_p8_0E, symObjAddr: 0x74CD48, symBinAddr: 0x1007556E0, symSize: 0x0 }
  - { offset: 0x573E2A, size: 0x8, addend: 0x0, symName: __ZN4juce18OggVorbisNamespaceL28_vq_lengthlist__44c0_sm_p8_0E, symObjAddr: 0x69F910, symBinAddr: 0x10067DF30, symSize: 0x0 }
  - { offset: 0x573E45, size: 0x8, addend: 0x0, symName: __ZN4juce18OggVorbisNamespaceL27_vq_quantlist__44c0_sm_p8_0E, symObjAddr: 0x69F968, symBinAddr: 0x10067DF88, symSize: 0x0 }
  - { offset: 0x573E60, size: 0x8, addend: 0x0, symName: __ZN4juce18OggVorbisNamespaceL13_44c0_sm_p8_1E, symObjAddr: 0x74CD90, symBinAddr: 0x100755728, symSize: 0x0 }
  - { offset: 0x573E7B, size: 0x8, addend: 0x0, symName: __ZN4juce18OggVorbisNamespaceL28_vq_lengthlist__44c0_sm_p8_1E, symObjAddr: 0x69F9B0, symBinAddr: 0x10067DFD0, symSize: 0x0 }
  - { offset: 0x573E96, size: 0x8, addend: 0x0, symName: __ZN4juce18OggVorbisNamespaceL27_vq_quantlist__44c0_sm_p8_1E, symObjAddr: 0x69FA60, symBinAddr: 0x10067E080, symSize: 0x0 }
  - { offset: 0x573EB1, size: 0x8, addend: 0x0, symName: __ZN4juce18OggVorbisNamespaceL13_44c0_sm_p8_2E, symObjAddr: 0x74CDD8, symBinAddr: 0x100755770, symSize: 0x0 }
  - { offset: 0x573ECC, size: 0x8, addend: 0x0, symName: __ZN4juce18OggVorbisNamespaceL28_vq_lengthlist__44c0_sm_p8_2E, symObjAddr: 0x69FAC8, symBinAddr: 0x10067E0E8, symSize: 0x0 }
  - { offset: 0x573EE7, size: 0x8, addend: 0x0, symName: __ZN4juce18OggVorbisNamespaceL27_vq_quantlist__44c0_sm_p8_2E, symObjAddr: 0x69FBF0, symBinAddr: 0x10067E210, symSize: 0x0 }
  - { offset: 0x573F02, size: 0x8, addend: 0x0, symName: __ZN4juce18OggVorbisNamespaceL23_huff_book__44c0_s_longE, symObjAddr: 0x74C6D0, symBinAddr: 0x100755068, symSize: 0x0 }
  - { offset: 0x573F1D, size: 0x8, addend: 0x0, symName: __ZN4juce18OggVorbisNamespaceL29_huff_lengthlist__44c0_s_longE, symObjAddr: 0x69FC78, symBinAddr: 0x10067E298, symSize: 0x0 }
  - { offset: 0x573F38, size: 0x8, addend: 0x0, symName: __ZN4juce18OggVorbisNamespaceL24_huff_book__44c0_sm_longE, symObjAddr: 0x74C718, symBinAddr: 0x1007550B0, symSize: 0x0 }
  - { offset: 0x573F53, size: 0x8, addend: 0x0, symName: __ZN4juce18OggVorbisNamespaceL30_huff_lengthlist__44c0_sm_longE, symObjAddr: 0x69FCC9, symBinAddr: 0x10067E2E9, symSize: 0x0 }
  - { offset: 0x573F6C, size: 0x8, addend: 0x0, symName: __ZN4juce18OggVorbisNamespaceL10_res_44s_1E, symObjAddr: 0x74B470, symBinAddr: 0x100753E08, symSize: 0x0 }
  - { offset: 0x573F87, size: 0x8, addend: 0x0, symName: __ZN4juce18OggVorbisNamespaceL24_huff_book__44c1_s_shortE, symObjAddr: 0x74CE20, symBinAddr: 0x1007557B8, symSize: 0x0 }
  - { offset: 0x573FA2, size: 0x8, addend: 0x0, symName: __ZN4juce18OggVorbisNamespaceL30_huff_lengthlist__44c1_s_shortE, symObjAddr: 0x69FD1A, symBinAddr: 0x10067E33A, symSize: 0x0 }
  - { offset: 0x573FBD, size: 0x8, addend: 0x0, symName: __ZN4juce18OggVorbisNamespaceL25_huff_book__44c1_sm_shortE, symObjAddr: 0x74CE68, symBinAddr: 0x100755800, symSize: 0x0 }
  - { offset: 0x573FD8, size: 0x8, addend: 0x0, symName: __ZN4juce18OggVorbisNamespaceL31_huff_lengthlist__44c1_sm_shortE, symObjAddr: 0x69FD6B, symBinAddr: 0x10067E38B, symSize: 0x0 }
  - { offset: 0x573FF1, size: 0x8, addend: 0x0, symName: __ZN4juce18OggVorbisNamespaceL14_resbook_44s_1E, symObjAddr: 0x74CEB0, symBinAddr: 0x100755848, symSize: 0x0 }
  - { offset: 0x57400C, size: 0x8, addend: 0x0, symName: __ZN4juce18OggVorbisNamespaceL12_44c1_s_p1_0E, symObjAddr: 0x74D240, symBinAddr: 0x100755BD8, symSize: 0x0 }
  - { offset: 0x574027, size: 0x8, addend: 0x0, symName: __ZN4juce18OggVorbisNamespaceL27_vq_lengthlist__44c1_s_p1_0E, symObjAddr: 0x69FDD8, symBinAddr: 0x10067E3F8, symSize: 0x0 }
  - { offset: 0x574042, size: 0x8, addend: 0x0, symName: __ZN4juce18OggVorbisNamespaceL26_vq_quantlist__44c1_s_p1_0E, symObjAddr: 0x69FDC0, symBinAddr: 0x10067E3E0, symSize: 0x0 }
  - { offset: 0x57405D, size: 0x8, addend: 0x0, symName: __ZN4juce18OggVorbisNamespaceL12_44c1_s_p2_0E, symObjAddr: 0x74D288, symBinAddr: 0x100755C20, symSize: 0x0 }
  - { offset: 0x574078, size: 0x8, addend: 0x0, symName: __ZN4juce18OggVorbisNamespaceL27_vq_lengthlist__44c1_s_p2_0E, symObjAddr: 0x6A17A8, symBinAddr: 0x10067FDC8, symSize: 0x0 }
  - { offset: 0x574093, size: 0x8, addend: 0x0, symName: __ZN4juce18OggVorbisNamespaceL26_vq_quantlist__44c1_s_p2_0E, symObjAddr: 0x6A1780, symBinAddr: 0x10067FDA0, symSize: 0x0 }
  - { offset: 0x5740AE, size: 0x8, addend: 0x0, symName: __ZN4juce18OggVorbisNamespaceL12_44c1_s_p3_0E, symObjAddr: 0x74D2D0, symBinAddr: 0x100755C68, symSize: 0x0 }
  - { offset: 0x5740C9, size: 0x8, addend: 0x0, symName: __ZN4juce18OggVorbisNamespaceL27_vq_lengthlist__44c1_s_p3_0E, symObjAddr: 0x6A1A68, symBinAddr: 0x100680088, symSize: 0x0 }
  - { offset: 0x5740E4, size: 0x8, addend: 0x0, symName: __ZN4juce18OggVorbisNamespaceL26_vq_quantlist__44c1_s_p3_0E, symObjAddr: 0x6A1A20, symBinAddr: 0x100680040, symSize: 0x0 }
  - { offset: 0x5740FF, size: 0x8, addend: 0x0, symName: __ZN4juce18OggVorbisNamespaceL12_44c1_s_p4_0E, symObjAddr: 0x74D318, symBinAddr: 0x100755CB0, symSize: 0x0 }
  - { offset: 0x57411A, size: 0x8, addend: 0x0, symName: __ZN4juce18OggVorbisNamespaceL27_vq_lengthlist__44c1_s_p4_0E, symObjAddr: 0x6A1AB9, symBinAddr: 0x1006800D9, symSize: 0x0 }
  - { offset: 0x574135, size: 0x8, addend: 0x0, symName: __ZN4juce18OggVorbisNamespaceL26_vq_quantlist__44c1_s_p4_0E, symObjAddr: 0x6A1B10, symBinAddr: 0x100680130, symSize: 0x0 }
  - { offset: 0x574150, size: 0x8, addend: 0x0, symName: __ZN4juce18OggVorbisNamespaceL12_44c1_s_p5_0E, symObjAddr: 0x74D360, symBinAddr: 0x100755CF8, symSize: 0x0 }
  - { offset: 0x57416B, size: 0x8, addend: 0x0, symName: __ZN4juce18OggVorbisNamespaceL27_vq_lengthlist__44c1_s_p5_0E, symObjAddr: 0x6A1B58, symBinAddr: 0x100680178, symSize: 0x0 }
  - { offset: 0x574186, size: 0x8, addend: 0x0, symName: __ZN4juce18OggVorbisNamespaceL26_vq_quantlist__44c1_s_p5_0E, symObjAddr: 0x6A1C80, symBinAddr: 0x1006802A0, symSize: 0x0 }
  - { offset: 0x5741A1, size: 0x8, addend: 0x0, symName: __ZN4juce18OggVorbisNamespaceL12_44c1_s_p6_0E, symObjAddr: 0x74D3A8, symBinAddr: 0x100755D40, symSize: 0x0 }
  - { offset: 0x5741BC, size: 0x8, addend: 0x0, symName: __ZN4juce18OggVorbisNamespaceL27_vq_lengthlist__44c1_s_p6_0E, symObjAddr: 0x6A1D08, symBinAddr: 0x100680328, symSize: 0x0 }
  - { offset: 0x5741D7, size: 0x8, addend: 0x0, symName: __ZN4juce18OggVorbisNamespaceL26_vq_quantlist__44c1_s_p6_0E, symObjAddr: 0x6A1D60, symBinAddr: 0x100680380, symSize: 0x0 }
  - { offset: 0x5741F2, size: 0x8, addend: 0x0, symName: __ZN4juce18OggVorbisNamespaceL12_44c1_s_p6_1E, symObjAddr: 0x74D3F0, symBinAddr: 0x100755D88, symSize: 0x0 }
  - { offset: 0x57420D, size: 0x8, addend: 0x0, symName: __ZN4juce18OggVorbisNamespaceL27_vq_lengthlist__44c1_s_p6_1E, symObjAddr: 0x6A1D78, symBinAddr: 0x100680398, symSize: 0x0 }
  - { offset: 0x574228, size: 0x8, addend: 0x0, symName: __ZN4juce18OggVorbisNamespaceL26_vq_quantlist__44c1_s_p6_1E, symObjAddr: 0x6A1DF8, symBinAddr: 0x100680418, symSize: 0x0 }
  - { offset: 0x574243, size: 0x8, addend: 0x0, symName: __ZN4juce18OggVorbisNamespaceL12_44c1_s_p7_0E, symObjAddr: 0x74D438, symBinAddr: 0x100755DD0, symSize: 0x0 }
  - { offset: 0x57425E, size: 0x8, addend: 0x0, symName: __ZN4juce18OggVorbisNamespaceL27_vq_lengthlist__44c1_s_p7_0E, symObjAddr: 0x6A1E50, symBinAddr: 0x100680470, symSize: 0x0 }
  - { offset: 0x574279, size: 0x8, addend: 0x0, symName: __ZN4juce18OggVorbisNamespaceL26_vq_quantlist__44c1_s_p7_0E, symObjAddr: 0x6A1F00, symBinAddr: 0x100680520, symSize: 0x0 }
  - { offset: 0x574294, size: 0x8, addend: 0x0, symName: __ZN4juce18OggVorbisNamespaceL12_44c1_s_p7_1E, symObjAddr: 0x74D480, symBinAddr: 0x100755E18, symSize: 0x0 }
  - { offset: 0x5742AF, size: 0x8, addend: 0x0, symName: __ZN4juce18OggVorbisNamespaceL27_vq_lengthlist__44c1_s_p7_1E, symObjAddr: 0x6A1F68, symBinAddr: 0x100680588, symSize: 0x0 }
  - { offset: 0x5742CA, size: 0x8, addend: 0x0, symName: __ZN4juce18OggVorbisNamespaceL26_vq_quantlist__44c1_s_p7_1E, symObjAddr: 0x6A1F88, symBinAddr: 0x1006805A8, symSize: 0x0 }
  - { offset: 0x5742E5, size: 0x8, addend: 0x0, symName: __ZN4juce18OggVorbisNamespaceL12_44c1_s_p8_0E, symObjAddr: 0x74D4C8, symBinAddr: 0x100755E60, symSize: 0x0 }
  - { offset: 0x574300, size: 0x8, addend: 0x0, symName: __ZN4juce18OggVorbisNamespaceL27_vq_lengthlist__44c1_s_p8_0E, symObjAddr: 0x6A1FB0, symBinAddr: 0x1006805D0, symSize: 0x0 }
  - { offset: 0x57431B, size: 0x8, addend: 0x0, symName: __ZN4juce18OggVorbisNamespaceL26_vq_quantlist__44c1_s_p8_0E, symObjAddr: 0x6A2060, symBinAddr: 0x100680680, symSize: 0x0 }
  - { offset: 0x574336, size: 0x8, addend: 0x0, symName: __ZN4juce18OggVorbisNamespaceL12_44c1_s_p8_1E, symObjAddr: 0x74D510, symBinAddr: 0x100755EA8, symSize: 0x0 }
  - { offset: 0x574351, size: 0x8, addend: 0x0, symName: __ZN4juce18OggVorbisNamespaceL27_vq_lengthlist__44c1_s_p8_1E, symObjAddr: 0x6A20C8, symBinAddr: 0x1006806E8, symSize: 0x0 }
  - { offset: 0x57436C, size: 0x8, addend: 0x0, symName: __ZN4juce18OggVorbisNamespaceL26_vq_quantlist__44c1_s_p8_1E, symObjAddr: 0x6A2178, symBinAddr: 0x100680798, symSize: 0x0 }
  - { offset: 0x574387, size: 0x8, addend: 0x0, symName: __ZN4juce18OggVorbisNamespaceL12_44c1_s_p8_2E, symObjAddr: 0x74D558, symBinAddr: 0x100755EF0, symSize: 0x0 }
  - { offset: 0x5743A2, size: 0x8, addend: 0x0, symName: __ZN4juce18OggVorbisNamespaceL27_vq_lengthlist__44c1_s_p8_2E, symObjAddr: 0x6A21E0, symBinAddr: 0x100680800, symSize: 0x0 }
  - { offset: 0x5743BD, size: 0x8, addend: 0x0, symName: __ZN4juce18OggVorbisNamespaceL26_vq_quantlist__44c1_s_p8_2E, symObjAddr: 0x6A2308, symBinAddr: 0x100680928, symSize: 0x0 }
  - { offset: 0x5743D6, size: 0x8, addend: 0x0, symName: __ZN4juce18OggVorbisNamespaceL15_resbook_44sm_1E, symObjAddr: 0x74D030, symBinAddr: 0x1007559C8, symSize: 0x0 }
  - { offset: 0x5743F1, size: 0x8, addend: 0x0, symName: __ZN4juce18OggVorbisNamespaceL13_44c1_sm_p1_0E, symObjAddr: 0x74D5A0, symBinAddr: 0x100755F38, symSize: 0x0 }
  - { offset: 0x57440C, size: 0x8, addend: 0x0, symName: __ZN4juce18OggVorbisNamespaceL28_vq_lengthlist__44c1_sm_p1_0E, symObjAddr: 0x6A23A8, symBinAddr: 0x1006809C8, symSize: 0x0 }
  - { offset: 0x574427, size: 0x8, addend: 0x0, symName: __ZN4juce18OggVorbisNamespaceL27_vq_quantlist__44c1_sm_p1_0E, symObjAddr: 0x6A2390, symBinAddr: 0x1006809B0, symSize: 0x0 }
  - { offset: 0x574442, size: 0x8, addend: 0x0, symName: __ZN4juce18OggVorbisNamespaceL13_44c1_sm_p2_0E, symObjAddr: 0x74D5E8, symBinAddr: 0x100755F80, symSize: 0x0 }
  - { offset: 0x57445D, size: 0x8, addend: 0x0, symName: __ZN4juce18OggVorbisNamespaceL28_vq_lengthlist__44c1_sm_p2_0E, symObjAddr: 0x6A3D78, symBinAddr: 0x100682398, symSize: 0x0 }
  - { offset: 0x574478, size: 0x8, addend: 0x0, symName: __ZN4juce18OggVorbisNamespaceL27_vq_quantlist__44c1_sm_p2_0E, symObjAddr: 0x6A3D50, symBinAddr: 0x100682370, symSize: 0x0 }
  - { offset: 0x574493, size: 0x8, addend: 0x0, symName: __ZN4juce18OggVorbisNamespaceL13_44c1_sm_p3_0E, symObjAddr: 0x74D630, symBinAddr: 0x100755FC8, symSize: 0x0 }
  - { offset: 0x5744AE, size: 0x8, addend: 0x0, symName: __ZN4juce18OggVorbisNamespaceL28_vq_lengthlist__44c1_sm_p3_0E, symObjAddr: 0x6A4038, symBinAddr: 0x100682658, symSize: 0x0 }
  - { offset: 0x5744C9, size: 0x8, addend: 0x0, symName: __ZN4juce18OggVorbisNamespaceL27_vq_quantlist__44c1_sm_p3_0E, symObjAddr: 0x6A3FF0, symBinAddr: 0x100682610, symSize: 0x0 }
  - { offset: 0x5744E4, size: 0x8, addend: 0x0, symName: __ZN4juce18OggVorbisNamespaceL13_44c1_sm_p4_0E, symObjAddr: 0x74D678, symBinAddr: 0x100756010, symSize: 0x0 }
  - { offset: 0x5744FF, size: 0x8, addend: 0x0, symName: __ZN4juce18OggVorbisNamespaceL28_vq_lengthlist__44c1_sm_p4_0E, symObjAddr: 0x6A4089, symBinAddr: 0x1006826A9, symSize: 0x0 }
  - { offset: 0x57451A, size: 0x8, addend: 0x0, symName: __ZN4juce18OggVorbisNamespaceL27_vq_quantlist__44c1_sm_p4_0E, symObjAddr: 0x6A40E0, symBinAddr: 0x100682700, symSize: 0x0 }
  - { offset: 0x574535, size: 0x8, addend: 0x0, symName: __ZN4juce18OggVorbisNamespaceL13_44c1_sm_p5_0E, symObjAddr: 0x74D6C0, symBinAddr: 0x100756058, symSize: 0x0 }
  - { offset: 0x574550, size: 0x8, addend: 0x0, symName: __ZN4juce18OggVorbisNamespaceL28_vq_lengthlist__44c1_sm_p5_0E, symObjAddr: 0x6A4128, symBinAddr: 0x100682748, symSize: 0x0 }
  - { offset: 0x57456B, size: 0x8, addend: 0x0, symName: __ZN4juce18OggVorbisNamespaceL27_vq_quantlist__44c1_sm_p5_0E, symObjAddr: 0x6A4250, symBinAddr: 0x100682870, symSize: 0x0 }
  - { offset: 0x574586, size: 0x8, addend: 0x0, symName: __ZN4juce18OggVorbisNamespaceL13_44c1_sm_p6_0E, symObjAddr: 0x74D708, symBinAddr: 0x1007560A0, symSize: 0x0 }
  - { offset: 0x5745A1, size: 0x8, addend: 0x0, symName: __ZN4juce18OggVorbisNamespaceL28_vq_lengthlist__44c1_sm_p6_0E, symObjAddr: 0x6A42D8, symBinAddr: 0x1006828F8, symSize: 0x0 }
  - { offset: 0x5745BC, size: 0x8, addend: 0x0, symName: __ZN4juce18OggVorbisNamespaceL27_vq_quantlist__44c1_sm_p6_0E, symObjAddr: 0x6A4330, symBinAddr: 0x100682950, symSize: 0x0 }
  - { offset: 0x5745D7, size: 0x8, addend: 0x0, symName: __ZN4juce18OggVorbisNamespaceL13_44c1_sm_p6_1E, symObjAddr: 0x74D750, symBinAddr: 0x1007560E8, symSize: 0x0 }
  - { offset: 0x5745F2, size: 0x8, addend: 0x0, symName: __ZN4juce18OggVorbisNamespaceL28_vq_lengthlist__44c1_sm_p6_1E, symObjAddr: 0x6A4348, symBinAddr: 0x100682968, symSize: 0x0 }
  - { offset: 0x57460D, size: 0x8, addend: 0x0, symName: __ZN4juce18OggVorbisNamespaceL27_vq_quantlist__44c1_sm_p6_1E, symObjAddr: 0x6A43C8, symBinAddr: 0x1006829E8, symSize: 0x0 }
  - { offset: 0x574628, size: 0x8, addend: 0x0, symName: __ZN4juce18OggVorbisNamespaceL13_44c1_sm_p7_0E, symObjAddr: 0x74D798, symBinAddr: 0x100756130, symSize: 0x0 }
  - { offset: 0x574643, size: 0x8, addend: 0x0, symName: __ZN4juce18OggVorbisNamespaceL28_vq_lengthlist__44c1_sm_p7_0E, symObjAddr: 0x6A4420, symBinAddr: 0x100682A40, symSize: 0x0 }
  - { offset: 0x57465E, size: 0x8, addend: 0x0, symName: __ZN4juce18OggVorbisNamespaceL27_vq_quantlist__44c1_sm_p7_0E, symObjAddr: 0x6A44D0, symBinAddr: 0x100682AF0, symSize: 0x0 }
  - { offset: 0x574679, size: 0x8, addend: 0x0, symName: __ZN4juce18OggVorbisNamespaceL13_44c1_sm_p7_1E, symObjAddr: 0x74D7E0, symBinAddr: 0x100756178, symSize: 0x0 }
  - { offset: 0x574694, size: 0x8, addend: 0x0, symName: __ZN4juce18OggVorbisNamespaceL28_vq_lengthlist__44c1_sm_p7_1E, symObjAddr: 0x6A4538, symBinAddr: 0x100682B58, symSize: 0x0 }
  - { offset: 0x5746AF, size: 0x8, addend: 0x0, symName: __ZN4juce18OggVorbisNamespaceL27_vq_quantlist__44c1_sm_p7_1E, symObjAddr: 0x6A4558, symBinAddr: 0x100682B78, symSize: 0x0 }
  - { offset: 0x5746CA, size: 0x8, addend: 0x0, symName: __ZN4juce18OggVorbisNamespaceL13_44c1_sm_p8_0E, symObjAddr: 0x74D828, symBinAddr: 0x1007561C0, symSize: 0x0 }
  - { offset: 0x5746E5, size: 0x8, addend: 0x0, symName: __ZN4juce18OggVorbisNamespaceL28_vq_lengthlist__44c1_sm_p8_0E, symObjAddr: 0x6A4580, symBinAddr: 0x100682BA0, symSize: 0x0 }
  - { offset: 0x574700, size: 0x8, addend: 0x0, symName: __ZN4juce18OggVorbisNamespaceL27_vq_quantlist__44c1_sm_p8_0E, symObjAddr: 0x6A4630, symBinAddr: 0x100682C50, symSize: 0x0 }
  - { offset: 0x57471B, size: 0x8, addend: 0x0, symName: __ZN4juce18OggVorbisNamespaceL13_44c1_sm_p8_1E, symObjAddr: 0x74D870, symBinAddr: 0x100756208, symSize: 0x0 }
  - { offset: 0x574736, size: 0x8, addend: 0x0, symName: __ZN4juce18OggVorbisNamespaceL28_vq_lengthlist__44c1_sm_p8_1E, symObjAddr: 0x6A4698, symBinAddr: 0x100682CB8, symSize: 0x0 }
  - { offset: 0x574751, size: 0x8, addend: 0x0, symName: __ZN4juce18OggVorbisNamespaceL27_vq_quantlist__44c1_sm_p8_1E, symObjAddr: 0x6A4748, symBinAddr: 0x100682D68, symSize: 0x0 }
  - { offset: 0x57476C, size: 0x8, addend: 0x0, symName: __ZN4juce18OggVorbisNamespaceL13_44c1_sm_p8_2E, symObjAddr: 0x74D8B8, symBinAddr: 0x100756250, symSize: 0x0 }
  - { offset: 0x574787, size: 0x8, addend: 0x0, symName: __ZN4juce18OggVorbisNamespaceL28_vq_lengthlist__44c1_sm_p8_2E, symObjAddr: 0x6A47B0, symBinAddr: 0x100682DD0, symSize: 0x0 }
  - { offset: 0x5747A2, size: 0x8, addend: 0x0, symName: __ZN4juce18OggVorbisNamespaceL27_vq_quantlist__44c1_sm_p8_2E, symObjAddr: 0x6A48D8, symBinAddr: 0x100682EF8, symSize: 0x0 }
  - { offset: 0x5747BD, size: 0x8, addend: 0x0, symName: __ZN4juce18OggVorbisNamespaceL23_huff_book__44c1_s_longE, symObjAddr: 0x74D1B0, symBinAddr: 0x100755B48, symSize: 0x0 }
  - { offset: 0x5747D8, size: 0x8, addend: 0x0, symName: __ZN4juce18OggVorbisNamespaceL29_huff_lengthlist__44c1_s_longE, symObjAddr: 0x6A4960, symBinAddr: 0x100682F80, symSize: 0x0 }
  - { offset: 0x5747F3, size: 0x8, addend: 0x0, symName: __ZN4juce18OggVorbisNamespaceL24_huff_book__44c1_sm_longE, symObjAddr: 0x74D1F8, symBinAddr: 0x100755B90, symSize: 0x0 }
  - { offset: 0x57480E, size: 0x8, addend: 0x0, symName: __ZN4juce18OggVorbisNamespaceL30_huff_lengthlist__44c1_sm_longE, symObjAddr: 0x6A49B1, symBinAddr: 0x100682FD1, symSize: 0x0 }
  - { offset: 0x574827, size: 0x8, addend: 0x0, symName: __ZN4juce18OggVorbisNamespaceL10_res_44s_2E, symObjAddr: 0x74B4E0, symBinAddr: 0x100753E78, symSize: 0x0 }
  - { offset: 0x574840, size: 0x8, addend: 0x0, symName: __ZN4juce18OggVorbisNamespaceL15_residue_44_midE, symObjAddr: 0x6A4A08, symBinAddr: 0x100683028, symSize: 0x0 }
  - { offset: 0x57485B, size: 0x8, addend: 0x0, symName: __ZN4juce18OggVorbisNamespaceL24_huff_book__44c2_s_shortE, symObjAddr: 0x74D900, symBinAddr: 0x100756298, symSize: 0x0 }
  - { offset: 0x574876, size: 0x8, addend: 0x0, symName: __ZN4juce18OggVorbisNamespaceL30_huff_lengthlist__44c2_s_shortE, symObjAddr: 0x6A5528, symBinAddr: 0x100683B48, symSize: 0x0 }
  - { offset: 0x57488F, size: 0x8, addend: 0x0, symName: __ZN4juce18OggVorbisNamespaceL14_resbook_44s_2E, symObjAddr: 0x74D948, symBinAddr: 0x1007562E0, symSize: 0x0 }
  - { offset: 0x5748AA, size: 0x8, addend: 0x0, symName: __ZN4juce18OggVorbisNamespaceL12_44c2_s_p1_0E, symObjAddr: 0x74DB10, symBinAddr: 0x1007564A8, symSize: 0x0 }
  - { offset: 0x5748C5, size: 0x8, addend: 0x0, symName: __ZN4juce18OggVorbisNamespaceL27_vq_lengthlist__44c2_s_p1_0E, symObjAddr: 0x6A55A8, symBinAddr: 0x100683BC8, symSize: 0x0 }
  - { offset: 0x5748E0, size: 0x8, addend: 0x0, symName: __ZN4juce18OggVorbisNamespaceL26_vq_quantlist__44c2_s_p1_0E, symObjAddr: 0x6A5590, symBinAddr: 0x100683BB0, symSize: 0x0 }
  - { offset: 0x5748FB, size: 0x8, addend: 0x0, symName: __ZN4juce18OggVorbisNamespaceL12_44c2_s_p2_0E, symObjAddr: 0x74DB58, symBinAddr: 0x1007564F0, symSize: 0x0 }
  - { offset: 0x574916, size: 0x8, addend: 0x0, symName: __ZN4juce18OggVorbisNamespaceL27_vq_lengthlist__44c2_s_p2_0E, symObjAddr: 0x6A6F78, symBinAddr: 0x100685598, symSize: 0x0 }
  - { offset: 0x574931, size: 0x8, addend: 0x0, symName: __ZN4juce18OggVorbisNamespaceL26_vq_quantlist__44c2_s_p2_0E, symObjAddr: 0x6A6F50, symBinAddr: 0x100685570, symSize: 0x0 }
  - { offset: 0x57494C, size: 0x8, addend: 0x0, symName: __ZN4juce18OggVorbisNamespaceL12_44c2_s_p3_0E, symObjAddr: 0x74DBA0, symBinAddr: 0x100756538, symSize: 0x0 }
  - { offset: 0x574967, size: 0x8, addend: 0x0, symName: __ZN4juce18OggVorbisNamespaceL27_vq_lengthlist__44c2_s_p3_0E, symObjAddr: 0x6A7218, symBinAddr: 0x100685838, symSize: 0x0 }
  - { offset: 0x574982, size: 0x8, addend: 0x0, symName: __ZN4juce18OggVorbisNamespaceL26_vq_quantlist__44c2_s_p3_0E, symObjAddr: 0x6A71F0, symBinAddr: 0x100685810, symSize: 0x0 }
  - { offset: 0x57499D, size: 0x8, addend: 0x0, symName: __ZN4juce18OggVorbisNamespaceL12_44c2_s_p4_0E, symObjAddr: 0x74DBE8, symBinAddr: 0x100756580, symSize: 0x0 }
  - { offset: 0x5749B8, size: 0x8, addend: 0x0, symName: __ZN4juce18OggVorbisNamespaceL27_vq_lengthlist__44c2_s_p4_0E, symObjAddr: 0x6A74D8, symBinAddr: 0x100685AF8, symSize: 0x0 }
  - { offset: 0x5749D3, size: 0x8, addend: 0x0, symName: __ZN4juce18OggVorbisNamespaceL26_vq_quantlist__44c2_s_p4_0E, symObjAddr: 0x6A7490, symBinAddr: 0x100685AB0, symSize: 0x0 }
  - { offset: 0x5749EE, size: 0x8, addend: 0x0, symName: __ZN4juce18OggVorbisNamespaceL12_44c2_s_p5_0E, symObjAddr: 0x74DC30, symBinAddr: 0x1007565C8, symSize: 0x0 }
  - { offset: 0x574A09, size: 0x8, addend: 0x0, symName: __ZN4juce18OggVorbisNamespaceL27_vq_lengthlist__44c2_s_p5_0E, symObjAddr: 0x6A7529, symBinAddr: 0x100685B49, symSize: 0x0 }
  - { offset: 0x574A24, size: 0x8, addend: 0x0, symName: __ZN4juce18OggVorbisNamespaceL26_vq_quantlist__44c2_s_p5_0E, symObjAddr: 0x6A7580, symBinAddr: 0x100685BA0, symSize: 0x0 }
  - { offset: 0x574A3F, size: 0x8, addend: 0x0, symName: __ZN4juce18OggVorbisNamespaceL12_44c2_s_p6_0E, symObjAddr: 0x74DC78, symBinAddr: 0x100756610, symSize: 0x0 }
  - { offset: 0x574A5A, size: 0x8, addend: 0x0, symName: __ZN4juce18OggVorbisNamespaceL27_vq_lengthlist__44c2_s_p6_0E, symObjAddr: 0x6A75C8, symBinAddr: 0x100685BE8, symSize: 0x0 }
  - { offset: 0x574A75, size: 0x8, addend: 0x0, symName: __ZN4juce18OggVorbisNamespaceL26_vq_quantlist__44c2_s_p6_0E, symObjAddr: 0x6A76F0, symBinAddr: 0x100685D10, symSize: 0x0 }
  - { offset: 0x574A90, size: 0x8, addend: 0x0, symName: __ZN4juce18OggVorbisNamespaceL12_44c2_s_p7_0E, symObjAddr: 0x74DCC0, symBinAddr: 0x100756658, symSize: 0x0 }
  - { offset: 0x574AAB, size: 0x8, addend: 0x0, symName: __ZN4juce18OggVorbisNamespaceL27_vq_lengthlist__44c2_s_p7_0E, symObjAddr: 0x6A7778, symBinAddr: 0x100685D98, symSize: 0x0 }
  - { offset: 0x574AC6, size: 0x8, addend: 0x0, symName: __ZN4juce18OggVorbisNamespaceL26_vq_quantlist__44c2_s_p7_0E, symObjAddr: 0x6A77D0, symBinAddr: 0x100685DF0, symSize: 0x0 }
  - { offset: 0x574AE1, size: 0x8, addend: 0x0, symName: __ZN4juce18OggVorbisNamespaceL12_44c2_s_p7_1E, symObjAddr: 0x74DD08, symBinAddr: 0x1007566A0, symSize: 0x0 }
  - { offset: 0x574AFC, size: 0x8, addend: 0x0, symName: __ZN4juce18OggVorbisNamespaceL27_vq_lengthlist__44c2_s_p7_1E, symObjAddr: 0x6A77E8, symBinAddr: 0x100685E08, symSize: 0x0 }
  - { offset: 0x574B17, size: 0x8, addend: 0x0, symName: __ZN4juce18OggVorbisNamespaceL26_vq_quantlist__44c2_s_p7_1E, symObjAddr: 0x6A7868, symBinAddr: 0x100685E88, symSize: 0x0 }
  - { offset: 0x574B32, size: 0x8, addend: 0x0, symName: __ZN4juce18OggVorbisNamespaceL12_44c2_s_p8_0E, symObjAddr: 0x74DD50, symBinAddr: 0x1007566E8, symSize: 0x0 }
  - { offset: 0x574B4D, size: 0x8, addend: 0x0, symName: __ZN4juce18OggVorbisNamespaceL27_vq_lengthlist__44c2_s_p8_0E, symObjAddr: 0x6A78C0, symBinAddr: 0x100685EE0, symSize: 0x0 }
  - { offset: 0x574B68, size: 0x8, addend: 0x0, symName: __ZN4juce18OggVorbisNamespaceL26_vq_quantlist__44c2_s_p8_0E, symObjAddr: 0x6A7970, symBinAddr: 0x100685F90, symSize: 0x0 }
  - { offset: 0x574B83, size: 0x8, addend: 0x0, symName: __ZN4juce18OggVorbisNamespaceL12_44c2_s_p8_1E, symObjAddr: 0x74DD98, symBinAddr: 0x100756730, symSize: 0x0 }
  - { offset: 0x574B9E, size: 0x8, addend: 0x0, symName: __ZN4juce18OggVorbisNamespaceL27_vq_lengthlist__44c2_s_p8_1E, symObjAddr: 0x6A79D8, symBinAddr: 0x100685FF8, symSize: 0x0 }
  - { offset: 0x574BB9, size: 0x8, addend: 0x0, symName: __ZN4juce18OggVorbisNamespaceL26_vq_quantlist__44c2_s_p8_1E, symObjAddr: 0x6A79F8, symBinAddr: 0x100686018, symSize: 0x0 }
  - { offset: 0x574BD4, size: 0x8, addend: 0x0, symName: __ZN4juce18OggVorbisNamespaceL12_44c2_s_p9_0E, symObjAddr: 0x74DDE0, symBinAddr: 0x100756778, symSize: 0x0 }
  - { offset: 0x574BEF, size: 0x8, addend: 0x0, symName: __ZN4juce18OggVorbisNamespaceL27_vq_lengthlist__44c2_s_p9_0E, symObjAddr: 0x6A7A20, symBinAddr: 0x100686040, symSize: 0x0 }
  - { offset: 0x574C0A, size: 0x8, addend: 0x0, symName: __ZN4juce18OggVorbisNamespaceL26_vq_quantlist__44c2_s_p9_0E, symObjAddr: 0x6A7AD0, symBinAddr: 0x1006860F0, symSize: 0x0 }
  - { offset: 0x574C25, size: 0x8, addend: 0x0, symName: __ZN4juce18OggVorbisNamespaceL12_44c2_s_p9_1E, symObjAddr: 0x74DE28, symBinAddr: 0x1007567C0, symSize: 0x0 }
  - { offset: 0x574C40, size: 0x8, addend: 0x0, symName: __ZN4juce18OggVorbisNamespaceL27_vq_lengthlist__44c2_s_p9_1E, symObjAddr: 0x6A7B38, symBinAddr: 0x100686158, symSize: 0x0 }
  - { offset: 0x574C5B, size: 0x8, addend: 0x0, symName: __ZN4juce18OggVorbisNamespaceL26_vq_quantlist__44c2_s_p9_1E, symObjAddr: 0x6A7BE8, symBinAddr: 0x100686208, symSize: 0x0 }
  - { offset: 0x574C76, size: 0x8, addend: 0x0, symName: __ZN4juce18OggVorbisNamespaceL12_44c2_s_p9_2E, symObjAddr: 0x74DE70, symBinAddr: 0x100756808, symSize: 0x0 }
  - { offset: 0x574C91, size: 0x8, addend: 0x0, symName: __ZN4juce18OggVorbisNamespaceL27_vq_lengthlist__44c2_s_p9_2E, symObjAddr: 0x6A7C50, symBinAddr: 0x100686270, symSize: 0x0 }
  - { offset: 0x574CAC, size: 0x8, addend: 0x0, symName: __ZN4juce18OggVorbisNamespaceL26_vq_quantlist__44c2_s_p9_2E, symObjAddr: 0x6A7D78, symBinAddr: 0x100686398, symSize: 0x0 }
  - { offset: 0x574CC7, size: 0x8, addend: 0x0, symName: __ZN4juce18OggVorbisNamespaceL23_huff_book__44c2_s_longE, symObjAddr: 0x74DAC8, symBinAddr: 0x100756460, symSize: 0x0 }
  - { offset: 0x574CE2, size: 0x8, addend: 0x0, symName: __ZN4juce18OggVorbisNamespaceL29_huff_lengthlist__44c2_s_longE, symObjAddr: 0x6A7E00, symBinAddr: 0x100686420, symSize: 0x0 }
  - { offset: 0x574CFB, size: 0x8, addend: 0x0, symName: __ZN4juce18OggVorbisNamespaceL10_res_44s_3E, symObjAddr: 0x74B550, symBinAddr: 0x100753EE8, symSize: 0x0 }
  - { offset: 0x574D16, size: 0x8, addend: 0x0, symName: __ZN4juce18OggVorbisNamespaceL24_huff_book__44c3_s_shortE, symObjAddr: 0x74DEB8, symBinAddr: 0x100756850, symSize: 0x0 }
  - { offset: 0x574D31, size: 0x8, addend: 0x0, symName: __ZN4juce18OggVorbisNamespaceL30_huff_lengthlist__44c3_s_shortE, symObjAddr: 0x6A7E64, symBinAddr: 0x100686484, symSize: 0x0 }
  - { offset: 0x574D4A, size: 0x8, addend: 0x0, symName: __ZN4juce18OggVorbisNamespaceL14_resbook_44s_3E, symObjAddr: 0x74DF00, symBinAddr: 0x100756898, symSize: 0x0 }
  - { offset: 0x574D65, size: 0x8, addend: 0x0, symName: __ZN4juce18OggVorbisNamespaceL12_44c3_s_p1_0E, symObjAddr: 0x74E0C8, symBinAddr: 0x100756A60, symSize: 0x0 }
  - { offset: 0x574D80, size: 0x8, addend: 0x0, symName: __ZN4juce18OggVorbisNamespaceL27_vq_lengthlist__44c3_s_p1_0E, symObjAddr: 0x6A7EE0, symBinAddr: 0x100686500, symSize: 0x0 }
  - { offset: 0x574D9B, size: 0x8, addend: 0x0, symName: __ZN4juce18OggVorbisNamespaceL26_vq_quantlist__44c3_s_p1_0E, symObjAddr: 0x6A7EC8, symBinAddr: 0x1006864E8, symSize: 0x0 }
  - { offset: 0x574DB6, size: 0x8, addend: 0x0, symName: __ZN4juce18OggVorbisNamespaceL12_44c3_s_p2_0E, symObjAddr: 0x74E110, symBinAddr: 0x100756AA8, symSize: 0x0 }
  - { offset: 0x574DD1, size: 0x8, addend: 0x0, symName: __ZN4juce18OggVorbisNamespaceL27_vq_lengthlist__44c3_s_p2_0E, symObjAddr: 0x6A98B0, symBinAddr: 0x100687ED0, symSize: 0x0 }
  - { offset: 0x574DEC, size: 0x8, addend: 0x0, symName: __ZN4juce18OggVorbisNamespaceL26_vq_quantlist__44c3_s_p2_0E, symObjAddr: 0x6A9888, symBinAddr: 0x100687EA8, symSize: 0x0 }
  - { offset: 0x574E07, size: 0x8, addend: 0x0, symName: __ZN4juce18OggVorbisNamespaceL12_44c3_s_p3_0E, symObjAddr: 0x74E158, symBinAddr: 0x100756AF0, symSize: 0x0 }
  - { offset: 0x574E22, size: 0x8, addend: 0x0, symName: __ZN4juce18OggVorbisNamespaceL27_vq_lengthlist__44c3_s_p3_0E, symObjAddr: 0x6A9B50, symBinAddr: 0x100688170, symSize: 0x0 }
  - { offset: 0x574E3D, size: 0x8, addend: 0x0, symName: __ZN4juce18OggVorbisNamespaceL26_vq_quantlist__44c3_s_p3_0E, symObjAddr: 0x6A9B28, symBinAddr: 0x100688148, symSize: 0x0 }
  - { offset: 0x574E58, size: 0x8, addend: 0x0, symName: __ZN4juce18OggVorbisNamespaceL12_44c3_s_p4_0E, symObjAddr: 0x74E1A0, symBinAddr: 0x100756B38, symSize: 0x0 }
  - { offset: 0x574E73, size: 0x8, addend: 0x0, symName: __ZN4juce18OggVorbisNamespaceL27_vq_lengthlist__44c3_s_p4_0E, symObjAddr: 0x6A9E10, symBinAddr: 0x100688430, symSize: 0x0 }
  - { offset: 0x574E8E, size: 0x8, addend: 0x0, symName: __ZN4juce18OggVorbisNamespaceL26_vq_quantlist__44c3_s_p4_0E, symObjAddr: 0x6A9DC8, symBinAddr: 0x1006883E8, symSize: 0x0 }
  - { offset: 0x574EA9, size: 0x8, addend: 0x0, symName: __ZN4juce18OggVorbisNamespaceL12_44c3_s_p5_0E, symObjAddr: 0x74E1E8, symBinAddr: 0x100756B80, symSize: 0x0 }
  - { offset: 0x574EC4, size: 0x8, addend: 0x0, symName: __ZN4juce18OggVorbisNamespaceL27_vq_lengthlist__44c3_s_p5_0E, symObjAddr: 0x6A9E61, symBinAddr: 0x100688481, symSize: 0x0 }
  - { offset: 0x574EDF, size: 0x8, addend: 0x0, symName: __ZN4juce18OggVorbisNamespaceL26_vq_quantlist__44c3_s_p5_0E, symObjAddr: 0x6A9EB8, symBinAddr: 0x1006884D8, symSize: 0x0 }
  - { offset: 0x574EFA, size: 0x8, addend: 0x0, symName: __ZN4juce18OggVorbisNamespaceL12_44c3_s_p6_0E, symObjAddr: 0x74E230, symBinAddr: 0x100756BC8, symSize: 0x0 }
  - { offset: 0x574F15, size: 0x8, addend: 0x0, symName: __ZN4juce18OggVorbisNamespaceL27_vq_lengthlist__44c3_s_p6_0E, symObjAddr: 0x6A9F00, symBinAddr: 0x100688520, symSize: 0x0 }
  - { offset: 0x574F30, size: 0x8, addend: 0x0, symName: __ZN4juce18OggVorbisNamespaceL26_vq_quantlist__44c3_s_p6_0E, symObjAddr: 0x6AA028, symBinAddr: 0x100688648, symSize: 0x0 }
  - { offset: 0x574F4B, size: 0x8, addend: 0x0, symName: __ZN4juce18OggVorbisNamespaceL12_44c3_s_p7_0E, symObjAddr: 0x74E278, symBinAddr: 0x100756C10, symSize: 0x0 }
  - { offset: 0x574F66, size: 0x8, addend: 0x0, symName: __ZN4juce18OggVorbisNamespaceL27_vq_lengthlist__44c3_s_p7_0E, symObjAddr: 0x6AA0B0, symBinAddr: 0x1006886D0, symSize: 0x0 }
  - { offset: 0x574F81, size: 0x8, addend: 0x0, symName: __ZN4juce18OggVorbisNamespaceL26_vq_quantlist__44c3_s_p7_0E, symObjAddr: 0x6AA108, symBinAddr: 0x100688728, symSize: 0x0 }
  - { offset: 0x574F9C, size: 0x8, addend: 0x0, symName: __ZN4juce18OggVorbisNamespaceL12_44c3_s_p7_1E, symObjAddr: 0x74E2C0, symBinAddr: 0x100756C58, symSize: 0x0 }
  - { offset: 0x574FB7, size: 0x8, addend: 0x0, symName: __ZN4juce18OggVorbisNamespaceL27_vq_lengthlist__44c3_s_p7_1E, symObjAddr: 0x6AA120, symBinAddr: 0x100688740, symSize: 0x0 }
  - { offset: 0x574FD2, size: 0x8, addend: 0x0, symName: __ZN4juce18OggVorbisNamespaceL26_vq_quantlist__44c3_s_p7_1E, symObjAddr: 0x6AA1A0, symBinAddr: 0x1006887C0, symSize: 0x0 }
  - { offset: 0x574FED, size: 0x8, addend: 0x0, symName: __ZN4juce18OggVorbisNamespaceL12_44c3_s_p8_0E, symObjAddr: 0x74E308, symBinAddr: 0x100756CA0, symSize: 0x0 }
  - { offset: 0x575008, size: 0x8, addend: 0x0, symName: __ZN4juce18OggVorbisNamespaceL27_vq_lengthlist__44c3_s_p8_0E, symObjAddr: 0x6AA1F8, symBinAddr: 0x100688818, symSize: 0x0 }
  - { offset: 0x575023, size: 0x8, addend: 0x0, symName: __ZN4juce18OggVorbisNamespaceL26_vq_quantlist__44c3_s_p8_0E, symObjAddr: 0x6AA2A8, symBinAddr: 0x1006888C8, symSize: 0x0 }
  - { offset: 0x57503E, size: 0x8, addend: 0x0, symName: __ZN4juce18OggVorbisNamespaceL12_44c3_s_p8_1E, symObjAddr: 0x74E350, symBinAddr: 0x100756CE8, symSize: 0x0 }
  - { offset: 0x575059, size: 0x8, addend: 0x0, symName: __ZN4juce18OggVorbisNamespaceL27_vq_lengthlist__44c3_s_p8_1E, symObjAddr: 0x6AA310, symBinAddr: 0x100688930, symSize: 0x0 }
  - { offset: 0x575074, size: 0x8, addend: 0x0, symName: __ZN4juce18OggVorbisNamespaceL26_vq_quantlist__44c3_s_p8_1E, symObjAddr: 0x6AA330, symBinAddr: 0x100688950, symSize: 0x0 }
  - { offset: 0x57508F, size: 0x8, addend: 0x0, symName: __ZN4juce18OggVorbisNamespaceL12_44c3_s_p9_0E, symObjAddr: 0x74E398, symBinAddr: 0x100756D30, symSize: 0x0 }
  - { offset: 0x5750AA, size: 0x8, addend: 0x0, symName: __ZN4juce18OggVorbisNamespaceL27_vq_lengthlist__44c3_s_p9_0E, symObjAddr: 0x6AA358, symBinAddr: 0x100688978, symSize: 0x0 }
  - { offset: 0x5750C5, size: 0x8, addend: 0x0, symName: __ZN4juce18OggVorbisNamespaceL26_vq_quantlist__44c3_s_p9_0E, symObjAddr: 0x6AA408, symBinAddr: 0x100688A28, symSize: 0x0 }
  - { offset: 0x5750E0, size: 0x8, addend: 0x0, symName: __ZN4juce18OggVorbisNamespaceL12_44c3_s_p9_1E, symObjAddr: 0x74E3E0, symBinAddr: 0x100756D78, symSize: 0x0 }
  - { offset: 0x5750FB, size: 0x8, addend: 0x0, symName: __ZN4juce18OggVorbisNamespaceL27_vq_lengthlist__44c3_s_p9_1E, symObjAddr: 0x6AA470, symBinAddr: 0x100688A90, symSize: 0x0 }
  - { offset: 0x575116, size: 0x8, addend: 0x0, symName: __ZN4juce18OggVorbisNamespaceL26_vq_quantlist__44c3_s_p9_1E, symObjAddr: 0x6AA558, symBinAddr: 0x100688B78, symSize: 0x0 }
  - { offset: 0x575131, size: 0x8, addend: 0x0, symName: __ZN4juce18OggVorbisNamespaceL12_44c3_s_p9_2E, symObjAddr: 0x74E428, symBinAddr: 0x100756DC0, symSize: 0x0 }
  - { offset: 0x57514C, size: 0x8, addend: 0x0, symName: __ZN4juce18OggVorbisNamespaceL27_vq_lengthlist__44c3_s_p9_2E, symObjAddr: 0x6AA5D0, symBinAddr: 0x100688BF0, symSize: 0x0 }
  - { offset: 0x575167, size: 0x8, addend: 0x0, symName: __ZN4juce18OggVorbisNamespaceL26_vq_quantlist__44c3_s_p9_2E, symObjAddr: 0x6AA6F8, symBinAddr: 0x100688D18, symSize: 0x0 }
  - { offset: 0x575182, size: 0x8, addend: 0x0, symName: __ZN4juce18OggVorbisNamespaceL23_huff_book__44c3_s_longE, symObjAddr: 0x74E080, symBinAddr: 0x100756A18, symSize: 0x0 }
  - { offset: 0x57519D, size: 0x8, addend: 0x0, symName: __ZN4juce18OggVorbisNamespaceL29_huff_lengthlist__44c3_s_longE, symObjAddr: 0x6AA780, symBinAddr: 0x100688DA0, symSize: 0x0 }
  - { offset: 0x5751B6, size: 0x8, addend: 0x0, symName: __ZN4juce18OggVorbisNamespaceL10_res_44s_4E, symObjAddr: 0x74B5C0, symBinAddr: 0x100753F58, symSize: 0x0 }
  - { offset: 0x5751D1, size: 0x8, addend: 0x0, symName: __ZN4juce18OggVorbisNamespaceL24_huff_book__44c4_s_shortE, symObjAddr: 0x74E470, symBinAddr: 0x100756E08, symSize: 0x0 }
  - { offset: 0x5751EC, size: 0x8, addend: 0x0, symName: __ZN4juce18OggVorbisNamespaceL30_huff_lengthlist__44c4_s_shortE, symObjAddr: 0x6AA7E4, symBinAddr: 0x100688E04, symSize: 0x0 }
  - { offset: 0x575205, size: 0x8, addend: 0x0, symName: __ZN4juce18OggVorbisNamespaceL14_resbook_44s_4E, symObjAddr: 0x74E4B8, symBinAddr: 0x100756E50, symSize: 0x0 }
  - { offset: 0x575220, size: 0x8, addend: 0x0, symName: __ZN4juce18OggVorbisNamespaceL12_44c4_s_p1_0E, symObjAddr: 0x74E680, symBinAddr: 0x100757018, symSize: 0x0 }
  - { offset: 0x57523B, size: 0x8, addend: 0x0, symName: __ZN4juce18OggVorbisNamespaceL27_vq_lengthlist__44c4_s_p1_0E, symObjAddr: 0x6AA860, symBinAddr: 0x100688E80, symSize: 0x0 }
  - { offset: 0x575256, size: 0x8, addend: 0x0, symName: __ZN4juce18OggVorbisNamespaceL26_vq_quantlist__44c4_s_p1_0E, symObjAddr: 0x6AA848, symBinAddr: 0x100688E68, symSize: 0x0 }
  - { offset: 0x575271, size: 0x8, addend: 0x0, symName: __ZN4juce18OggVorbisNamespaceL12_44c4_s_p2_0E, symObjAddr: 0x74E6C8, symBinAddr: 0x100757060, symSize: 0x0 }
  - { offset: 0x57528C, size: 0x8, addend: 0x0, symName: __ZN4juce18OggVorbisNamespaceL27_vq_lengthlist__44c4_s_p2_0E, symObjAddr: 0x6AC230, symBinAddr: 0x10068A850, symSize: 0x0 }
  - { offset: 0x5752A7, size: 0x8, addend: 0x0, symName: __ZN4juce18OggVorbisNamespaceL26_vq_quantlist__44c4_s_p2_0E, symObjAddr: 0x6AC208, symBinAddr: 0x10068A828, symSize: 0x0 }
  - { offset: 0x5752C2, size: 0x8, addend: 0x0, symName: __ZN4juce18OggVorbisNamespaceL12_44c4_s_p3_0E, symObjAddr: 0x74E710, symBinAddr: 0x1007570A8, symSize: 0x0 }
  - { offset: 0x5752DD, size: 0x8, addend: 0x0, symName: __ZN4juce18OggVorbisNamespaceL27_vq_lengthlist__44c4_s_p3_0E, symObjAddr: 0x6AC4D0, symBinAddr: 0x10068AAF0, symSize: 0x0 }
  - { offset: 0x5752F8, size: 0x8, addend: 0x0, symName: __ZN4juce18OggVorbisNamespaceL26_vq_quantlist__44c4_s_p3_0E, symObjAddr: 0x6AC4A8, symBinAddr: 0x10068AAC8, symSize: 0x0 }
  - { offset: 0x575313, size: 0x8, addend: 0x0, symName: __ZN4juce18OggVorbisNamespaceL12_44c4_s_p4_0E, symObjAddr: 0x74E758, symBinAddr: 0x1007570F0, symSize: 0x0 }
  - { offset: 0x57532E, size: 0x8, addend: 0x0, symName: __ZN4juce18OggVorbisNamespaceL27_vq_lengthlist__44c4_s_p4_0E, symObjAddr: 0x6AC790, symBinAddr: 0x10068ADB0, symSize: 0x0 }
  - { offset: 0x575349, size: 0x8, addend: 0x0, symName: __ZN4juce18OggVorbisNamespaceL26_vq_quantlist__44c4_s_p4_0E, symObjAddr: 0x6AC748, symBinAddr: 0x10068AD68, symSize: 0x0 }
  - { offset: 0x575364, size: 0x8, addend: 0x0, symName: __ZN4juce18OggVorbisNamespaceL12_44c4_s_p5_0E, symObjAddr: 0x74E7A0, symBinAddr: 0x100757138, symSize: 0x0 }
  - { offset: 0x57537F, size: 0x8, addend: 0x0, symName: __ZN4juce18OggVorbisNamespaceL27_vq_lengthlist__44c4_s_p5_0E, symObjAddr: 0x6AC7E1, symBinAddr: 0x10068AE01, symSize: 0x0 }
  - { offset: 0x57539A, size: 0x8, addend: 0x0, symName: __ZN4juce18OggVorbisNamespaceL26_vq_quantlist__44c4_s_p5_0E, symObjAddr: 0x6AC838, symBinAddr: 0x10068AE58, symSize: 0x0 }
  - { offset: 0x5753B5, size: 0x8, addend: 0x0, symName: __ZN4juce18OggVorbisNamespaceL12_44c4_s_p6_0E, symObjAddr: 0x74E7E8, symBinAddr: 0x100757180, symSize: 0x0 }
  - { offset: 0x5753D0, size: 0x8, addend: 0x0, symName: __ZN4juce18OggVorbisNamespaceL27_vq_lengthlist__44c4_s_p6_0E, symObjAddr: 0x6AC880, symBinAddr: 0x10068AEA0, symSize: 0x0 }
  - { offset: 0x5753EB, size: 0x8, addend: 0x0, symName: __ZN4juce18OggVorbisNamespaceL26_vq_quantlist__44c4_s_p6_0E, symObjAddr: 0x6AC9A8, symBinAddr: 0x10068AFC8, symSize: 0x0 }
  - { offset: 0x575406, size: 0x8, addend: 0x0, symName: __ZN4juce18OggVorbisNamespaceL12_44c4_s_p7_0E, symObjAddr: 0x74E830, symBinAddr: 0x1007571C8, symSize: 0x0 }
  - { offset: 0x575421, size: 0x8, addend: 0x0, symName: __ZN4juce18OggVorbisNamespaceL27_vq_lengthlist__44c4_s_p7_0E, symObjAddr: 0x6ACA30, symBinAddr: 0x10068B050, symSize: 0x0 }
  - { offset: 0x57543C, size: 0x8, addend: 0x0, symName: __ZN4juce18OggVorbisNamespaceL26_vq_quantlist__44c4_s_p7_0E, symObjAddr: 0x6ACA88, symBinAddr: 0x10068B0A8, symSize: 0x0 }
  - { offset: 0x575457, size: 0x8, addend: 0x0, symName: __ZN4juce18OggVorbisNamespaceL12_44c4_s_p7_1E, symObjAddr: 0x74E878, symBinAddr: 0x100757210, symSize: 0x0 }
  - { offset: 0x575472, size: 0x8, addend: 0x0, symName: __ZN4juce18OggVorbisNamespaceL27_vq_lengthlist__44c4_s_p7_1E, symObjAddr: 0x6ACAA0, symBinAddr: 0x10068B0C0, symSize: 0x0 }
  - { offset: 0x57548D, size: 0x8, addend: 0x0, symName: __ZN4juce18OggVorbisNamespaceL26_vq_quantlist__44c4_s_p7_1E, symObjAddr: 0x6ACB20, symBinAddr: 0x10068B140, symSize: 0x0 }
  - { offset: 0x5754A8, size: 0x8, addend: 0x0, symName: __ZN4juce18OggVorbisNamespaceL12_44c4_s_p8_0E, symObjAddr: 0x74E8C0, symBinAddr: 0x100757258, symSize: 0x0 }
  - { offset: 0x5754C3, size: 0x8, addend: 0x0, symName: __ZN4juce18OggVorbisNamespaceL27_vq_lengthlist__44c4_s_p8_0E, symObjAddr: 0x6ACB78, symBinAddr: 0x10068B198, symSize: 0x0 }
  - { offset: 0x5754DE, size: 0x8, addend: 0x0, symName: __ZN4juce18OggVorbisNamespaceL26_vq_quantlist__44c4_s_p8_0E, symObjAddr: 0x6ACC28, symBinAddr: 0x10068B248, symSize: 0x0 }
  - { offset: 0x5754F9, size: 0x8, addend: 0x0, symName: __ZN4juce18OggVorbisNamespaceL12_44c4_s_p8_1E, symObjAddr: 0x74E908, symBinAddr: 0x1007572A0, symSize: 0x0 }
  - { offset: 0x575514, size: 0x8, addend: 0x0, symName: __ZN4juce18OggVorbisNamespaceL27_vq_lengthlist__44c4_s_p8_1E, symObjAddr: 0x6ACC90, symBinAddr: 0x10068B2B0, symSize: 0x0 }
  - { offset: 0x57552F, size: 0x8, addend: 0x0, symName: __ZN4juce18OggVorbisNamespaceL26_vq_quantlist__44c4_s_p8_1E, symObjAddr: 0x6ACCB0, symBinAddr: 0x10068B2D0, symSize: 0x0 }
  - { offset: 0x57554A, size: 0x8, addend: 0x0, symName: __ZN4juce18OggVorbisNamespaceL12_44c4_s_p9_0E, symObjAddr: 0x74E950, symBinAddr: 0x1007572E8, symSize: 0x0 }
  - { offset: 0x575565, size: 0x8, addend: 0x0, symName: __ZN4juce18OggVorbisNamespaceL27_vq_lengthlist__44c4_s_p9_0E, symObjAddr: 0x6ACCD8, symBinAddr: 0x10068B2F8, symSize: 0x0 }
  - { offset: 0x575580, size: 0x8, addend: 0x0, symName: __ZN4juce18OggVorbisNamespaceL26_vq_quantlist__44c4_s_p9_0E, symObjAddr: 0x6ACD88, symBinAddr: 0x10068B3A8, symSize: 0x0 }
  - { offset: 0x57559B, size: 0x8, addend: 0x0, symName: __ZN4juce18OggVorbisNamespaceL12_44c4_s_p9_1E, symObjAddr: 0x74E998, symBinAddr: 0x100757330, symSize: 0x0 }
  - { offset: 0x5755B6, size: 0x8, addend: 0x0, symName: __ZN4juce18OggVorbisNamespaceL27_vq_lengthlist__44c4_s_p9_1E, symObjAddr: 0x6ACDF0, symBinAddr: 0x10068B410, symSize: 0x0 }
  - { offset: 0x5755D1, size: 0x8, addend: 0x0, symName: __ZN4juce18OggVorbisNamespaceL26_vq_quantlist__44c4_s_p9_1E, symObjAddr: 0x6ACED8, symBinAddr: 0x10068B4F8, symSize: 0x0 }
  - { offset: 0x5755EC, size: 0x8, addend: 0x0, symName: __ZN4juce18OggVorbisNamespaceL12_44c4_s_p9_2E, symObjAddr: 0x74E9E0, symBinAddr: 0x100757378, symSize: 0x0 }
  - { offset: 0x575607, size: 0x8, addend: 0x0, symName: __ZN4juce18OggVorbisNamespaceL27_vq_lengthlist__44c4_s_p9_2E, symObjAddr: 0x6ACF50, symBinAddr: 0x10068B570, symSize: 0x0 }
  - { offset: 0x575622, size: 0x8, addend: 0x0, symName: __ZN4juce18OggVorbisNamespaceL26_vq_quantlist__44c4_s_p9_2E, symObjAddr: 0x6AD110, symBinAddr: 0x10068B730, symSize: 0x0 }
  - { offset: 0x57563D, size: 0x8, addend: 0x0, symName: __ZN4juce18OggVorbisNamespaceL23_huff_book__44c4_s_longE, symObjAddr: 0x74E638, symBinAddr: 0x100756FD0, symSize: 0x0 }
  - { offset: 0x575658, size: 0x8, addend: 0x0, symName: __ZN4juce18OggVorbisNamespaceL29_huff_lengthlist__44c4_s_longE, symObjAddr: 0x6AD1B8, symBinAddr: 0x10068B7D8, symSize: 0x0 }
  - { offset: 0x575671, size: 0x8, addend: 0x0, symName: __ZN4juce18OggVorbisNamespaceL10_res_44s_5E, symObjAddr: 0x74B630, symBinAddr: 0x100753FC8, symSize: 0x0 }
  - { offset: 0x57568C, size: 0x8, addend: 0x0, symName: __ZN4juce18OggVorbisNamespaceL24_huff_book__44c5_s_shortE, symObjAddr: 0x74EA28, symBinAddr: 0x1007573C0, symSize: 0x0 }
  - { offset: 0x5756A7, size: 0x8, addend: 0x0, symName: __ZN4juce18OggVorbisNamespaceL30_huff_lengthlist__44c5_s_shortE, symObjAddr: 0x6AD21C, symBinAddr: 0x10068B83C, symSize: 0x0 }
  - { offset: 0x5756C0, size: 0x8, addend: 0x0, symName: __ZN4juce18OggVorbisNamespaceL14_resbook_44s_5E, symObjAddr: 0x74EA70, symBinAddr: 0x100757408, symSize: 0x0 }
  - { offset: 0x5756DB, size: 0x8, addend: 0x0, symName: __ZN4juce18OggVorbisNamespaceL12_44c5_s_p1_0E, symObjAddr: 0x74EC38, symBinAddr: 0x1007575D0, symSize: 0x0 }
  - { offset: 0x5756F6, size: 0x8, addend: 0x0, symName: __ZN4juce18OggVorbisNamespaceL27_vq_lengthlist__44c5_s_p1_0E, symObjAddr: 0x6AD298, symBinAddr: 0x10068B8B8, symSize: 0x0 }
  - { offset: 0x575711, size: 0x8, addend: 0x0, symName: __ZN4juce18OggVorbisNamespaceL26_vq_quantlist__44c5_s_p1_0E, symObjAddr: 0x6AD280, symBinAddr: 0x10068B8A0, symSize: 0x0 }
  - { offset: 0x57572C, size: 0x8, addend: 0x0, symName: __ZN4juce18OggVorbisNamespaceL12_44c5_s_p2_0E, symObjAddr: 0x74EC80, symBinAddr: 0x100757618, symSize: 0x0 }
  - { offset: 0x575747, size: 0x8, addend: 0x0, symName: __ZN4juce18OggVorbisNamespaceL27_vq_lengthlist__44c5_s_p2_0E, symObjAddr: 0x6AEC68, symBinAddr: 0x10068D288, symSize: 0x0 }
  - { offset: 0x575762, size: 0x8, addend: 0x0, symName: __ZN4juce18OggVorbisNamespaceL26_vq_quantlist__44c5_s_p2_0E, symObjAddr: 0x6AEC40, symBinAddr: 0x10068D260, symSize: 0x0 }
  - { offset: 0x57577D, size: 0x8, addend: 0x0, symName: __ZN4juce18OggVorbisNamespaceL12_44c5_s_p3_0E, symObjAddr: 0x74ECC8, symBinAddr: 0x100757660, symSize: 0x0 }
  - { offset: 0x575798, size: 0x8, addend: 0x0, symName: __ZN4juce18OggVorbisNamespaceL27_vq_lengthlist__44c5_s_p3_0E, symObjAddr: 0x6AEF08, symBinAddr: 0x10068D528, symSize: 0x0 }
  - { offset: 0x5757B3, size: 0x8, addend: 0x0, symName: __ZN4juce18OggVorbisNamespaceL26_vq_quantlist__44c5_s_p3_0E, symObjAddr: 0x6AEEE0, symBinAddr: 0x10068D500, symSize: 0x0 }
  - { offset: 0x5757CE, size: 0x8, addend: 0x0, symName: __ZN4juce18OggVorbisNamespaceL12_44c5_s_p4_0E, symObjAddr: 0x74ED10, symBinAddr: 0x1007576A8, symSize: 0x0 }
  - { offset: 0x5757E9, size: 0x8, addend: 0x0, symName: __ZN4juce18OggVorbisNamespaceL27_vq_lengthlist__44c5_s_p4_0E, symObjAddr: 0x6AF1C8, symBinAddr: 0x10068D7E8, symSize: 0x0 }
  - { offset: 0x575804, size: 0x8, addend: 0x0, symName: __ZN4juce18OggVorbisNamespaceL26_vq_quantlist__44c5_s_p4_0E, symObjAddr: 0x6AF180, symBinAddr: 0x10068D7A0, symSize: 0x0 }
  - { offset: 0x57581F, size: 0x8, addend: 0x0, symName: __ZN4juce18OggVorbisNamespaceL12_44c5_s_p5_0E, symObjAddr: 0x74ED58, symBinAddr: 0x1007576F0, symSize: 0x0 }
  - { offset: 0x57583A, size: 0x8, addend: 0x0, symName: __ZN4juce18OggVorbisNamespaceL27_vq_lengthlist__44c5_s_p5_0E, symObjAddr: 0x6AF219, symBinAddr: 0x10068D839, symSize: 0x0 }
  - { offset: 0x575855, size: 0x8, addend: 0x0, symName: __ZN4juce18OggVorbisNamespaceL26_vq_quantlist__44c5_s_p5_0E, symObjAddr: 0x6AF270, symBinAddr: 0x10068D890, symSize: 0x0 }
  - { offset: 0x575870, size: 0x8, addend: 0x0, symName: __ZN4juce18OggVorbisNamespaceL12_44c5_s_p6_0E, symObjAddr: 0x74EDA0, symBinAddr: 0x100757738, symSize: 0x0 }
  - { offset: 0x57588B, size: 0x8, addend: 0x0, symName: __ZN4juce18OggVorbisNamespaceL27_vq_lengthlist__44c5_s_p6_0E, symObjAddr: 0x6AF2B8, symBinAddr: 0x10068D8D8, symSize: 0x0 }
  - { offset: 0x5758A6, size: 0x8, addend: 0x0, symName: __ZN4juce18OggVorbisNamespaceL26_vq_quantlist__44c5_s_p6_0E, symObjAddr: 0x6AF3E0, symBinAddr: 0x10068DA00, symSize: 0x0 }
  - { offset: 0x5758C1, size: 0x8, addend: 0x0, symName: __ZN4juce18OggVorbisNamespaceL12_44c5_s_p7_0E, symObjAddr: 0x74EDE8, symBinAddr: 0x100757780, symSize: 0x0 }
  - { offset: 0x5758DC, size: 0x8, addend: 0x0, symName: __ZN4juce18OggVorbisNamespaceL27_vq_lengthlist__44c5_s_p7_0E, symObjAddr: 0x6AF468, symBinAddr: 0x10068DA88, symSize: 0x0 }
  - { offset: 0x5758F7, size: 0x8, addend: 0x0, symName: __ZN4juce18OggVorbisNamespaceL26_vq_quantlist__44c5_s_p7_0E, symObjAddr: 0x6AF4C0, symBinAddr: 0x10068DAE0, symSize: 0x0 }
  - { offset: 0x575912, size: 0x8, addend: 0x0, symName: __ZN4juce18OggVorbisNamespaceL12_44c5_s_p7_1E, symObjAddr: 0x74EE30, symBinAddr: 0x1007577C8, symSize: 0x0 }
  - { offset: 0x57592D, size: 0x8, addend: 0x0, symName: __ZN4juce18OggVorbisNamespaceL27_vq_lengthlist__44c5_s_p7_1E, symObjAddr: 0x6AF4D8, symBinAddr: 0x10068DAF8, symSize: 0x0 }
  - { offset: 0x575948, size: 0x8, addend: 0x0, symName: __ZN4juce18OggVorbisNamespaceL26_vq_quantlist__44c5_s_p7_1E, symObjAddr: 0x6AF558, symBinAddr: 0x10068DB78, symSize: 0x0 }
  - { offset: 0x575963, size: 0x8, addend: 0x0, symName: __ZN4juce18OggVorbisNamespaceL12_44c5_s_p8_0E, symObjAddr: 0x74EE78, symBinAddr: 0x100757810, symSize: 0x0 }
  - { offset: 0x57597E, size: 0x8, addend: 0x0, symName: __ZN4juce18OggVorbisNamespaceL27_vq_lengthlist__44c5_s_p8_0E, symObjAddr: 0x6AF5B0, symBinAddr: 0x10068DBD0, symSize: 0x0 }
  - { offset: 0x575999, size: 0x8, addend: 0x0, symName: __ZN4juce18OggVorbisNamespaceL26_vq_quantlist__44c5_s_p8_0E, symObjAddr: 0x6AF660, symBinAddr: 0x10068DC80, symSize: 0x0 }
  - { offset: 0x5759B4, size: 0x8, addend: 0x0, symName: __ZN4juce18OggVorbisNamespaceL12_44c5_s_p8_1E, symObjAddr: 0x74EEC0, symBinAddr: 0x100757858, symSize: 0x0 }
  - { offset: 0x5759CF, size: 0x8, addend: 0x0, symName: __ZN4juce18OggVorbisNamespaceL27_vq_lengthlist__44c5_s_p8_1E, symObjAddr: 0x6AF6C8, symBinAddr: 0x10068DCE8, symSize: 0x0 }
  - { offset: 0x5759EA, size: 0x8, addend: 0x0, symName: __ZN4juce18OggVorbisNamespaceL26_vq_quantlist__44c5_s_p8_1E, symObjAddr: 0x6AF6E8, symBinAddr: 0x10068DD08, symSize: 0x0 }
  - { offset: 0x575A05, size: 0x8, addend: 0x0, symName: __ZN4juce18OggVorbisNamespaceL12_44c5_s_p9_0E, symObjAddr: 0x74EF08, symBinAddr: 0x1007578A0, symSize: 0x0 }
  - { offset: 0x575A20, size: 0x8, addend: 0x0, symName: __ZN4juce18OggVorbisNamespaceL27_vq_lengthlist__44c5_s_p9_0E, symObjAddr: 0x6AF710, symBinAddr: 0x10068DD30, symSize: 0x0 }
  - { offset: 0x575A3B, size: 0x8, addend: 0x0, symName: __ZN4juce18OggVorbisNamespaceL26_vq_quantlist__44c5_s_p9_0E, symObjAddr: 0x6AF7F8, symBinAddr: 0x10068DE18, symSize: 0x0 }
  - { offset: 0x575A56, size: 0x8, addend: 0x0, symName: __ZN4juce18OggVorbisNamespaceL12_44c5_s_p9_1E, symObjAddr: 0x74EF50, symBinAddr: 0x1007578E8, symSize: 0x0 }
  - { offset: 0x575A71, size: 0x8, addend: 0x0, symName: __ZN4juce18OggVorbisNamespaceL27_vq_lengthlist__44c5_s_p9_1E, symObjAddr: 0x6AF870, symBinAddr: 0x10068DE90, symSize: 0x0 }
  - { offset: 0x575A8C, size: 0x8, addend: 0x0, symName: __ZN4juce18OggVorbisNamespaceL26_vq_quantlist__44c5_s_p9_1E, symObjAddr: 0x6AF998, symBinAddr: 0x10068DFB8, symSize: 0x0 }
  - { offset: 0x575AA7, size: 0x8, addend: 0x0, symName: __ZN4juce18OggVorbisNamespaceL12_44c5_s_p9_2E, symObjAddr: 0x74EF98, symBinAddr: 0x100757930, symSize: 0x0 }
  - { offset: 0x575AC2, size: 0x8, addend: 0x0, symName: __ZN4juce18OggVorbisNamespaceL27_vq_lengthlist__44c5_s_p9_2E, symObjAddr: 0x6AFA20, symBinAddr: 0x10068E040, symSize: 0x0 }
  - { offset: 0x575ADD, size: 0x8, addend: 0x0, symName: __ZN4juce18OggVorbisNamespaceL26_vq_quantlist__44c5_s_p9_2E, symObjAddr: 0x6AFBE0, symBinAddr: 0x10068E200, symSize: 0x0 }
  - { offset: 0x575AF8, size: 0x8, addend: 0x0, symName: __ZN4juce18OggVorbisNamespaceL23_huff_book__44c5_s_longE, symObjAddr: 0x74EBF0, symBinAddr: 0x100757588, symSize: 0x0 }
  - { offset: 0x575B13, size: 0x8, addend: 0x0, symName: __ZN4juce18OggVorbisNamespaceL29_huff_lengthlist__44c5_s_longE, symObjAddr: 0x6AFC88, symBinAddr: 0x10068E2A8, symSize: 0x0 }
  - { offset: 0x575B2C, size: 0x8, addend: 0x0, symName: __ZN4juce18OggVorbisNamespaceL10_res_44s_6E, symObjAddr: 0x74B6A0, symBinAddr: 0x100754038, symSize: 0x0 }
  - { offset: 0x575B45, size: 0x8, addend: 0x0, symName: __ZN4juce18OggVorbisNamespaceL16_residue_44_highE, symObjAddr: 0x6AFCF0, symBinAddr: 0x10068E310, symSize: 0x0 }
  - { offset: 0x575B60, size: 0x8, addend: 0x0, symName: __ZN4juce18OggVorbisNamespaceL24_huff_book__44c6_s_shortE, symObjAddr: 0x74EFE0, symBinAddr: 0x100757978, symSize: 0x0 }
  - { offset: 0x575B7B, size: 0x8, addend: 0x0, symName: __ZN4juce18OggVorbisNamespaceL30_huff_lengthlist__44c6_s_shortE, symObjAddr: 0x6B0810, symBinAddr: 0x10068EE30, symSize: 0x0 }
  - { offset: 0x575B94, size: 0x8, addend: 0x0, symName: __ZN4juce18OggVorbisNamespaceL14_resbook_44s_6E, symObjAddr: 0x74F028, symBinAddr: 0x1007579C0, symSize: 0x0 }
  - { offset: 0x575BAF, size: 0x8, addend: 0x0, symName: __ZN4juce18OggVorbisNamespaceL12_44c6_s_p1_0E, symObjAddr: 0x74F1F0, symBinAddr: 0x100757B88, symSize: 0x0 }
  - { offset: 0x575BCA, size: 0x8, addend: 0x0, symName: __ZN4juce18OggVorbisNamespaceL27_vq_lengthlist__44c6_s_p1_0E, symObjAddr: 0x6B0874, symBinAddr: 0x10068EE94, symSize: 0x0 }
  - { offset: 0x575BE5, size: 0x8, addend: 0x0, symName: __ZN4juce18OggVorbisNamespaceL26_vq_quantlist__44c6_s_p1_0E, symObjAddr: 0x6B08C8, symBinAddr: 0x10068EEE8, symSize: 0x0 }
  - { offset: 0x575C00, size: 0x8, addend: 0x0, symName: __ZN4juce18OggVorbisNamespaceL12_44c6_s_p2_0E, symObjAddr: 0x74F238, symBinAddr: 0x100757BD0, symSize: 0x0 }
  - { offset: 0x575C1B, size: 0x8, addend: 0x0, symName: __ZN4juce18OggVorbisNamespaceL27_vq_lengthlist__44c6_s_p2_0E, symObjAddr: 0x6B08E0, symBinAddr: 0x10068EF00, symSize: 0x0 }
  - { offset: 0x575C36, size: 0x8, addend: 0x0, symName: __ZN4juce18OggVorbisNamespaceL26_vq_quantlist__44c6_s_p2_0E, symObjAddr: 0x6B0B58, symBinAddr: 0x10068F178, symSize: 0x0 }
  - { offset: 0x575C51, size: 0x8, addend: 0x0, symName: __ZN4juce18OggVorbisNamespaceL12_44c6_s_p3_0E, symObjAddr: 0x74F280, symBinAddr: 0x100757C18, symSize: 0x0 }
  - { offset: 0x575C6C, size: 0x8, addend: 0x0, symName: __ZN4juce18OggVorbisNamespaceL27_vq_lengthlist__44c6_s_p3_0E, symObjAddr: 0x6B0BC8, symBinAddr: 0x10068F1E8, symSize: 0x0 }
  - { offset: 0x575C87, size: 0x8, addend: 0x0, symName: __ZN4juce18OggVorbisNamespaceL26_vq_quantlist__44c6_s_p3_0E, symObjAddr: 0x6B0B80, symBinAddr: 0x10068F1A0, symSize: 0x0 }
  - { offset: 0x575CA2, size: 0x8, addend: 0x0, symName: __ZN4juce18OggVorbisNamespaceL12_44c6_s_p4_0E, symObjAddr: 0x74F2C8, symBinAddr: 0x100757C60, symSize: 0x0 }
  - { offset: 0x575CBD, size: 0x8, addend: 0x0, symName: __ZN4juce18OggVorbisNamespaceL27_vq_lengthlist__44c6_s_p4_0E, symObjAddr: 0x6B0CA8, symBinAddr: 0x10068F2C8, symSize: 0x0 }
  - { offset: 0x575CD8, size: 0x8, addend: 0x0, symName: __ZN4juce18OggVorbisNamespaceL26_vq_quantlist__44c6_s_p4_0E, symObjAddr: 0x6B0C20, symBinAddr: 0x10068F240, symSize: 0x0 }
  - { offset: 0x575CF3, size: 0x8, addend: 0x0, symName: __ZN4juce18OggVorbisNamespaceL12_44c6_s_p5_0E, symObjAddr: 0x74F310, symBinAddr: 0x100757CA8, symSize: 0x0 }
  - { offset: 0x575D0E, size: 0x8, addend: 0x0, symName: __ZN4juce18OggVorbisNamespaceL27_vq_lengthlist__44c6_s_p5_0E, symObjAddr: 0x6B0DC9, symBinAddr: 0x10068F3E9, symSize: 0x0 }
  - { offset: 0x575D29, size: 0x8, addend: 0x0, symName: __ZN4juce18OggVorbisNamespaceL26_vq_quantlist__44c6_s_p5_0E, symObjAddr: 0x6B0E20, symBinAddr: 0x10068F440, symSize: 0x0 }
  - { offset: 0x575D44, size: 0x8, addend: 0x0, symName: __ZN4juce18OggVorbisNamespaceL12_44c6_s_p5_1E, symObjAddr: 0x74F358, symBinAddr: 0x100757CF0, symSize: 0x0 }
  - { offset: 0x575D5F, size: 0x8, addend: 0x0, symName: __ZN4juce18OggVorbisNamespaceL27_vq_lengthlist__44c6_s_p5_1E, symObjAddr: 0x6B0E38, symBinAddr: 0x10068F458, symSize: 0x0 }
  - { offset: 0x575D7A, size: 0x8, addend: 0x0, symName: __ZN4juce18OggVorbisNamespaceL26_vq_quantlist__44c6_s_p5_1E, symObjAddr: 0x6B0EB8, symBinAddr: 0x10068F4D8, symSize: 0x0 }
  - { offset: 0x575D95, size: 0x8, addend: 0x0, symName: __ZN4juce18OggVorbisNamespaceL12_44c6_s_p6_0E, symObjAddr: 0x74F3A0, symBinAddr: 0x100757D38, symSize: 0x0 }
  - { offset: 0x575DB0, size: 0x8, addend: 0x0, symName: __ZN4juce18OggVorbisNamespaceL27_vq_lengthlist__44c6_s_p6_0E, symObjAddr: 0x6B0F78, symBinAddr: 0x10068F598, symSize: 0x0 }
  - { offset: 0x575DCB, size: 0x8, addend: 0x0, symName: __ZN4juce18OggVorbisNamespaceL26_vq_quantlist__44c6_s_p6_0E, symObjAddr: 0x6B0F10, symBinAddr: 0x10068F530, symSize: 0x0 }
  - { offset: 0x575DE6, size: 0x8, addend: 0x0, symName: __ZN4juce18OggVorbisNamespaceL12_44c6_s_p6_1E, symObjAddr: 0x74F3E8, symBinAddr: 0x100757D80, symSize: 0x0 }
  - { offset: 0x575E01, size: 0x8, addend: 0x0, symName: __ZN4juce18OggVorbisNamespaceL27_vq_lengthlist__44c6_s_p6_1E, symObjAddr: 0x6B1021, symBinAddr: 0x10068F641, symSize: 0x0 }
  - { offset: 0x575E1C, size: 0x8, addend: 0x0, symName: __ZN4juce18OggVorbisNamespaceL26_vq_quantlist__44c6_s_p6_1E, symObjAddr: 0x6B1040, symBinAddr: 0x10068F660, symSize: 0x0 }
  - { offset: 0x575E37, size: 0x8, addend: 0x0, symName: __ZN4juce18OggVorbisNamespaceL12_44c6_s_p7_0E, symObjAddr: 0x74F430, symBinAddr: 0x100757DC8, symSize: 0x0 }
  - { offset: 0x575E52, size: 0x8, addend: 0x0, symName: __ZN4juce18OggVorbisNamespaceL27_vq_lengthlist__44c6_s_p7_0E, symObjAddr: 0x6B1068, symBinAddr: 0x10068F688, symSize: 0x0 }
  - { offset: 0x575E6D, size: 0x8, addend: 0x0, symName: __ZN4juce18OggVorbisNamespaceL26_vq_quantlist__44c6_s_p7_0E, symObjAddr: 0x6B1118, symBinAddr: 0x10068F738, symSize: 0x0 }
  - { offset: 0x575E88, size: 0x8, addend: 0x0, symName: __ZN4juce18OggVorbisNamespaceL12_44c6_s_p7_1E, symObjAddr: 0x74F478, symBinAddr: 0x100757E10, symSize: 0x0 }
  - { offset: 0x575EA3, size: 0x8, addend: 0x0, symName: __ZN4juce18OggVorbisNamespaceL27_vq_lengthlist__44c6_s_p7_1E, symObjAddr: 0x6B1180, symBinAddr: 0x10068F7A0, symSize: 0x0 }
  - { offset: 0x575EBE, size: 0x8, addend: 0x0, symName: __ZN4juce18OggVorbisNamespaceL26_vq_quantlist__44c6_s_p7_1E, symObjAddr: 0x6B1200, symBinAddr: 0x10068F820, symSize: 0x0 }
  - { offset: 0x575ED9, size: 0x8, addend: 0x0, symName: __ZN4juce18OggVorbisNamespaceL12_44c6_s_p8_0E, symObjAddr: 0x74F4C0, symBinAddr: 0x100757E58, symSize: 0x0 }
  - { offset: 0x575EF4, size: 0x8, addend: 0x0, symName: __ZN4juce18OggVorbisNamespaceL27_vq_lengthlist__44c6_s_p8_0E, symObjAddr: 0x6B1258, symBinAddr: 0x10068F878, symSize: 0x0 }
  - { offset: 0x575F0F, size: 0x8, addend: 0x0, symName: __ZN4juce18OggVorbisNamespaceL26_vq_quantlist__44c6_s_p8_0E, symObjAddr: 0x6B1340, symBinAddr: 0x10068F960, symSize: 0x0 }
  - { offset: 0x575F2A, size: 0x8, addend: 0x0, symName: __ZN4juce18OggVorbisNamespaceL12_44c6_s_p8_1E, symObjAddr: 0x74F508, symBinAddr: 0x100757EA0, symSize: 0x0 }
  - { offset: 0x575F45, size: 0x8, addend: 0x0, symName: __ZN4juce18OggVorbisNamespaceL27_vq_lengthlist__44c6_s_p8_1E, symObjAddr: 0x6B13B8, symBinAddr: 0x10068F9D8, symSize: 0x0 }
  - { offset: 0x575F60, size: 0x8, addend: 0x0, symName: __ZN4juce18OggVorbisNamespaceL26_vq_quantlist__44c6_s_p8_1E, symObjAddr: 0x6B1578, symBinAddr: 0x10068FB98, symSize: 0x0 }
  - { offset: 0x575F7B, size: 0x8, addend: 0x0, symName: __ZN4juce18OggVorbisNamespaceL12_44c6_s_p9_0E, symObjAddr: 0x74F550, symBinAddr: 0x100757EE8, symSize: 0x0 }
  - { offset: 0x575F96, size: 0x8, addend: 0x0, symName: __ZN4juce18OggVorbisNamespaceL27_vq_lengthlist__44c6_s_p9_0E, symObjAddr: 0x6B1620, symBinAddr: 0x10068FC40, symSize: 0x0 }
  - { offset: 0x575FB1, size: 0x8, addend: 0x0, symName: __ZN4juce18OggVorbisNamespaceL26_vq_quantlist__44c6_s_p9_0E, symObjAddr: 0x6B16D0, symBinAddr: 0x10068FCF0, symSize: 0x0 }
  - { offset: 0x575FCC, size: 0x8, addend: 0x0, symName: __ZN4juce18OggVorbisNamespaceL12_44c6_s_p9_1E, symObjAddr: 0x74F598, symBinAddr: 0x100757F30, symSize: 0x0 }
  - { offset: 0x575FE7, size: 0x8, addend: 0x0, symName: __ZN4juce18OggVorbisNamespaceL27_vq_lengthlist__44c6_s_p9_1E, symObjAddr: 0x6B1738, symBinAddr: 0x10068FD58, symSize: 0x0 }
  - { offset: 0x576002, size: 0x8, addend: 0x0, symName: __ZN4juce18OggVorbisNamespaceL26_vq_quantlist__44c6_s_p9_1E, symObjAddr: 0x6B17E8, symBinAddr: 0x10068FE08, symSize: 0x0 }
  - { offset: 0x57601D, size: 0x8, addend: 0x0, symName: __ZN4juce18OggVorbisNamespaceL12_44c6_s_p9_2E, symObjAddr: 0x74F5E0, symBinAddr: 0x100757F78, symSize: 0x0 }
  - { offset: 0x576038, size: 0x8, addend: 0x0, symName: __ZN4juce18OggVorbisNamespaceL27_vq_lengthlist__44c6_s_p9_2E, symObjAddr: 0x6B1850, symBinAddr: 0x10068FE70, symSize: 0x0 }
  - { offset: 0x576053, size: 0x8, addend: 0x0, symName: __ZN4juce18OggVorbisNamespaceL26_vq_quantlist__44c6_s_p9_2E, symObjAddr: 0x6B1888, symBinAddr: 0x10068FEA8, symSize: 0x0 }
  - { offset: 0x57606E, size: 0x8, addend: 0x0, symName: __ZN4juce18OggVorbisNamespaceL23_huff_book__44c6_s_longE, symObjAddr: 0x74F1A8, symBinAddr: 0x100757B40, symSize: 0x0 }
  - { offset: 0x576089, size: 0x8, addend: 0x0, symName: __ZN4juce18OggVorbisNamespaceL29_huff_lengthlist__44c6_s_longE, symObjAddr: 0x6B1A10, symBinAddr: 0x100690030, symSize: 0x0 }
  - { offset: 0x5760A2, size: 0x8, addend: 0x0, symName: __ZN4juce18OggVorbisNamespaceL10_res_44s_7E, symObjAddr: 0x74B710, symBinAddr: 0x1007540A8, symSize: 0x0 }
  - { offset: 0x5760BD, size: 0x8, addend: 0x0, symName: __ZN4juce18OggVorbisNamespaceL24_huff_book__44c7_s_shortE, symObjAddr: 0x74F628, symBinAddr: 0x100757FC0, symSize: 0x0 }
  - { offset: 0x5760D8, size: 0x8, addend: 0x0, symName: __ZN4juce18OggVorbisNamespaceL30_huff_lengthlist__44c7_s_shortE, symObjAddr: 0x6B1A74, symBinAddr: 0x100690094, symSize: 0x0 }
  - { offset: 0x5760F1, size: 0x8, addend: 0x0, symName: __ZN4juce18OggVorbisNamespaceL14_resbook_44s_7E, symObjAddr: 0x74F670, symBinAddr: 0x100758008, symSize: 0x0 }
  - { offset: 0x57610C, size: 0x8, addend: 0x0, symName: __ZN4juce18OggVorbisNamespaceL12_44c7_s_p1_0E, symObjAddr: 0x74F838, symBinAddr: 0x1007581D0, symSize: 0x0 }
  - { offset: 0x576127, size: 0x8, addend: 0x0, symName: __ZN4juce18OggVorbisNamespaceL27_vq_lengthlist__44c7_s_p1_0E, symObjAddr: 0x6B1AD8, symBinAddr: 0x1006900F8, symSize: 0x0 }
  - { offset: 0x576142, size: 0x8, addend: 0x0, symName: __ZN4juce18OggVorbisNamespaceL26_vq_quantlist__44c7_s_p1_0E, symObjAddr: 0x6B1B30, symBinAddr: 0x100690150, symSize: 0x0 }
  - { offset: 0x57615D, size: 0x8, addend: 0x0, symName: __ZN4juce18OggVorbisNamespaceL12_44c7_s_p2_0E, symObjAddr: 0x74F880, symBinAddr: 0x100758218, symSize: 0x0 }
  - { offset: 0x576178, size: 0x8, addend: 0x0, symName: __ZN4juce18OggVorbisNamespaceL27_vq_lengthlist__44c7_s_p2_0E, symObjAddr: 0x6B1B48, symBinAddr: 0x100690168, symSize: 0x0 }
  - { offset: 0x576193, size: 0x8, addend: 0x0, symName: __ZN4juce18OggVorbisNamespaceL26_vq_quantlist__44c7_s_p2_0E, symObjAddr: 0x6B1DC0, symBinAddr: 0x1006903E0, symSize: 0x0 }
  - { offset: 0x5761AE, size: 0x8, addend: 0x0, symName: __ZN4juce18OggVorbisNamespaceL12_44c7_s_p3_0E, symObjAddr: 0x74F8C8, symBinAddr: 0x100758260, symSize: 0x0 }
  - { offset: 0x5761C9, size: 0x8, addend: 0x0, symName: __ZN4juce18OggVorbisNamespaceL27_vq_lengthlist__44c7_s_p3_0E, symObjAddr: 0x6B1E30, symBinAddr: 0x100690450, symSize: 0x0 }
  - { offset: 0x5761E4, size: 0x8, addend: 0x0, symName: __ZN4juce18OggVorbisNamespaceL26_vq_quantlist__44c7_s_p3_0E, symObjAddr: 0x6B1DE8, symBinAddr: 0x100690408, symSize: 0x0 }
  - { offset: 0x5761FF, size: 0x8, addend: 0x0, symName: __ZN4juce18OggVorbisNamespaceL12_44c7_s_p4_0E, symObjAddr: 0x74F910, symBinAddr: 0x1007582A8, symSize: 0x0 }
  - { offset: 0x57621A, size: 0x8, addend: 0x0, symName: __ZN4juce18OggVorbisNamespaceL27_vq_lengthlist__44c7_s_p4_0E, symObjAddr: 0x6B1F10, symBinAddr: 0x100690530, symSize: 0x0 }
  - { offset: 0x576235, size: 0x8, addend: 0x0, symName: __ZN4juce18OggVorbisNamespaceL26_vq_quantlist__44c7_s_p4_0E, symObjAddr: 0x6B1E88, symBinAddr: 0x1006904A8, symSize: 0x0 }
  - { offset: 0x576250, size: 0x8, addend: 0x0, symName: __ZN4juce18OggVorbisNamespaceL12_44c7_s_p5_0E, symObjAddr: 0x74F958, symBinAddr: 0x1007582F0, symSize: 0x0 }
  - { offset: 0x57626B, size: 0x8, addend: 0x0, symName: __ZN4juce18OggVorbisNamespaceL27_vq_lengthlist__44c7_s_p5_0E, symObjAddr: 0x6B2031, symBinAddr: 0x100690651, symSize: 0x0 }
  - { offset: 0x576286, size: 0x8, addend: 0x0, symName: __ZN4juce18OggVorbisNamespaceL26_vq_quantlist__44c7_s_p5_0E, symObjAddr: 0x6B2088, symBinAddr: 0x1006906A8, symSize: 0x0 }
  - { offset: 0x5762A1, size: 0x8, addend: 0x0, symName: __ZN4juce18OggVorbisNamespaceL12_44c7_s_p5_1E, symObjAddr: 0x74F9A0, symBinAddr: 0x100758338, symSize: 0x0 }
  - { offset: 0x5762BC, size: 0x8, addend: 0x0, symName: __ZN4juce18OggVorbisNamespaceL27_vq_lengthlist__44c7_s_p5_1E, symObjAddr: 0x6B20A0, symBinAddr: 0x1006906C0, symSize: 0x0 }
  - { offset: 0x5762D7, size: 0x8, addend: 0x0, symName: __ZN4juce18OggVorbisNamespaceL26_vq_quantlist__44c7_s_p5_1E, symObjAddr: 0x6B2120, symBinAddr: 0x100690740, symSize: 0x0 }
  - { offset: 0x5762F2, size: 0x8, addend: 0x0, symName: __ZN4juce18OggVorbisNamespaceL12_44c7_s_p6_0E, symObjAddr: 0x74F9E8, symBinAddr: 0x100758380, symSize: 0x0 }
  - { offset: 0x57630D, size: 0x8, addend: 0x0, symName: __ZN4juce18OggVorbisNamespaceL27_vq_lengthlist__44c7_s_p6_0E, symObjAddr: 0x6B21E0, symBinAddr: 0x100690800, symSize: 0x0 }
  - { offset: 0x576328, size: 0x8, addend: 0x0, symName: __ZN4juce18OggVorbisNamespaceL26_vq_quantlist__44c7_s_p6_0E, symObjAddr: 0x6B2178, symBinAddr: 0x100690798, symSize: 0x0 }
  - { offset: 0x576343, size: 0x8, addend: 0x0, symName: __ZN4juce18OggVorbisNamespaceL12_44c7_s_p6_1E, symObjAddr: 0x74FA30, symBinAddr: 0x1007583C8, symSize: 0x0 }
  - { offset: 0x57635E, size: 0x8, addend: 0x0, symName: __ZN4juce18OggVorbisNamespaceL27_vq_lengthlist__44c7_s_p6_1E, symObjAddr: 0x6B2289, symBinAddr: 0x1006908A9, symSize: 0x0 }
  - { offset: 0x576379, size: 0x8, addend: 0x0, symName: __ZN4juce18OggVorbisNamespaceL26_vq_quantlist__44c7_s_p6_1E, symObjAddr: 0x6B22A8, symBinAddr: 0x1006908C8, symSize: 0x0 }
  - { offset: 0x576394, size: 0x8, addend: 0x0, symName: __ZN4juce18OggVorbisNamespaceL12_44c7_s_p7_0E, symObjAddr: 0x74FA78, symBinAddr: 0x100758410, symSize: 0x0 }
  - { offset: 0x5763AF, size: 0x8, addend: 0x0, symName: __ZN4juce18OggVorbisNamespaceL27_vq_lengthlist__44c7_s_p7_0E, symObjAddr: 0x6B22D0, symBinAddr: 0x1006908F0, symSize: 0x0 }
  - { offset: 0x5763CA, size: 0x8, addend: 0x0, symName: __ZN4juce18OggVorbisNamespaceL26_vq_quantlist__44c7_s_p7_0E, symObjAddr: 0x6B2380, symBinAddr: 0x1006909A0, symSize: 0x0 }
  - { offset: 0x5763E5, size: 0x8, addend: 0x0, symName: __ZN4juce18OggVorbisNamespaceL12_44c7_s_p7_1E, symObjAddr: 0x74FAC0, symBinAddr: 0x100758458, symSize: 0x0 }
  - { offset: 0x576400, size: 0x8, addend: 0x0, symName: __ZN4juce18OggVorbisNamespaceL27_vq_lengthlist__44c7_s_p7_1E, symObjAddr: 0x6B23E8, symBinAddr: 0x100690A08, symSize: 0x0 }
  - { offset: 0x57641B, size: 0x8, addend: 0x0, symName: __ZN4juce18OggVorbisNamespaceL26_vq_quantlist__44c7_s_p7_1E, symObjAddr: 0x6B2468, symBinAddr: 0x100690A88, symSize: 0x0 }
  - { offset: 0x576436, size: 0x8, addend: 0x0, symName: __ZN4juce18OggVorbisNamespaceL12_44c7_s_p8_0E, symObjAddr: 0x74FB08, symBinAddr: 0x1007584A0, symSize: 0x0 }
  - { offset: 0x576451, size: 0x8, addend: 0x0, symName: __ZN4juce18OggVorbisNamespaceL27_vq_lengthlist__44c7_s_p8_0E, symObjAddr: 0x6B24C0, symBinAddr: 0x100690AE0, symSize: 0x0 }
  - { offset: 0x57646C, size: 0x8, addend: 0x0, symName: __ZN4juce18OggVorbisNamespaceL26_vq_quantlist__44c7_s_p8_0E, symObjAddr: 0x6B25A8, symBinAddr: 0x100690BC8, symSize: 0x0 }
  - { offset: 0x576487, size: 0x8, addend: 0x0, symName: __ZN4juce18OggVorbisNamespaceL12_44c7_s_p8_1E, symObjAddr: 0x74FB50, symBinAddr: 0x1007584E8, symSize: 0x0 }
  - { offset: 0x5764A2, size: 0x8, addend: 0x0, symName: __ZN4juce18OggVorbisNamespaceL27_vq_lengthlist__44c7_s_p8_1E, symObjAddr: 0x6B2620, symBinAddr: 0x100690C40, symSize: 0x0 }
  - { offset: 0x5764BD, size: 0x8, addend: 0x0, symName: __ZN4juce18OggVorbisNamespaceL26_vq_quantlist__44c7_s_p8_1E, symObjAddr: 0x6B27E0, symBinAddr: 0x100690E00, symSize: 0x0 }
  - { offset: 0x5764D8, size: 0x8, addend: 0x0, symName: __ZN4juce18OggVorbisNamespaceL12_44c7_s_p9_0E, symObjAddr: 0x74FB98, symBinAddr: 0x100758530, symSize: 0x0 }
  - { offset: 0x5764F3, size: 0x8, addend: 0x0, symName: __ZN4juce18OggVorbisNamespaceL27_vq_lengthlist__44c7_s_p9_0E, symObjAddr: 0x6B2888, symBinAddr: 0x100690EA8, symSize: 0x0 }
  - { offset: 0x57650E, size: 0x8, addend: 0x0, symName: __ZN4juce18OggVorbisNamespaceL26_vq_quantlist__44c7_s_p9_0E, symObjAddr: 0x6B2938, symBinAddr: 0x100690F58, symSize: 0x0 }
  - { offset: 0x576529, size: 0x8, addend: 0x0, symName: __ZN4juce18OggVorbisNamespaceL12_44c7_s_p9_1E, symObjAddr: 0x74FBE0, symBinAddr: 0x100758578, symSize: 0x0 }
  - { offset: 0x576544, size: 0x8, addend: 0x0, symName: __ZN4juce18OggVorbisNamespaceL27_vq_lengthlist__44c7_s_p9_1E, symObjAddr: 0x6B29A0, symBinAddr: 0x100690FC0, symSize: 0x0 }
  - { offset: 0x57655F, size: 0x8, addend: 0x0, symName: __ZN4juce18OggVorbisNamespaceL26_vq_quantlist__44c7_s_p9_1E, symObjAddr: 0x6B2A50, symBinAddr: 0x100691070, symSize: 0x0 }
  - { offset: 0x57657A, size: 0x8, addend: 0x0, symName: __ZN4juce18OggVorbisNamespaceL12_44c7_s_p9_2E, symObjAddr: 0x74FC28, symBinAddr: 0x1007585C0, symSize: 0x0 }
  - { offset: 0x576595, size: 0x8, addend: 0x0, symName: __ZN4juce18OggVorbisNamespaceL27_vq_lengthlist__44c7_s_p9_2E, symObjAddr: 0x6B2AB8, symBinAddr: 0x1006910D8, symSize: 0x0 }
  - { offset: 0x5765B0, size: 0x8, addend: 0x0, symName: __ZN4juce18OggVorbisNamespaceL26_vq_quantlist__44c7_s_p9_2E, symObjAddr: 0x6B2AF0, symBinAddr: 0x100691110, symSize: 0x0 }
  - { offset: 0x5765CB, size: 0x8, addend: 0x0, symName: __ZN4juce18OggVorbisNamespaceL23_huff_book__44c7_s_longE, symObjAddr: 0x74F7F0, symBinAddr: 0x100758188, symSize: 0x0 }
  - { offset: 0x5765E6, size: 0x8, addend: 0x0, symName: __ZN4juce18OggVorbisNamespaceL29_huff_lengthlist__44c7_s_longE, symObjAddr: 0x6B2C78, symBinAddr: 0x100691298, symSize: 0x0 }
  - { offset: 0x576601, size: 0x8, addend: 0x0, symName: __ZN4juce18OggVorbisNamespaceL10_res_44s_8E, symObjAddr: 0x74B780, symBinAddr: 0x100754118, symSize: 0x0 }
  - { offset: 0x57661C, size: 0x8, addend: 0x0, symName: __ZN4juce18OggVorbisNamespaceL24_huff_book__44c8_s_shortE, symObjAddr: 0x74FC70, symBinAddr: 0x100758608, symSize: 0x0 }
  - { offset: 0x576637, size: 0x8, addend: 0x0, symName: __ZN4juce18OggVorbisNamespaceL30_huff_lengthlist__44c8_s_shortE, symObjAddr: 0x6B2CDC, symBinAddr: 0x1006912FC, symSize: 0x0 }
  - { offset: 0x576650, size: 0x8, addend: 0x0, symName: __ZN4juce18OggVorbisNamespaceL14_resbook_44s_8E, symObjAddr: 0x74FCB8, symBinAddr: 0x100758650, symSize: 0x0 }
  - { offset: 0x57666B, size: 0x8, addend: 0x0, symName: __ZN4juce18OggVorbisNamespaceL12_44c8_s_p1_0E, symObjAddr: 0x74FE80, symBinAddr: 0x100758818, symSize: 0x0 }
  - { offset: 0x576686, size: 0x8, addend: 0x0, symName: __ZN4juce18OggVorbisNamespaceL27_vq_lengthlist__44c8_s_p1_0E, symObjAddr: 0x6B2D40, symBinAddr: 0x100691360, symSize: 0x0 }
  - { offset: 0x5766A1, size: 0x8, addend: 0x0, symName: __ZN4juce18OggVorbisNamespaceL26_vq_quantlist__44c8_s_p1_0E, symObjAddr: 0x6B2D98, symBinAddr: 0x1006913B8, symSize: 0x0 }
  - { offset: 0x5766BC, size: 0x8, addend: 0x0, symName: __ZN4juce18OggVorbisNamespaceL12_44c8_s_p2_0E, symObjAddr: 0x74FEC8, symBinAddr: 0x100758860, symSize: 0x0 }
  - { offset: 0x5766D7, size: 0x8, addend: 0x0, symName: __ZN4juce18OggVorbisNamespaceL27_vq_lengthlist__44c8_s_p2_0E, symObjAddr: 0x6B2DB0, symBinAddr: 0x1006913D0, symSize: 0x0 }
  - { offset: 0x5766F2, size: 0x8, addend: 0x0, symName: __ZN4juce18OggVorbisNamespaceL26_vq_quantlist__44c8_s_p2_0E, symObjAddr: 0x6B3028, symBinAddr: 0x100691648, symSize: 0x0 }
  - { offset: 0x57670D, size: 0x8, addend: 0x0, symName: __ZN4juce18OggVorbisNamespaceL12_44c8_s_p3_0E, symObjAddr: 0x74FF10, symBinAddr: 0x1007588A8, symSize: 0x0 }
  - { offset: 0x576728, size: 0x8, addend: 0x0, symName: __ZN4juce18OggVorbisNamespaceL27_vq_lengthlist__44c8_s_p3_0E, symObjAddr: 0x6B3098, symBinAddr: 0x1006916B8, symSize: 0x0 }
  - { offset: 0x576743, size: 0x8, addend: 0x0, symName: __ZN4juce18OggVorbisNamespaceL26_vq_quantlist__44c8_s_p3_0E, symObjAddr: 0x6B3050, symBinAddr: 0x100691670, symSize: 0x0 }
  - { offset: 0x57675E, size: 0x8, addend: 0x0, symName: __ZN4juce18OggVorbisNamespaceL12_44c8_s_p4_0E, symObjAddr: 0x74FF58, symBinAddr: 0x1007588F0, symSize: 0x0 }
  - { offset: 0x576779, size: 0x8, addend: 0x0, symName: __ZN4juce18OggVorbisNamespaceL27_vq_lengthlist__44c8_s_p4_0E, symObjAddr: 0x6B3178, symBinAddr: 0x100691798, symSize: 0x0 }
  - { offset: 0x576794, size: 0x8, addend: 0x0, symName: __ZN4juce18OggVorbisNamespaceL26_vq_quantlist__44c8_s_p4_0E, symObjAddr: 0x6B30F0, symBinAddr: 0x100691710, symSize: 0x0 }
  - { offset: 0x5767AF, size: 0x8, addend: 0x0, symName: __ZN4juce18OggVorbisNamespaceL12_44c8_s_p5_0E, symObjAddr: 0x74FFA0, symBinAddr: 0x100758938, symSize: 0x0 }
  - { offset: 0x5767CA, size: 0x8, addend: 0x0, symName: __ZN4juce18OggVorbisNamespaceL27_vq_lengthlist__44c8_s_p5_0E, symObjAddr: 0x6B3299, symBinAddr: 0x1006918B9, symSize: 0x0 }
  - { offset: 0x5767E5, size: 0x8, addend: 0x0, symName: __ZN4juce18OggVorbisNamespaceL26_vq_quantlist__44c8_s_p5_0E, symObjAddr: 0x6B32F0, symBinAddr: 0x100691910, symSize: 0x0 }
  - { offset: 0x576800, size: 0x8, addend: 0x0, symName: __ZN4juce18OggVorbisNamespaceL12_44c8_s_p5_1E, symObjAddr: 0x74FFE8, symBinAddr: 0x100758980, symSize: 0x0 }
  - { offset: 0x57681B, size: 0x8, addend: 0x0, symName: __ZN4juce18OggVorbisNamespaceL27_vq_lengthlist__44c8_s_p5_1E, symObjAddr: 0x6B3308, symBinAddr: 0x100691928, symSize: 0x0 }
  - { offset: 0x576836, size: 0x8, addend: 0x0, symName: __ZN4juce18OggVorbisNamespaceL26_vq_quantlist__44c8_s_p5_1E, symObjAddr: 0x6B3388, symBinAddr: 0x1006919A8, symSize: 0x0 }
  - { offset: 0x576851, size: 0x8, addend: 0x0, symName: __ZN4juce18OggVorbisNamespaceL12_44c8_s_p6_0E, symObjAddr: 0x750030, symBinAddr: 0x1007589C8, symSize: 0x0 }
  - { offset: 0x57686C, size: 0x8, addend: 0x0, symName: __ZN4juce18OggVorbisNamespaceL27_vq_lengthlist__44c8_s_p6_0E, symObjAddr: 0x6B3448, symBinAddr: 0x100691A68, symSize: 0x0 }
  - { offset: 0x576887, size: 0x8, addend: 0x0, symName: __ZN4juce18OggVorbisNamespaceL26_vq_quantlist__44c8_s_p6_0E, symObjAddr: 0x6B33E0, symBinAddr: 0x100691A00, symSize: 0x0 }
  - { offset: 0x5768A2, size: 0x8, addend: 0x0, symName: __ZN4juce18OggVorbisNamespaceL12_44c8_s_p6_1E, symObjAddr: 0x750078, symBinAddr: 0x100758A10, symSize: 0x0 }
  - { offset: 0x5768BD, size: 0x8, addend: 0x0, symName: __ZN4juce18OggVorbisNamespaceL27_vq_lengthlist__44c8_s_p6_1E, symObjAddr: 0x6B34F1, symBinAddr: 0x100691B11, symSize: 0x0 }
  - { offset: 0x5768D8, size: 0x8, addend: 0x0, symName: __ZN4juce18OggVorbisNamespaceL26_vq_quantlist__44c8_s_p6_1E, symObjAddr: 0x6B3510, symBinAddr: 0x100691B30, symSize: 0x0 }
  - { offset: 0x5768F3, size: 0x8, addend: 0x0, symName: __ZN4juce18OggVorbisNamespaceL12_44c8_s_p7_0E, symObjAddr: 0x7500C0, symBinAddr: 0x100758A58, symSize: 0x0 }
  - { offset: 0x57690E, size: 0x8, addend: 0x0, symName: __ZN4juce18OggVorbisNamespaceL27_vq_lengthlist__44c8_s_p7_0E, symObjAddr: 0x6B3538, symBinAddr: 0x100691B58, symSize: 0x0 }
  - { offset: 0x576929, size: 0x8, addend: 0x0, symName: __ZN4juce18OggVorbisNamespaceL26_vq_quantlist__44c8_s_p7_0E, symObjAddr: 0x6B35E8, symBinAddr: 0x100691C08, symSize: 0x0 }
  - { offset: 0x576944, size: 0x8, addend: 0x0, symName: __ZN4juce18OggVorbisNamespaceL12_44c8_s_p7_1E, symObjAddr: 0x750108, symBinAddr: 0x100758AA0, symSize: 0x0 }
  - { offset: 0x57695F, size: 0x8, addend: 0x0, symName: __ZN4juce18OggVorbisNamespaceL27_vq_lengthlist__44c8_s_p7_1E, symObjAddr: 0x6B3650, symBinAddr: 0x100691C70, symSize: 0x0 }
  - { offset: 0x57697A, size: 0x8, addend: 0x0, symName: __ZN4juce18OggVorbisNamespaceL26_vq_quantlist__44c8_s_p7_1E, symObjAddr: 0x6B36D0, symBinAddr: 0x100691CF0, symSize: 0x0 }
  - { offset: 0x576995, size: 0x8, addend: 0x0, symName: __ZN4juce18OggVorbisNamespaceL12_44c8_s_p8_0E, symObjAddr: 0x750150, symBinAddr: 0x100758AE8, symSize: 0x0 }
  - { offset: 0x5769B0, size: 0x8, addend: 0x0, symName: __ZN4juce18OggVorbisNamespaceL27_vq_lengthlist__44c8_s_p8_0E, symObjAddr: 0x6B3728, symBinAddr: 0x100691D48, symSize: 0x0 }
  - { offset: 0x5769CB, size: 0x8, addend: 0x0, symName: __ZN4juce18OggVorbisNamespaceL26_vq_quantlist__44c8_s_p8_0E, symObjAddr: 0x6B3810, symBinAddr: 0x100691E30, symSize: 0x0 }
  - { offset: 0x5769E6, size: 0x8, addend: 0x0, symName: __ZN4juce18OggVorbisNamespaceL12_44c8_s_p8_1E, symObjAddr: 0x750198, symBinAddr: 0x100758B30, symSize: 0x0 }
  - { offset: 0x576A01, size: 0x8, addend: 0x0, symName: __ZN4juce18OggVorbisNamespaceL27_vq_lengthlist__44c8_s_p8_1E, symObjAddr: 0x6B3888, symBinAddr: 0x100691EA8, symSize: 0x0 }
  - { offset: 0x576A1C, size: 0x8, addend: 0x0, symName: __ZN4juce18OggVorbisNamespaceL26_vq_quantlist__44c8_s_p8_1E, symObjAddr: 0x6B3A48, symBinAddr: 0x100692068, symSize: 0x0 }
  - { offset: 0x576A37, size: 0x8, addend: 0x0, symName: __ZN4juce18OggVorbisNamespaceL12_44c8_s_p9_0E, symObjAddr: 0x7501E0, symBinAddr: 0x100758B78, symSize: 0x0 }
  - { offset: 0x576A52, size: 0x8, addend: 0x0, symName: __ZN4juce18OggVorbisNamespaceL27_vq_lengthlist__44c8_s_p9_0E, symObjAddr: 0x6B3AF0, symBinAddr: 0x100692110, symSize: 0x0 }
  - { offset: 0x576A6D, size: 0x8, addend: 0x0, symName: __ZN4juce18OggVorbisNamespaceL26_vq_quantlist__44c8_s_p9_0E, symObjAddr: 0x6B3C18, symBinAddr: 0x100692238, symSize: 0x0 }
  - { offset: 0x576A88, size: 0x8, addend: 0x0, symName: __ZN4juce18OggVorbisNamespaceL12_44c8_s_p9_1E, symObjAddr: 0x750228, symBinAddr: 0x100758BC0, symSize: 0x0 }
  - { offset: 0x576AA3, size: 0x8, addend: 0x0, symName: __ZN4juce18OggVorbisNamespaceL27_vq_lengthlist__44c8_s_p9_1E, symObjAddr: 0x6B3CA0, symBinAddr: 0x1006922C0, symSize: 0x0 }
  - { offset: 0x576ABE, size: 0x8, addend: 0x0, symName: __ZN4juce18OggVorbisNamespaceL26_vq_quantlist__44c8_s_p9_1E, symObjAddr: 0x6B3E10, symBinAddr: 0x100692430, symSize: 0x0 }
  - { offset: 0x576AD9, size: 0x8, addend: 0x0, symName: __ZN4juce18OggVorbisNamespaceL12_44c8_s_p9_2E, symObjAddr: 0x750270, symBinAddr: 0x100758C08, symSize: 0x0 }
  - { offset: 0x576AF4, size: 0x8, addend: 0x0, symName: __ZN4juce18OggVorbisNamespaceL27_vq_lengthlist__44c8_s_p9_2E, symObjAddr: 0x6B3EA8, symBinAddr: 0x1006924C8, symSize: 0x0 }
  - { offset: 0x576B0F, size: 0x8, addend: 0x0, symName: __ZN4juce18OggVorbisNamespaceL26_vq_quantlist__44c8_s_p9_2E, symObjAddr: 0x6B3EE0, symBinAddr: 0x100692500, symSize: 0x0 }
  - { offset: 0x576B2A, size: 0x8, addend: 0x0, symName: __ZN4juce18OggVorbisNamespaceL23_huff_book__44c8_s_longE, symObjAddr: 0x74FE38, symBinAddr: 0x1007587D0, symSize: 0x0 }
  - { offset: 0x576B45, size: 0x8, addend: 0x0, symName: __ZN4juce18OggVorbisNamespaceL29_huff_lengthlist__44c8_s_longE, symObjAddr: 0x6B4068, symBinAddr: 0x100692688, symSize: 0x0 }
  - { offset: 0x576B60, size: 0x8, addend: 0x0, symName: __ZN4juce18OggVorbisNamespaceL10_res_44s_9E, symObjAddr: 0x74B7F0, symBinAddr: 0x100754188, symSize: 0x0 }
  - { offset: 0x576B7B, size: 0x8, addend: 0x0, symName: __ZN4juce18OggVorbisNamespaceL24_huff_book__44c9_s_shortE, symObjAddr: 0x7502B8, symBinAddr: 0x100758C50, symSize: 0x0 }
  - { offset: 0x576B96, size: 0x8, addend: 0x0, symName: __ZN4juce18OggVorbisNamespaceL30_huff_lengthlist__44c9_s_shortE, symObjAddr: 0x6B40CC, symBinAddr: 0x1006926EC, symSize: 0x0 }
  - { offset: 0x576BAF, size: 0x8, addend: 0x0, symName: __ZN4juce18OggVorbisNamespaceL14_resbook_44s_9E, symObjAddr: 0x750300, symBinAddr: 0x100758C98, symSize: 0x0 }
  - { offset: 0x576BCA, size: 0x8, addend: 0x0, symName: __ZN4juce18OggVorbisNamespaceL12_44c9_s_p1_0E, symObjAddr: 0x7504C8, symBinAddr: 0x100758E60, symSize: 0x0 }
  - { offset: 0x576BE5, size: 0x8, addend: 0x0, symName: __ZN4juce18OggVorbisNamespaceL27_vq_lengthlist__44c9_s_p1_0E, symObjAddr: 0x6B4130, symBinAddr: 0x100692750, symSize: 0x0 }
  - { offset: 0x576C00, size: 0x8, addend: 0x0, symName: __ZN4juce18OggVorbisNamespaceL26_vq_quantlist__44c9_s_p1_0E, symObjAddr: 0x6B4188, symBinAddr: 0x1006927A8, symSize: 0x0 }
  - { offset: 0x576C1B, size: 0x8, addend: 0x0, symName: __ZN4juce18OggVorbisNamespaceL12_44c9_s_p2_0E, symObjAddr: 0x750510, symBinAddr: 0x100758EA8, symSize: 0x0 }
  - { offset: 0x576C36, size: 0x8, addend: 0x0, symName: __ZN4juce18OggVorbisNamespaceL27_vq_lengthlist__44c9_s_p2_0E, symObjAddr: 0x6B41A0, symBinAddr: 0x1006927C0, symSize: 0x0 }
  - { offset: 0x576C51, size: 0x8, addend: 0x0, symName: __ZN4juce18OggVorbisNamespaceL26_vq_quantlist__44c9_s_p2_0E, symObjAddr: 0x6B4418, symBinAddr: 0x100692A38, symSize: 0x0 }
  - { offset: 0x576C6C, size: 0x8, addend: 0x0, symName: __ZN4juce18OggVorbisNamespaceL12_44c9_s_p3_0E, symObjAddr: 0x750558, symBinAddr: 0x100758EF0, symSize: 0x0 }
  - { offset: 0x576C87, size: 0x8, addend: 0x0, symName: __ZN4juce18OggVorbisNamespaceL27_vq_lengthlist__44c9_s_p3_0E, symObjAddr: 0x6B4488, symBinAddr: 0x100692AA8, symSize: 0x0 }
  - { offset: 0x576CA2, size: 0x8, addend: 0x0, symName: __ZN4juce18OggVorbisNamespaceL26_vq_quantlist__44c9_s_p3_0E, symObjAddr: 0x6B4440, symBinAddr: 0x100692A60, symSize: 0x0 }
  - { offset: 0x576CBD, size: 0x8, addend: 0x0, symName: __ZN4juce18OggVorbisNamespaceL12_44c9_s_p4_0E, symObjAddr: 0x7505A0, symBinAddr: 0x100758F38, symSize: 0x0 }
  - { offset: 0x576CD8, size: 0x8, addend: 0x0, symName: __ZN4juce18OggVorbisNamespaceL27_vq_lengthlist__44c9_s_p4_0E, symObjAddr: 0x6B4568, symBinAddr: 0x100692B88, symSize: 0x0 }
  - { offset: 0x576CF3, size: 0x8, addend: 0x0, symName: __ZN4juce18OggVorbisNamespaceL26_vq_quantlist__44c9_s_p4_0E, symObjAddr: 0x6B44E0, symBinAddr: 0x100692B00, symSize: 0x0 }
  - { offset: 0x576D0E, size: 0x8, addend: 0x0, symName: __ZN4juce18OggVorbisNamespaceL12_44c9_s_p5_0E, symObjAddr: 0x7505E8, symBinAddr: 0x100758F80, symSize: 0x0 }
  - { offset: 0x576D29, size: 0x8, addend: 0x0, symName: __ZN4juce18OggVorbisNamespaceL27_vq_lengthlist__44c9_s_p5_0E, symObjAddr: 0x6B4689, symBinAddr: 0x100692CA9, symSize: 0x0 }
  - { offset: 0x576D44, size: 0x8, addend: 0x0, symName: __ZN4juce18OggVorbisNamespaceL26_vq_quantlist__44c9_s_p5_0E, symObjAddr: 0x6B46E0, symBinAddr: 0x100692D00, symSize: 0x0 }
  - { offset: 0x576D5F, size: 0x8, addend: 0x0, symName: __ZN4juce18OggVorbisNamespaceL12_44c9_s_p5_1E, symObjAddr: 0x750630, symBinAddr: 0x100758FC8, symSize: 0x0 }
  - { offset: 0x576D7A, size: 0x8, addend: 0x0, symName: __ZN4juce18OggVorbisNamespaceL27_vq_lengthlist__44c9_s_p5_1E, symObjAddr: 0x6B46F8, symBinAddr: 0x100692D18, symSize: 0x0 }
  - { offset: 0x576D95, size: 0x8, addend: 0x0, symName: __ZN4juce18OggVorbisNamespaceL26_vq_quantlist__44c9_s_p5_1E, symObjAddr: 0x6B4778, symBinAddr: 0x100692D98, symSize: 0x0 }
  - { offset: 0x576DB0, size: 0x8, addend: 0x0, symName: __ZN4juce18OggVorbisNamespaceL12_44c9_s_p6_0E, symObjAddr: 0x750678, symBinAddr: 0x100759010, symSize: 0x0 }
  - { offset: 0x576DCB, size: 0x8, addend: 0x0, symName: __ZN4juce18OggVorbisNamespaceL27_vq_lengthlist__44c9_s_p6_0E, symObjAddr: 0x6B4838, symBinAddr: 0x100692E58, symSize: 0x0 }
  - { offset: 0x576DE6, size: 0x8, addend: 0x0, symName: __ZN4juce18OggVorbisNamespaceL26_vq_quantlist__44c9_s_p6_0E, symObjAddr: 0x6B47D0, symBinAddr: 0x100692DF0, symSize: 0x0 }
  - { offset: 0x576E01, size: 0x8, addend: 0x0, symName: __ZN4juce18OggVorbisNamespaceL12_44c9_s_p6_1E, symObjAddr: 0x7506C0, symBinAddr: 0x100759058, symSize: 0x0 }
  - { offset: 0x576E1C, size: 0x8, addend: 0x0, symName: __ZN4juce18OggVorbisNamespaceL27_vq_lengthlist__44c9_s_p6_1E, symObjAddr: 0x6B48E1, symBinAddr: 0x100692F01, symSize: 0x0 }
  - { offset: 0x576E37, size: 0x8, addend: 0x0, symName: __ZN4juce18OggVorbisNamespaceL26_vq_quantlist__44c9_s_p6_1E, symObjAddr: 0x6B4900, symBinAddr: 0x100692F20, symSize: 0x0 }
  - { offset: 0x576E52, size: 0x8, addend: 0x0, symName: __ZN4juce18OggVorbisNamespaceL12_44c9_s_p7_0E, symObjAddr: 0x750708, symBinAddr: 0x1007590A0, symSize: 0x0 }
  - { offset: 0x576E6D, size: 0x8, addend: 0x0, symName: __ZN4juce18OggVorbisNamespaceL27_vq_lengthlist__44c9_s_p7_0E, symObjAddr: 0x6B4928, symBinAddr: 0x100692F48, symSize: 0x0 }
  - { offset: 0x576E88, size: 0x8, addend: 0x0, symName: __ZN4juce18OggVorbisNamespaceL26_vq_quantlist__44c9_s_p7_0E, symObjAddr: 0x6B49D8, symBinAddr: 0x100692FF8, symSize: 0x0 }
  - { offset: 0x576EA3, size: 0x8, addend: 0x0, symName: __ZN4juce18OggVorbisNamespaceL12_44c9_s_p7_1E, symObjAddr: 0x750750, symBinAddr: 0x1007590E8, symSize: 0x0 }
  - { offset: 0x576EBE, size: 0x8, addend: 0x0, symName: __ZN4juce18OggVorbisNamespaceL27_vq_lengthlist__44c9_s_p7_1E, symObjAddr: 0x6B4A40, symBinAddr: 0x100693060, symSize: 0x0 }
  - { offset: 0x576ED9, size: 0x8, addend: 0x0, symName: __ZN4juce18OggVorbisNamespaceL26_vq_quantlist__44c9_s_p7_1E, symObjAddr: 0x6B4AC0, symBinAddr: 0x1006930E0, symSize: 0x0 }
  - { offset: 0x576EF4, size: 0x8, addend: 0x0, symName: __ZN4juce18OggVorbisNamespaceL12_44c9_s_p8_0E, symObjAddr: 0x750798, symBinAddr: 0x100759130, symSize: 0x0 }
  - { offset: 0x576F0F, size: 0x8, addend: 0x0, symName: __ZN4juce18OggVorbisNamespaceL27_vq_lengthlist__44c9_s_p8_0E, symObjAddr: 0x6B4B18, symBinAddr: 0x100693138, symSize: 0x0 }
  - { offset: 0x576F2A, size: 0x8, addend: 0x0, symName: __ZN4juce18OggVorbisNamespaceL26_vq_quantlist__44c9_s_p8_0E, symObjAddr: 0x6B4C00, symBinAddr: 0x100693220, symSize: 0x0 }
  - { offset: 0x576F45, size: 0x8, addend: 0x0, symName: __ZN4juce18OggVorbisNamespaceL12_44c9_s_p8_1E, symObjAddr: 0x7507E0, symBinAddr: 0x100759178, symSize: 0x0 }
  - { offset: 0x576F60, size: 0x8, addend: 0x0, symName: __ZN4juce18OggVorbisNamespaceL27_vq_lengthlist__44c9_s_p8_1E, symObjAddr: 0x6B4C78, symBinAddr: 0x100693298, symSize: 0x0 }
  - { offset: 0x576F7B, size: 0x8, addend: 0x0, symName: __ZN4juce18OggVorbisNamespaceL26_vq_quantlist__44c9_s_p8_1E, symObjAddr: 0x6B4E38, symBinAddr: 0x100693458, symSize: 0x0 }
  - { offset: 0x576F96, size: 0x8, addend: 0x0, symName: __ZN4juce18OggVorbisNamespaceL12_44c9_s_p9_0E, symObjAddr: 0x750828, symBinAddr: 0x1007591C0, symSize: 0x0 }
  - { offset: 0x576FB1, size: 0x8, addend: 0x0, symName: __ZN4juce18OggVorbisNamespaceL27_vq_lengthlist__44c9_s_p9_0E, symObjAddr: 0x6B4EE0, symBinAddr: 0x100693500, symSize: 0x0 }
  - { offset: 0x576FCC, size: 0x8, addend: 0x0, symName: __ZN4juce18OggVorbisNamespaceL26_vq_quantlist__44c9_s_p9_0E, symObjAddr: 0x6B5050, symBinAddr: 0x100693670, symSize: 0x0 }
  - { offset: 0x576FE7, size: 0x8, addend: 0x0, symName: __ZN4juce18OggVorbisNamespaceL12_44c9_s_p9_1E, symObjAddr: 0x750870, symBinAddr: 0x100759208, symSize: 0x0 }
  - { offset: 0x577002, size: 0x8, addend: 0x0, symName: __ZN4juce18OggVorbisNamespaceL27_vq_lengthlist__44c9_s_p9_1E, symObjAddr: 0x6B50E8, symBinAddr: 0x100693708, symSize: 0x0 }
  - { offset: 0x57701D, size: 0x8, addend: 0x0, symName: __ZN4juce18OggVorbisNamespaceL26_vq_quantlist__44c9_s_p9_1E, symObjAddr: 0x6B5258, symBinAddr: 0x100693878, symSize: 0x0 }
  - { offset: 0x577038, size: 0x8, addend: 0x0, symName: __ZN4juce18OggVorbisNamespaceL12_44c9_s_p9_2E, symObjAddr: 0x7508B8, symBinAddr: 0x100759250, symSize: 0x0 }
  - { offset: 0x577053, size: 0x8, addend: 0x0, symName: __ZN4juce18OggVorbisNamespaceL27_vq_lengthlist__44c9_s_p9_2E, symObjAddr: 0x6B52F0, symBinAddr: 0x100693910, symSize: 0x0 }
  - { offset: 0x57706E, size: 0x8, addend: 0x0, symName: __ZN4juce18OggVorbisNamespaceL26_vq_quantlist__44c9_s_p9_2E, symObjAddr: 0x6B5328, symBinAddr: 0x100693948, symSize: 0x0 }
  - { offset: 0x577089, size: 0x8, addend: 0x0, symName: __ZN4juce18OggVorbisNamespaceL23_huff_book__44c9_s_longE, symObjAddr: 0x750480, symBinAddr: 0x100758E18, symSize: 0x0 }
  - { offset: 0x5770A4, size: 0x8, addend: 0x0, symName: __ZN4juce18OggVorbisNamespaceL29_huff_lengthlist__44c9_s_longE, symObjAddr: 0x6B54B0, symBinAddr: 0x100693AD0, symSize: 0x0 }
  - { offset: 0x5770BD, size: 0x8, addend: 0x0, symName: __ZN4juce18OggVorbisNamespaceL14ve_setup_44_51E, symObjAddr: 0x7480B8, symBinAddr: 0x100750A50, symSize: 0x0 }
  - { offset: 0x5770D6, size: 0x8, addend: 0x0, symName: __ZN4juce18OggVorbisNamespaceL18rate_mapping_44p51E, symObjAddr: 0x6B5518, symBinAddr: 0x100693B38, symSize: 0x0 }
  - { offset: 0x5770F1, size: 0x8, addend: 0x0, symName: __ZN4juce18OggVorbisNamespaceL22_mapres_template_44_51E, symObjAddr: 0x750900, symBinAddr: 0x100759298, symSize: 0x0 }
  - { offset: 0x57710C, size: 0x8, addend: 0x0, symName: __ZN4juce18OggVorbisNamespaceL15_map_nominal_51E, symObjAddr: 0x6B5578, symBinAddr: 0x100693B98, symSize: 0x0 }
  - { offset: 0x577127, size: 0x8, addend: 0x0, symName: __ZN4juce18OggVorbisNamespaceL13_res_44p51_n1E, symObjAddr: 0x7509B0, symBinAddr: 0x100759348, symSize: 0x0 }
  - { offset: 0x577140, size: 0x8, addend: 0x0, symName: __ZN4juce18OggVorbisNamespaceL15_residue_44p_loE, symObjAddr: 0x6B6E88, symBinAddr: 0x1006954A8, symSize: 0x0 }
  - { offset: 0x57715B, size: 0x8, addend: 0x0, symName: __ZN4juce18OggVorbisNamespaceL23_huff_book__44pn1_shortE, symObjAddr: 0x7510E8, symBinAddr: 0x100759A80, symSize: 0x0 }
  - { offset: 0x577176, size: 0x8, addend: 0x0, symName: __ZN4juce18OggVorbisNamespaceL29_huff_lengthlist__44pn1_shortE, symObjAddr: 0x6B79A8, symBinAddr: 0x100695FC8, symSize: 0x0 }
  - { offset: 0x57718F, size: 0x8, addend: 0x0, symName: __ZN4juce18OggVorbisNamespaceL15_resbook_44p_n1E, symObjAddr: 0x751130, symBinAddr: 0x100759AC8, symSize: 0x0 }
  - { offset: 0x5771AA, size: 0x8, addend: 0x0, symName: __ZN4juce18OggVorbisNamespaceL11_44pn1_p1_0E, symObjAddr: 0x751340, symBinAddr: 0x100759CD8, symSize: 0x0 }
  - { offset: 0x5771C5, size: 0x8, addend: 0x0, symName: __ZN4juce18OggVorbisNamespaceL26_vq_lengthlist__44pn1_p1_0E, symObjAddr: 0x6B79F8, symBinAddr: 0x100696018, symSize: 0x0 }
  - { offset: 0x5771E0, size: 0x8, addend: 0x0, symName: __ZN4juce18OggVorbisNamespaceL25_vq_quantlist__44pn1_p1_0E, symObjAddr: 0x6B79E0, symBinAddr: 0x100696000, symSize: 0x0 }
  - { offset: 0x5771FB, size: 0x8, addend: 0x0, symName: __ZN4juce18OggVorbisNamespaceL11_44pn1_p2_0E, symObjAddr: 0x751388, symBinAddr: 0x100759D20, symSize: 0x0 }
  - { offset: 0x577216, size: 0x8, addend: 0x0, symName: __ZN4juce18OggVorbisNamespaceL26_vq_lengthlist__44pn1_p2_0E, symObjAddr: 0x6B7B08, symBinAddr: 0x100696128, symSize: 0x0 }
  - { offset: 0x577231, size: 0x8, addend: 0x0, symName: __ZN4juce18OggVorbisNamespaceL25_vq_quantlist__44pn1_p2_0E, symObjAddr: 0x6B7AF0, symBinAddr: 0x100696110, symSize: 0x0 }
  - { offset: 0x57724C, size: 0x8, addend: 0x0, symName: __ZN4juce18OggVorbisNamespaceL11_44pn1_p2_1E, symObjAddr: 0x7513D0, symBinAddr: 0x100759D68, symSize: 0x0 }
  - { offset: 0x577267, size: 0x8, addend: 0x0, symName: __ZN4juce18OggVorbisNamespaceL26_vq_lengthlist__44pn1_p2_1E, symObjAddr: 0x6B7C18, symBinAddr: 0x100696238, symSize: 0x0 }
  - { offset: 0x577282, size: 0x8, addend: 0x0, symName: __ZN4juce18OggVorbisNamespaceL25_vq_quantlist__44pn1_p2_1E, symObjAddr: 0x6B7C00, symBinAddr: 0x100696220, symSize: 0x0 }
  - { offset: 0x57729D, size: 0x8, addend: 0x0, symName: __ZN4juce18OggVorbisNamespaceL11_44pn1_p3_0E, symObjAddr: 0x751418, symBinAddr: 0x100759DB0, symSize: 0x0 }
  - { offset: 0x5772B8, size: 0x8, addend: 0x0, symName: __ZN4juce18OggVorbisNamespaceL26_vq_lengthlist__44pn1_p3_0E, symObjAddr: 0x6B7D0B, symBinAddr: 0x10069632B, symSize: 0x0 }
  - { offset: 0x5772D3, size: 0x8, addend: 0x0, symName: __ZN4juce18OggVorbisNamespaceL25_vq_quantlist__44pn1_p3_0E, symObjAddr: 0x6B7E00, symBinAddr: 0x100696420, symSize: 0x0 }
  - { offset: 0x5772EE, size: 0x8, addend: 0x0, symName: __ZN4juce18OggVorbisNamespaceL11_44pn1_p3_1E, symObjAddr: 0x751460, symBinAddr: 0x100759DF8, symSize: 0x0 }
  - { offset: 0x577309, size: 0x8, addend: 0x0, symName: __ZN4juce18OggVorbisNamespaceL26_vq_lengthlist__44pn1_p3_1E, symObjAddr: 0x6B7E18, symBinAddr: 0x100696438, symSize: 0x0 }
  - { offset: 0x577324, size: 0x8, addend: 0x0, symName: __ZN4juce18OggVorbisNamespaceL25_vq_quantlist__44pn1_p3_1E, symObjAddr: 0x6B8A50, symBinAddr: 0x100697070, symSize: 0x0 }
  - { offset: 0x57733F, size: 0x8, addend: 0x0, symName: __ZN4juce18OggVorbisNamespaceL11_44pn1_p4_0E, symObjAddr: 0x7514A8, symBinAddr: 0x100759E40, symSize: 0x0 }
  - { offset: 0x57735A, size: 0x8, addend: 0x0, symName: __ZN4juce18OggVorbisNamespaceL26_vq_lengthlist__44pn1_p4_0E, symObjAddr: 0x6B8A78, symBinAddr: 0x100697098, symSize: 0x0 }
  - { offset: 0x577375, size: 0x8, addend: 0x0, symName: __ZN4juce18OggVorbisNamespaceL25_vq_quantlist__44pn1_p4_0E, symObjAddr: 0x6B96B0, symBinAddr: 0x100697CD0, symSize: 0x0 }
  - { offset: 0x577390, size: 0x8, addend: 0x0, symName: __ZN4juce18OggVorbisNamespaceL11_44pn1_p4_1E, symObjAddr: 0x7514F0, symBinAddr: 0x100759E88, symSize: 0x0 }
  - { offset: 0x5773AB, size: 0x8, addend: 0x0, symName: __ZN4juce18OggVorbisNamespaceL26_vq_lengthlist__44pn1_p4_1E, symObjAddr: 0x6B96D8, symBinAddr: 0x100697CF8, symSize: 0x0 }
  - { offset: 0x5773C6, size: 0x8, addend: 0x0, symName: __ZN4juce18OggVorbisNamespaceL25_vq_quantlist__44pn1_p4_1E, symObjAddr: 0x6B96E0, symBinAddr: 0x100697D00, symSize: 0x0 }
  - { offset: 0x5773E1, size: 0x8, addend: 0x0, symName: __ZN4juce18OggVorbisNamespaceL11_44pn1_p5_0E, symObjAddr: 0x751538, symBinAddr: 0x100759ED0, symSize: 0x0 }
  - { offset: 0x5773FC, size: 0x8, addend: 0x0, symName: __ZN4juce18OggVorbisNamespaceL26_vq_lengthlist__44pn1_p5_0E, symObjAddr: 0x6B9718, symBinAddr: 0x100697D38, symSize: 0x0 }
  - { offset: 0x577417, size: 0x8, addend: 0x0, symName: __ZN4juce18OggVorbisNamespaceL25_vq_quantlist__44pn1_p5_0E, symObjAddr: 0x6B9810, symBinAddr: 0x100697E30, symSize: 0x0 }
  - { offset: 0x577432, size: 0x8, addend: 0x0, symName: __ZN4juce18OggVorbisNamespaceL11_44pn1_p5_1E, symObjAddr: 0x751580, symBinAddr: 0x100759F18, symSize: 0x0 }
  - { offset: 0x57744D, size: 0x8, addend: 0x0, symName: __ZN4juce18OggVorbisNamespaceL26_vq_lengthlist__44pn1_p5_1E, symObjAddr: 0x6B9828, symBinAddr: 0x100697E48, symSize: 0x0 }
  - { offset: 0x577468, size: 0x8, addend: 0x0, symName: __ZN4juce18OggVorbisNamespaceL25_vq_quantlist__44pn1_p5_1E, symObjAddr: 0x6B9920, symBinAddr: 0x100697F40, symSize: 0x0 }
  - { offset: 0x577483, size: 0x8, addend: 0x0, symName: __ZN4juce18OggVorbisNamespaceL11_44pn1_p6_0E, symObjAddr: 0x7515C8, symBinAddr: 0x100759F60, symSize: 0x0 }
  - { offset: 0x57749E, size: 0x8, addend: 0x0, symName: __ZN4juce18OggVorbisNamespaceL26_vq_lengthlist__44pn1_p6_0E, symObjAddr: 0x6B9938, symBinAddr: 0x100697F58, symSize: 0x0 }
  - { offset: 0x5774B9, size: 0x8, addend: 0x0, symName: __ZN4juce18OggVorbisNamespaceL25_vq_quantlist__44pn1_p6_0E, symObjAddr: 0x6B9A30, symBinAddr: 0x100698050, symSize: 0x0 }
  - { offset: 0x5774D4, size: 0x8, addend: 0x0, symName: __ZN4juce18OggVorbisNamespaceL11_44pn1_p6_1E, symObjAddr: 0x751610, symBinAddr: 0x100759FA8, symSize: 0x0 }
  - { offset: 0x5774EF, size: 0x8, addend: 0x0, symName: __ZN4juce18OggVorbisNamespaceL26_vq_lengthlist__44pn1_p6_1E, symObjAddr: 0x6B9A48, symBinAddr: 0x100698068, symSize: 0x0 }
  - { offset: 0x57750A, size: 0x8, addend: 0x0, symName: __ZN4juce18OggVorbisNamespaceL25_vq_quantlist__44pn1_p6_1E, symObjAddr: 0x6B9A68, symBinAddr: 0x100698088, symSize: 0x0 }
  - { offset: 0x577525, size: 0x8, addend: 0x0, symName: __ZN4juce18OggVorbisNamespaceL11_44pn1_p6_2E, symObjAddr: 0x751658, symBinAddr: 0x100759FF0, symSize: 0x0 }
  - { offset: 0x577540, size: 0x8, addend: 0x0, symName: __ZN4juce18OggVorbisNamespaceL26_vq_lengthlist__44pn1_p6_2E, symObjAddr: 0x6B9B30, symBinAddr: 0x100698150, symSize: 0x0 }
  - { offset: 0x57755B, size: 0x8, addend: 0x0, symName: __ZN4juce18OggVorbisNamespaceL25_vq_quantlist__44pn1_p6_2E, symObjAddr: 0x6B9B50, symBinAddr: 0x100698170, symSize: 0x0 }
  - { offset: 0x577576, size: 0x8, addend: 0x0, symName: __ZN4juce18OggVorbisNamespaceL22_huff_book__44pn1_longE, symObjAddr: 0x7512B0, symBinAddr: 0x100759C48, symSize: 0x0 }
  - { offset: 0x577591, size: 0x8, addend: 0x0, symName: __ZN4juce18OggVorbisNamespaceL28_huff_lengthlist__44pn1_longE, symObjAddr: 0x6B9C18, symBinAddr: 0x100698238, symSize: 0x0 }
  - { offset: 0x5775AA, size: 0x8, addend: 0x0, symName: __ZN4juce18OggVorbisNamespaceL16_residue_44p_lfeE, symObjAddr: 0x6B9C50, symBinAddr: 0x100698270, symSize: 0x0 }
  - { offset: 0x5775C5, size: 0x8, addend: 0x0, symName: __ZN4juce18OggVorbisNamespaceL21_huff_book__44pn1_lfeE, symObjAddr: 0x7512F8, symBinAddr: 0x100759C90, symSize: 0x0 }
  - { offset: 0x5775E0, size: 0x8, addend: 0x0, symName: __ZN4juce18OggVorbisNamespaceL27_huff_lengthlist__44pn1_lfeE, symObjAddr: 0x6BA770, symBinAddr: 0x100698D90, symSize: 0x0 }
  - { offset: 0x5775F9, size: 0x8, addend: 0x0, symName: __ZN4juce18OggVorbisNamespaceL16_resbook_44p_ln1E, symObjAddr: 0x751778, symBinAddr: 0x10075A110, symSize: 0x0 }
  - { offset: 0x577614, size: 0x8, addend: 0x0, symName: __ZN4juce18OggVorbisNamespaceL11_44pn1_l0_0E, symObjAddr: 0x7516A0, symBinAddr: 0x10075A038, symSize: 0x0 }
  - { offset: 0x57762F, size: 0x8, addend: 0x0, symName: __ZN4juce18OggVorbisNamespaceL26_vq_lengthlist__44pn1_l0_0E, symObjAddr: 0x6BA774, symBinAddr: 0x100698D94, symSize: 0x0 }
  - { offset: 0x57764A, size: 0x8, addend: 0x0, symName: __ZN4juce18OggVorbisNamespaceL25_vq_quantlist__44pn1_l0_0E, symObjAddr: 0x6BA820, symBinAddr: 0x100698E40, symSize: 0x0 }
  - { offset: 0x577665, size: 0x8, addend: 0x0, symName: __ZN4juce18OggVorbisNamespaceL11_44pn1_l0_1E, symObjAddr: 0x7516E8, symBinAddr: 0x10075A080, symSize: 0x0 }
  - { offset: 0x577680, size: 0x8, addend: 0x0, symName: __ZN4juce18OggVorbisNamespaceL26_vq_lengthlist__44pn1_l0_1E, symObjAddr: 0x6BA888, symBinAddr: 0x100698EA8, symSize: 0x0 }
  - { offset: 0x57769B, size: 0x8, addend: 0x0, symName: __ZN4juce18OggVorbisNamespaceL25_vq_quantlist__44pn1_l0_1E, symObjAddr: 0x6BA8A8, symBinAddr: 0x100698EC8, symSize: 0x0 }
  - { offset: 0x5776B6, size: 0x8, addend: 0x0, symName: __ZN4juce18OggVorbisNamespaceL11_44pn1_l1_0E, symObjAddr: 0x751730, symBinAddr: 0x10075A0C8, symSize: 0x0 }
  - { offset: 0x5776D1, size: 0x8, addend: 0x0, symName: __ZN4juce18OggVorbisNamespaceL26_vq_lengthlist__44pn1_l1_0E, symObjAddr: 0x6BA8D0, symBinAddr: 0x100698EF0, symSize: 0x0 }
  - { offset: 0x5776EC, size: 0x8, addend: 0x0, symName: __ZN4juce18OggVorbisNamespaceL25_vq_quantlist__44pn1_l1_0E, symObjAddr: 0x6BA8E0, symBinAddr: 0x100698F00, symSize: 0x0 }
  - { offset: 0x577707, size: 0x8, addend: 0x0, symName: __ZN4juce18OggVorbisNamespaceL12_res_44p51_0E, symObjAddr: 0x750A58, symBinAddr: 0x1007593F0, symSize: 0x0 }
  - { offset: 0x577722, size: 0x8, addend: 0x0, symName: __ZN4juce18OggVorbisNamespaceL22_huff_book__44p0_shortE, symObjAddr: 0x7518F8, symBinAddr: 0x10075A290, symSize: 0x0 }
  - { offset: 0x57773D, size: 0x8, addend: 0x0, symName: __ZN4juce18OggVorbisNamespaceL28_huff_lengthlist__44p0_shortE, symObjAddr: 0x6BA8F8, symBinAddr: 0x100698F18, symSize: 0x0 }
  - { offset: 0x577756, size: 0x8, addend: 0x0, symName: __ZN4juce18OggVorbisNamespaceL14_resbook_44p_0E, symObjAddr: 0x751940, symBinAddr: 0x10075A2D8, symSize: 0x0 }
  - { offset: 0x57776F, size: 0x8, addend: 0x0, symName: __ZN4juce18OggVorbisNamespaceL10_44p0_p1_0E, symObjAddr: 0x751B50, symBinAddr: 0x10075A4E8, symSize: 0x0 }
  - { offset: 0x577788, size: 0x8, addend: 0x0, symName: __ZN4juce18OggVorbisNamespaceL25_vq_lengthlist__44p0_p1_0E, symObjAddr: 0x6BA948, symBinAddr: 0x100698F68, symSize: 0x0 }
  - { offset: 0x5777A1, size: 0x8, addend: 0x0, symName: __ZN4juce18OggVorbisNamespaceL24_vq_quantlist__44p0_p1_0E, symObjAddr: 0x6BA930, symBinAddr: 0x100698F50, symSize: 0x0 }
  - { offset: 0x5777BA, size: 0x8, addend: 0x0, symName: __ZN4juce18OggVorbisNamespaceL10_44p0_p2_0E, symObjAddr: 0x751B98, symBinAddr: 0x10075A530, symSize: 0x0 }
  - { offset: 0x5777D3, size: 0x8, addend: 0x0, symName: __ZN4juce18OggVorbisNamespaceL25_vq_lengthlist__44p0_p2_0E, symObjAddr: 0x6BAA58, symBinAddr: 0x100699078, symSize: 0x0 }
  - { offset: 0x5777EC, size: 0x8, addend: 0x0, symName: __ZN4juce18OggVorbisNamespaceL24_vq_quantlist__44p0_p2_0E, symObjAddr: 0x6BAA40, symBinAddr: 0x100699060, symSize: 0x0 }
  - { offset: 0x577805, size: 0x8, addend: 0x0, symName: __ZN4juce18OggVorbisNamespaceL10_44p0_p2_1E, symObjAddr: 0x751BE0, symBinAddr: 0x10075A578, symSize: 0x0 }
  - { offset: 0x57781E, size: 0x8, addend: 0x0, symName: __ZN4juce18OggVorbisNamespaceL25_vq_lengthlist__44p0_p2_1E, symObjAddr: 0x6BAB68, symBinAddr: 0x100699188, symSize: 0x0 }
  - { offset: 0x577837, size: 0x8, addend: 0x0, symName: __ZN4juce18OggVorbisNamespaceL24_vq_quantlist__44p0_p2_1E, symObjAddr: 0x6BAB50, symBinAddr: 0x100699170, symSize: 0x0 }
  - { offset: 0x577850, size: 0x8, addend: 0x0, symName: __ZN4juce18OggVorbisNamespaceL10_44p0_p3_0E, symObjAddr: 0x751C28, symBinAddr: 0x10075A5C0, symSize: 0x0 }
  - { offset: 0x577869, size: 0x8, addend: 0x0, symName: __ZN4juce18OggVorbisNamespaceL25_vq_lengthlist__44p0_p3_0E, symObjAddr: 0x6BAC5B, symBinAddr: 0x10069927B, symSize: 0x0 }
  - { offset: 0x577882, size: 0x8, addend: 0x0, symName: __ZN4juce18OggVorbisNamespaceL24_vq_quantlist__44p0_p3_0E, symObjAddr: 0x6BAD50, symBinAddr: 0x100699370, symSize: 0x0 }
  - { offset: 0x57789D, size: 0x8, addend: 0x0, symName: __ZN4juce18OggVorbisNamespaceL10_44p0_p3_1E, symObjAddr: 0x751C70, symBinAddr: 0x10075A608, symSize: 0x0 }
  - { offset: 0x5778B8, size: 0x8, addend: 0x0, symName: __ZN4juce18OggVorbisNamespaceL25_vq_lengthlist__44p0_p3_1E, symObjAddr: 0x6BAD68, symBinAddr: 0x100699388, symSize: 0x0 }
  - { offset: 0x5778D1, size: 0x8, addend: 0x0, symName: __ZN4juce18OggVorbisNamespaceL24_vq_quantlist__44p0_p3_1E, symObjAddr: 0x6BB9A0, symBinAddr: 0x100699FC0, symSize: 0x0 }
  - { offset: 0x5778EC, size: 0x8, addend: 0x0, symName: __ZN4juce18OggVorbisNamespaceL10_44p0_p4_0E, symObjAddr: 0x751CB8, symBinAddr: 0x10075A650, symSize: 0x0 }
  - { offset: 0x577907, size: 0x8, addend: 0x0, symName: __ZN4juce18OggVorbisNamespaceL25_vq_lengthlist__44p0_p4_0E, symObjAddr: 0x6BB9C8, symBinAddr: 0x100699FE8, symSize: 0x0 }
  - { offset: 0x577922, size: 0x8, addend: 0x0, symName: __ZN4juce18OggVorbisNamespaceL24_vq_quantlist__44p0_p4_0E, symObjAddr: 0x6BC600, symBinAddr: 0x10069AC20, symSize: 0x0 }
  - { offset: 0x57793D, size: 0x8, addend: 0x0, symName: __ZN4juce18OggVorbisNamespaceL10_44p0_p4_1E, symObjAddr: 0x751D00, symBinAddr: 0x10075A698, symSize: 0x0 }
  - { offset: 0x577958, size: 0x8, addend: 0x0, symName: __ZN4juce18OggVorbisNamespaceL25_vq_lengthlist__44p0_p4_1E, symObjAddr: 0x6BC628, symBinAddr: 0x10069AC48, symSize: 0x0 }
  - { offset: 0x577973, size: 0x8, addend: 0x0, symName: __ZN4juce18OggVorbisNamespaceL24_vq_quantlist__44p0_p4_1E, symObjAddr: 0x6BC630, symBinAddr: 0x10069AC50, symSize: 0x0 }
  - { offset: 0x57798E, size: 0x8, addend: 0x0, symName: __ZN4juce18OggVorbisNamespaceL10_44p0_p5_0E, symObjAddr: 0x751D48, symBinAddr: 0x10075A6E0, symSize: 0x0 }
  - { offset: 0x5779A9, size: 0x8, addend: 0x0, symName: __ZN4juce18OggVorbisNamespaceL25_vq_lengthlist__44p0_p5_0E, symObjAddr: 0x6BC668, symBinAddr: 0x10069AC88, symSize: 0x0 }
  - { offset: 0x5779C4, size: 0x8, addend: 0x0, symName: __ZN4juce18OggVorbisNamespaceL24_vq_quantlist__44p0_p5_0E, symObjAddr: 0x6BC760, symBinAddr: 0x10069AD80, symSize: 0x0 }
  - { offset: 0x5779DF, size: 0x8, addend: 0x0, symName: __ZN4juce18OggVorbisNamespaceL10_44p0_p5_1E, symObjAddr: 0x751D90, symBinAddr: 0x10075A728, symSize: 0x0 }
  - { offset: 0x5779FA, size: 0x8, addend: 0x0, symName: __ZN4juce18OggVorbisNamespaceL25_vq_lengthlist__44p0_p5_1E, symObjAddr: 0x6BC778, symBinAddr: 0x10069AD98, symSize: 0x0 }
  - { offset: 0x577A15, size: 0x8, addend: 0x0, symName: __ZN4juce18OggVorbisNamespaceL24_vq_quantlist__44p0_p5_1E, symObjAddr: 0x6BC870, symBinAddr: 0x10069AE90, symSize: 0x0 }
  - { offset: 0x577A30, size: 0x8, addend: 0x0, symName: __ZN4juce18OggVorbisNamespaceL10_44p0_p6_0E, symObjAddr: 0x751DD8, symBinAddr: 0x10075A770, symSize: 0x0 }
  - { offset: 0x577A4B, size: 0x8, addend: 0x0, symName: __ZN4juce18OggVorbisNamespaceL25_vq_lengthlist__44p0_p6_0E, symObjAddr: 0x6BC888, symBinAddr: 0x10069AEA8, symSize: 0x0 }
  - { offset: 0x577A66, size: 0x8, addend: 0x0, symName: __ZN4juce18OggVorbisNamespaceL24_vq_quantlist__44p0_p6_0E, symObjAddr: 0x6BC980, symBinAddr: 0x10069AFA0, symSize: 0x0 }
  - { offset: 0x577A81, size: 0x8, addend: 0x0, symName: __ZN4juce18OggVorbisNamespaceL10_44p0_p6_1E, symObjAddr: 0x751E20, symBinAddr: 0x10075A7B8, symSize: 0x0 }
  - { offset: 0x577A9C, size: 0x8, addend: 0x0, symName: __ZN4juce18OggVorbisNamespaceL25_vq_lengthlist__44p0_p6_1E, symObjAddr: 0x6BC998, symBinAddr: 0x10069AFB8, symSize: 0x0 }
  - { offset: 0x577AB7, size: 0x8, addend: 0x0, symName: __ZN4juce18OggVorbisNamespaceL24_vq_quantlist__44p0_p6_1E, symObjAddr: 0x6BC9B8, symBinAddr: 0x10069AFD8, symSize: 0x0 }
  - { offset: 0x577AD2, size: 0x8, addend: 0x0, symName: __ZN4juce18OggVorbisNamespaceL10_44p0_p6_2E, symObjAddr: 0x751E68, symBinAddr: 0x10075A800, symSize: 0x0 }
  - { offset: 0x577AED, size: 0x8, addend: 0x0, symName: __ZN4juce18OggVorbisNamespaceL25_vq_lengthlist__44p0_p6_2E, symObjAddr: 0x6BCA80, symBinAddr: 0x10069B0A0, symSize: 0x0 }
  - { offset: 0x577B08, size: 0x8, addend: 0x0, symName: __ZN4juce18OggVorbisNamespaceL24_vq_quantlist__44p0_p6_2E, symObjAddr: 0x6BCAA0, symBinAddr: 0x10069B0C0, symSize: 0x0 }
  - { offset: 0x577B21, size: 0x8, addend: 0x0, symName: __ZN4juce18OggVorbisNamespaceL21_huff_book__44p0_longE, symObjAddr: 0x751AC0, symBinAddr: 0x10075A458, symSize: 0x0 }
  - { offset: 0x577B3A, size: 0x8, addend: 0x0, symName: __ZN4juce18OggVorbisNamespaceL27_huff_lengthlist__44p0_longE, symObjAddr: 0x6BCB68, symBinAddr: 0x10069B188, symSize: 0x0 }
  - { offset: 0x577B53, size: 0x8, addend: 0x0, symName: __ZN4juce18OggVorbisNamespaceL20_huff_book__44p0_lfeE, symObjAddr: 0x751B08, symBinAddr: 0x10075A4A0, symSize: 0x0 }
  - { offset: 0x577B6C, size: 0x8, addend: 0x0, symName: __ZN4juce18OggVorbisNamespaceL26_huff_lengthlist__44p0_lfeE, symObjAddr: 0x6BCB99, symBinAddr: 0x10069B1B9, symSize: 0x0 }
  - { offset: 0x577B85, size: 0x8, addend: 0x0, symName: __ZN4juce18OggVorbisNamespaceL15_resbook_44p_l0E, symObjAddr: 0x751F88, symBinAddr: 0x10075A920, symSize: 0x0 }
  - { offset: 0x577B9E, size: 0x8, addend: 0x0, symName: __ZN4juce18OggVorbisNamespaceL10_44p0_l0_0E, symObjAddr: 0x751EB0, symBinAddr: 0x10075A848, symSize: 0x0 }
  - { offset: 0x577BB7, size: 0x8, addend: 0x0, symName: __ZN4juce18OggVorbisNamespaceL25_vq_lengthlist__44p0_l0_0E, symObjAddr: 0x6BCB9D, symBinAddr: 0x10069B1BD, symSize: 0x0 }
  - { offset: 0x577BD0, size: 0x8, addend: 0x0, symName: __ZN4juce18OggVorbisNamespaceL24_vq_quantlist__44p0_l0_0E, symObjAddr: 0x6BCC48, symBinAddr: 0x10069B268, symSize: 0x0 }
  - { offset: 0x577BE9, size: 0x8, addend: 0x0, symName: __ZN4juce18OggVorbisNamespaceL10_44p0_l0_1E, symObjAddr: 0x751EF8, symBinAddr: 0x10075A890, symSize: 0x0 }
  - { offset: 0x577C02, size: 0x8, addend: 0x0, symName: __ZN4juce18OggVorbisNamespaceL25_vq_lengthlist__44p0_l0_1E, symObjAddr: 0x6BCCB0, symBinAddr: 0x10069B2D0, symSize: 0x0 }
  - { offset: 0x577C1B, size: 0x8, addend: 0x0, symName: __ZN4juce18OggVorbisNamespaceL24_vq_quantlist__44p0_l0_1E, symObjAddr: 0x6BCCD0, symBinAddr: 0x10069B2F0, symSize: 0x0 }
  - { offset: 0x577C34, size: 0x8, addend: 0x0, symName: __ZN4juce18OggVorbisNamespaceL10_44p0_l1_0E, symObjAddr: 0x751F40, symBinAddr: 0x10075A8D8, symSize: 0x0 }
  - { offset: 0x577C4D, size: 0x8, addend: 0x0, symName: __ZN4juce18OggVorbisNamespaceL25_vq_lengthlist__44p0_l1_0E, symObjAddr: 0x6BCCF8, symBinAddr: 0x10069B318, symSize: 0x0 }
  - { offset: 0x577C66, size: 0x8, addend: 0x0, symName: __ZN4juce18OggVorbisNamespaceL24_vq_quantlist__44p0_l1_0E, symObjAddr: 0x6BCD08, symBinAddr: 0x10069B328, symSize: 0x0 }
  - { offset: 0x577C81, size: 0x8, addend: 0x0, symName: __ZN4juce18OggVorbisNamespaceL12_res_44p51_1E, symObjAddr: 0x750B00, symBinAddr: 0x100759498, symSize: 0x0 }
  - { offset: 0x577C9C, size: 0x8, addend: 0x0, symName: __ZN4juce18OggVorbisNamespaceL22_huff_book__44p1_shortE, symObjAddr: 0x752108, symBinAddr: 0x10075AAA0, symSize: 0x0 }
  - { offset: 0x577CB7, size: 0x8, addend: 0x0, symName: __ZN4juce18OggVorbisNamespaceL28_huff_lengthlist__44p1_shortE, symObjAddr: 0x6BCD20, symBinAddr: 0x10069B340, symSize: 0x0 }
  - { offset: 0x577CD0, size: 0x8, addend: 0x0, symName: __ZN4juce18OggVorbisNamespaceL14_resbook_44p_1E, symObjAddr: 0x752150, symBinAddr: 0x10075AAE8, symSize: 0x0 }
  - { offset: 0x577CEB, size: 0x8, addend: 0x0, symName: __ZN4juce18OggVorbisNamespaceL10_44p1_p1_0E, symObjAddr: 0x752360, symBinAddr: 0x10075ACF8, symSize: 0x0 }
  - { offset: 0x577D06, size: 0x8, addend: 0x0, symName: __ZN4juce18OggVorbisNamespaceL25_vq_lengthlist__44p1_p1_0E, symObjAddr: 0x6BCD70, symBinAddr: 0x10069B390, symSize: 0x0 }
  - { offset: 0x577D21, size: 0x8, addend: 0x0, symName: __ZN4juce18OggVorbisNamespaceL24_vq_quantlist__44p1_p1_0E, symObjAddr: 0x6BCD58, symBinAddr: 0x10069B378, symSize: 0x0 }
  - { offset: 0x577D3C, size: 0x8, addend: 0x0, symName: __ZN4juce18OggVorbisNamespaceL10_44p1_p2_0E, symObjAddr: 0x7523A8, symBinAddr: 0x10075AD40, symSize: 0x0 }
  - { offset: 0x577D57, size: 0x8, addend: 0x0, symName: __ZN4juce18OggVorbisNamespaceL25_vq_lengthlist__44p1_p2_0E, symObjAddr: 0x6BCE80, symBinAddr: 0x10069B4A0, symSize: 0x0 }
  - { offset: 0x577D72, size: 0x8, addend: 0x0, symName: __ZN4juce18OggVorbisNamespaceL24_vq_quantlist__44p1_p2_0E, symObjAddr: 0x6BCE68, symBinAddr: 0x10069B488, symSize: 0x0 }
  - { offset: 0x577D8D, size: 0x8, addend: 0x0, symName: __ZN4juce18OggVorbisNamespaceL10_44p1_p2_1E, symObjAddr: 0x7523F0, symBinAddr: 0x10075AD88, symSize: 0x0 }
  - { offset: 0x577DA8, size: 0x8, addend: 0x0, symName: __ZN4juce18OggVorbisNamespaceL25_vq_lengthlist__44p1_p2_1E, symObjAddr: 0x6BCF90, symBinAddr: 0x10069B5B0, symSize: 0x0 }
  - { offset: 0x577DC3, size: 0x8, addend: 0x0, symName: __ZN4juce18OggVorbisNamespaceL24_vq_quantlist__44p1_p2_1E, symObjAddr: 0x6BCF78, symBinAddr: 0x10069B598, symSize: 0x0 }
  - { offset: 0x577DDE, size: 0x8, addend: 0x0, symName: __ZN4juce18OggVorbisNamespaceL10_44p1_p3_0E, symObjAddr: 0x752438, symBinAddr: 0x10075ADD0, symSize: 0x0 }
  - { offset: 0x577DF9, size: 0x8, addend: 0x0, symName: __ZN4juce18OggVorbisNamespaceL25_vq_lengthlist__44p1_p3_0E, symObjAddr: 0x6BD083, symBinAddr: 0x10069B6A3, symSize: 0x0 }
  - { offset: 0x577E14, size: 0x8, addend: 0x0, symName: __ZN4juce18OggVorbisNamespaceL24_vq_quantlist__44p1_p3_0E, symObjAddr: 0x6BD178, symBinAddr: 0x10069B798, symSize: 0x0 }
  - { offset: 0x577E2F, size: 0x8, addend: 0x0, symName: __ZN4juce18OggVorbisNamespaceL10_44p1_p3_1E, symObjAddr: 0x752480, symBinAddr: 0x10075AE18, symSize: 0x0 }
  - { offset: 0x577E4A, size: 0x8, addend: 0x0, symName: __ZN4juce18OggVorbisNamespaceL25_vq_lengthlist__44p1_p3_1E, symObjAddr: 0x6BD190, symBinAddr: 0x10069B7B0, symSize: 0x0 }
  - { offset: 0x577E65, size: 0x8, addend: 0x0, symName: __ZN4juce18OggVorbisNamespaceL24_vq_quantlist__44p1_p3_1E, symObjAddr: 0x6BDDC8, symBinAddr: 0x10069C3E8, symSize: 0x0 }
  - { offset: 0x577E80, size: 0x8, addend: 0x0, symName: __ZN4juce18OggVorbisNamespaceL10_44p1_p4_0E, symObjAddr: 0x7524C8, symBinAddr: 0x10075AE60, symSize: 0x0 }
  - { offset: 0x577E9B, size: 0x8, addend: 0x0, symName: __ZN4juce18OggVorbisNamespaceL25_vq_lengthlist__44p1_p4_0E, symObjAddr: 0x6BDDF0, symBinAddr: 0x10069C410, symSize: 0x0 }
  - { offset: 0x577EB6, size: 0x8, addend: 0x0, symName: __ZN4juce18OggVorbisNamespaceL24_vq_quantlist__44p1_p4_0E, symObjAddr: 0x6BEA28, symBinAddr: 0x10069D048, symSize: 0x0 }
  - { offset: 0x577ED1, size: 0x8, addend: 0x0, symName: __ZN4juce18OggVorbisNamespaceL10_44p1_p4_1E, symObjAddr: 0x752510, symBinAddr: 0x10075AEA8, symSize: 0x0 }
  - { offset: 0x577EEC, size: 0x8, addend: 0x0, symName: __ZN4juce18OggVorbisNamespaceL25_vq_lengthlist__44p1_p4_1E, symObjAddr: 0x6BEA50, symBinAddr: 0x10069D070, symSize: 0x0 }
  - { offset: 0x577F07, size: 0x8, addend: 0x0, symName: __ZN4juce18OggVorbisNamespaceL24_vq_quantlist__44p1_p4_1E, symObjAddr: 0x6BEA58, symBinAddr: 0x10069D078, symSize: 0x0 }
  - { offset: 0x577F22, size: 0x8, addend: 0x0, symName: __ZN4juce18OggVorbisNamespaceL10_44p1_p5_0E, symObjAddr: 0x752558, symBinAddr: 0x10075AEF0, symSize: 0x0 }
  - { offset: 0x577F3D, size: 0x8, addend: 0x0, symName: __ZN4juce18OggVorbisNamespaceL25_vq_lengthlist__44p1_p5_0E, symObjAddr: 0x6BEA90, symBinAddr: 0x10069D0B0, symSize: 0x0 }
  - { offset: 0x577F58, size: 0x8, addend: 0x0, symName: __ZN4juce18OggVorbisNamespaceL24_vq_quantlist__44p1_p5_0E, symObjAddr: 0x6BEB88, symBinAddr: 0x10069D1A8, symSize: 0x0 }
  - { offset: 0x577F73, size: 0x8, addend: 0x0, symName: __ZN4juce18OggVorbisNamespaceL10_44p1_p5_1E, symObjAddr: 0x7525A0, symBinAddr: 0x10075AF38, symSize: 0x0 }
  - { offset: 0x577F8E, size: 0x8, addend: 0x0, symName: __ZN4juce18OggVorbisNamespaceL25_vq_lengthlist__44p1_p5_1E, symObjAddr: 0x6BEBA0, symBinAddr: 0x10069D1C0, symSize: 0x0 }
  - { offset: 0x577FA9, size: 0x8, addend: 0x0, symName: __ZN4juce18OggVorbisNamespaceL24_vq_quantlist__44p1_p5_1E, symObjAddr: 0x6BEC98, symBinAddr: 0x10069D2B8, symSize: 0x0 }
  - { offset: 0x577FC4, size: 0x8, addend: 0x0, symName: __ZN4juce18OggVorbisNamespaceL10_44p1_p6_0E, symObjAddr: 0x7525E8, symBinAddr: 0x10075AF80, symSize: 0x0 }
  - { offset: 0x577FDF, size: 0x8, addend: 0x0, symName: __ZN4juce18OggVorbisNamespaceL25_vq_lengthlist__44p1_p6_0E, symObjAddr: 0x6BECB0, symBinAddr: 0x10069D2D0, symSize: 0x0 }
  - { offset: 0x577FFA, size: 0x8, addend: 0x0, symName: __ZN4juce18OggVorbisNamespaceL24_vq_quantlist__44p1_p6_0E, symObjAddr: 0x6BEDA8, symBinAddr: 0x10069D3C8, symSize: 0x0 }
  - { offset: 0x578015, size: 0x8, addend: 0x0, symName: __ZN4juce18OggVorbisNamespaceL10_44p1_p6_1E, symObjAddr: 0x752630, symBinAddr: 0x10075AFC8, symSize: 0x0 }
  - { offset: 0x578030, size: 0x8, addend: 0x0, symName: __ZN4juce18OggVorbisNamespaceL25_vq_lengthlist__44p1_p6_1E, symObjAddr: 0x6BEDC0, symBinAddr: 0x10069D3E0, symSize: 0x0 }
  - { offset: 0x57804B, size: 0x8, addend: 0x0, symName: __ZN4juce18OggVorbisNamespaceL24_vq_quantlist__44p1_p6_1E, symObjAddr: 0x6BEDE0, symBinAddr: 0x10069D400, symSize: 0x0 }
  - { offset: 0x578066, size: 0x8, addend: 0x0, symName: __ZN4juce18OggVorbisNamespaceL10_44p1_p6_2E, symObjAddr: 0x752678, symBinAddr: 0x10075B010, symSize: 0x0 }
  - { offset: 0x578081, size: 0x8, addend: 0x0, symName: __ZN4juce18OggVorbisNamespaceL25_vq_lengthlist__44p1_p6_2E, symObjAddr: 0x6BEEA8, symBinAddr: 0x10069D4C8, symSize: 0x0 }
  - { offset: 0x57809C, size: 0x8, addend: 0x0, symName: __ZN4juce18OggVorbisNamespaceL24_vq_quantlist__44p1_p6_2E, symObjAddr: 0x6BEEC8, symBinAddr: 0x10069D4E8, symSize: 0x0 }
  - { offset: 0x5780B7, size: 0x8, addend: 0x0, symName: __ZN4juce18OggVorbisNamespaceL21_huff_book__44p1_longE, symObjAddr: 0x7522D0, symBinAddr: 0x10075AC68, symSize: 0x0 }
  - { offset: 0x5780D2, size: 0x8, addend: 0x0, symName: __ZN4juce18OggVorbisNamespaceL27_huff_lengthlist__44p1_longE, symObjAddr: 0x6BEF90, symBinAddr: 0x10069D5B0, symSize: 0x0 }
  - { offset: 0x5780ED, size: 0x8, addend: 0x0, symName: __ZN4juce18OggVorbisNamespaceL20_huff_book__44p1_lfeE, symObjAddr: 0x752318, symBinAddr: 0x10075ACB0, symSize: 0x0 }
  - { offset: 0x578108, size: 0x8, addend: 0x0, symName: __ZN4juce18OggVorbisNamespaceL26_huff_lengthlist__44p1_lfeE, symObjAddr: 0x6BEFC1, symBinAddr: 0x10069D5E1, symSize: 0x0 }
  - { offset: 0x578121, size: 0x8, addend: 0x0, symName: __ZN4juce18OggVorbisNamespaceL15_resbook_44p_l1E, symObjAddr: 0x752798, symBinAddr: 0x10075B130, symSize: 0x0 }
  - { offset: 0x57813C, size: 0x8, addend: 0x0, symName: __ZN4juce18OggVorbisNamespaceL10_44p1_l0_0E, symObjAddr: 0x7526C0, symBinAddr: 0x10075B058, symSize: 0x0 }
  - { offset: 0x578157, size: 0x8, addend: 0x0, symName: __ZN4juce18OggVorbisNamespaceL25_vq_lengthlist__44p1_l0_0E, symObjAddr: 0x6BEFC5, symBinAddr: 0x10069D5E5, symSize: 0x0 }
  - { offset: 0x578172, size: 0x8, addend: 0x0, symName: __ZN4juce18OggVorbisNamespaceL24_vq_quantlist__44p1_l0_0E, symObjAddr: 0x6BF070, symBinAddr: 0x10069D690, symSize: 0x0 }
  - { offset: 0x57818D, size: 0x8, addend: 0x0, symName: __ZN4juce18OggVorbisNamespaceL10_44p1_l0_1E, symObjAddr: 0x752708, symBinAddr: 0x10075B0A0, symSize: 0x0 }
  - { offset: 0x5781A8, size: 0x8, addend: 0x0, symName: __ZN4juce18OggVorbisNamespaceL25_vq_lengthlist__44p1_l0_1E, symObjAddr: 0x6BF0D8, symBinAddr: 0x10069D6F8, symSize: 0x0 }
  - { offset: 0x5781C3, size: 0x8, addend: 0x0, symName: __ZN4juce18OggVorbisNamespaceL24_vq_quantlist__44p1_l0_1E, symObjAddr: 0x6BF0F8, symBinAddr: 0x10069D718, symSize: 0x0 }
  - { offset: 0x5781DE, size: 0x8, addend: 0x0, symName: __ZN4juce18OggVorbisNamespaceL10_44p1_l1_0E, symObjAddr: 0x752750, symBinAddr: 0x10075B0E8, symSize: 0x0 }
  - { offset: 0x5781F9, size: 0x8, addend: 0x0, symName: __ZN4juce18OggVorbisNamespaceL25_vq_lengthlist__44p1_l1_0E, symObjAddr: 0x6BF120, symBinAddr: 0x10069D740, symSize: 0x0 }
  - { offset: 0x578214, size: 0x8, addend: 0x0, symName: __ZN4juce18OggVorbisNamespaceL24_vq_quantlist__44p1_l1_0E, symObjAddr: 0x6BF130, symBinAddr: 0x10069D750, symSize: 0x0 }
  - { offset: 0x57822F, size: 0x8, addend: 0x0, symName: __ZN4juce18OggVorbisNamespaceL12_res_44p51_2E, symObjAddr: 0x750BA8, symBinAddr: 0x100759540, symSize: 0x0 }
  - { offset: 0x578248, size: 0x8, addend: 0x0, symName: __ZN4juce18OggVorbisNamespaceL12_residue_44pE, symObjAddr: 0x6BF148, symBinAddr: 0x10069D768, symSize: 0x0 }
  - { offset: 0x578263, size: 0x8, addend: 0x0, symName: __ZN4juce18OggVorbisNamespaceL22_huff_book__44p2_shortE, symObjAddr: 0x752918, symBinAddr: 0x10075B2B0, symSize: 0x0 }
  - { offset: 0x57827E, size: 0x8, addend: 0x0, symName: __ZN4juce18OggVorbisNamespaceL28_huff_lengthlist__44p2_shortE, symObjAddr: 0x6BFC68, symBinAddr: 0x10069E288, symSize: 0x0 }
  - { offset: 0x578297, size: 0x8, addend: 0x0, symName: __ZN4juce18OggVorbisNamespaceL14_resbook_44p_2E, symObjAddr: 0x752960, symBinAddr: 0x10075B2F8, symSize: 0x0 }
  - { offset: 0x5782B2, size: 0x8, addend: 0x0, symName: __ZN4juce18OggVorbisNamespaceL10_44p2_p1_0E, symObjAddr: 0x752B70, symBinAddr: 0x10075B508, symSize: 0x0 }
  - { offset: 0x5782CD, size: 0x8, addend: 0x0, symName: __ZN4juce18OggVorbisNamespaceL25_vq_lengthlist__44p2_p1_0E, symObjAddr: 0x6BFCC0, symBinAddr: 0x10069E2E0, symSize: 0x0 }
  - { offset: 0x5782E8, size: 0x8, addend: 0x0, symName: __ZN4juce18OggVorbisNamespaceL24_vq_quantlist__44p2_p1_0E, symObjAddr: 0x6BFCA8, symBinAddr: 0x10069E2C8, symSize: 0x0 }
  - { offset: 0x578303, size: 0x8, addend: 0x0, symName: __ZN4juce18OggVorbisNamespaceL10_44p2_p2_0E, symObjAddr: 0x752BB8, symBinAddr: 0x10075B550, symSize: 0x0 }
  - { offset: 0x57831E, size: 0x8, addend: 0x0, symName: __ZN4juce18OggVorbisNamespaceL25_vq_lengthlist__44p2_p2_0E, symObjAddr: 0x6BFDE0, symBinAddr: 0x10069E400, symSize: 0x0 }
  - { offset: 0x578339, size: 0x8, addend: 0x0, symName: __ZN4juce18OggVorbisNamespaceL24_vq_quantlist__44p2_p2_0E, symObjAddr: 0x6BFDB8, symBinAddr: 0x10069E3D8, symSize: 0x0 }
  - { offset: 0x578354, size: 0x8, addend: 0x0, symName: __ZN4juce18OggVorbisNamespaceL10_44p2_p3_0E, symObjAddr: 0x752C00, symBinAddr: 0x10075B598, symSize: 0x0 }
  - { offset: 0x57836F, size: 0x8, addend: 0x0, symName: __ZN4juce18OggVorbisNamespaceL25_vq_lengthlist__44p2_p3_0E, symObjAddr: 0x6C0A30, symBinAddr: 0x10069F050, symSize: 0x0 }
  - { offset: 0x57838A, size: 0x8, addend: 0x0, symName: __ZN4juce18OggVorbisNamespaceL24_vq_quantlist__44p2_p3_0E, symObjAddr: 0x6C0A18, symBinAddr: 0x10069F038, symSize: 0x0 }
  - { offset: 0x5783A5, size: 0x8, addend: 0x0, symName: __ZN4juce18OggVorbisNamespaceL10_44p2_p3_1E, symObjAddr: 0x752C48, symBinAddr: 0x10075B5E0, symSize: 0x0 }
  - { offset: 0x5783C0, size: 0x8, addend: 0x0, symName: __ZN4juce18OggVorbisNamespaceL25_vq_lengthlist__44p2_p3_1E, symObjAddr: 0x6C0B23, symBinAddr: 0x10069F143, symSize: 0x0 }
  - { offset: 0x5783DB, size: 0x8, addend: 0x0, symName: __ZN4juce18OggVorbisNamespaceL24_vq_quantlist__44p2_p3_1E, symObjAddr: 0x6C0C18, symBinAddr: 0x10069F238, symSize: 0x0 }
  - { offset: 0x5783F6, size: 0x8, addend: 0x0, symName: __ZN4juce18OggVorbisNamespaceL10_44p2_p4_0E, symObjAddr: 0x752C90, symBinAddr: 0x10075B628, symSize: 0x0 }
  - { offset: 0x578411, size: 0x8, addend: 0x0, symName: __ZN4juce18OggVorbisNamespaceL25_vq_lengthlist__44p2_p4_0E, symObjAddr: 0x6C0C30, symBinAddr: 0x10069F250, symSize: 0x0 }
  - { offset: 0x57842C, size: 0x8, addend: 0x0, symName: __ZN4juce18OggVorbisNamespaceL24_vq_quantlist__44p2_p4_0E, symObjAddr: 0x6C0D28, symBinAddr: 0x10069F348, symSize: 0x0 }
  - { offset: 0x578447, size: 0x8, addend: 0x0, symName: __ZN4juce18OggVorbisNamespaceL10_44p2_p4_1E, symObjAddr: 0x752CD8, symBinAddr: 0x10075B670, symSize: 0x0 }
  - { offset: 0x578462, size: 0x8, addend: 0x0, symName: __ZN4juce18OggVorbisNamespaceL25_vq_lengthlist__44p2_p4_1E, symObjAddr: 0x6C0D40, symBinAddr: 0x10069F360, symSize: 0x0 }
  - { offset: 0x57847D, size: 0x8, addend: 0x0, symName: __ZN4juce18OggVorbisNamespaceL24_vq_quantlist__44p2_p4_1E, symObjAddr: 0x6C1978, symBinAddr: 0x10069FF98, symSize: 0x0 }
  - { offset: 0x578498, size: 0x8, addend: 0x0, symName: __ZN4juce18OggVorbisNamespaceL10_44p2_p5_0E, symObjAddr: 0x752D20, symBinAddr: 0x10075B6B8, symSize: 0x0 }
  - { offset: 0x5784B3, size: 0x8, addend: 0x0, symName: __ZN4juce18OggVorbisNamespaceL25_vq_lengthlist__44p2_p5_0E, symObjAddr: 0x6C19A0, symBinAddr: 0x10069FFC0, symSize: 0x0 }
  - { offset: 0x5784CE, size: 0x8, addend: 0x0, symName: __ZN4juce18OggVorbisNamespaceL24_vq_quantlist__44p2_p5_0E, symObjAddr: 0x6C25D8, symBinAddr: 0x1006A0BF8, symSize: 0x0 }
  - { offset: 0x5784E9, size: 0x8, addend: 0x0, symName: __ZN4juce18OggVorbisNamespaceL10_44p2_p5_1E, symObjAddr: 0x752D68, symBinAddr: 0x10075B700, symSize: 0x0 }
  - { offset: 0x578504, size: 0x8, addend: 0x0, symName: __ZN4juce18OggVorbisNamespaceL25_vq_lengthlist__44p2_p5_1E, symObjAddr: 0x6C2600, symBinAddr: 0x1006A0C20, symSize: 0x0 }
  - { offset: 0x57851F, size: 0x8, addend: 0x0, symName: __ZN4juce18OggVorbisNamespaceL24_vq_quantlist__44p2_p5_1E, symObjAddr: 0x6C2608, symBinAddr: 0x1006A0C28, symSize: 0x0 }
  - { offset: 0x57853A, size: 0x8, addend: 0x0, symName: __ZN4juce18OggVorbisNamespaceL10_44p2_p6_0E, symObjAddr: 0x752DB0, symBinAddr: 0x10075B748, symSize: 0x0 }
  - { offset: 0x578555, size: 0x8, addend: 0x0, symName: __ZN4juce18OggVorbisNamespaceL25_vq_lengthlist__44p2_p6_0E, symObjAddr: 0x6C2640, symBinAddr: 0x1006A0C60, symSize: 0x0 }
  - { offset: 0x578570, size: 0x8, addend: 0x0, symName: __ZN4juce18OggVorbisNamespaceL24_vq_quantlist__44p2_p6_0E, symObjAddr: 0x6C2738, symBinAddr: 0x1006A0D58, symSize: 0x0 }
  - { offset: 0x57858B, size: 0x8, addend: 0x0, symName: __ZN4juce18OggVorbisNamespaceL10_44p2_p6_1E, symObjAddr: 0x752DF8, symBinAddr: 0x10075B790, symSize: 0x0 }
  - { offset: 0x5785A6, size: 0x8, addend: 0x0, symName: __ZN4juce18OggVorbisNamespaceL25_vq_lengthlist__44p2_p6_1E, symObjAddr: 0x6C2750, symBinAddr: 0x1006A0D70, symSize: 0x0 }
  - { offset: 0x5785C1, size: 0x8, addend: 0x0, symName: __ZN4juce18OggVorbisNamespaceL24_vq_quantlist__44p2_p6_1E, symObjAddr: 0x6C2848, symBinAddr: 0x1006A0E68, symSize: 0x0 }
  - { offset: 0x5785DC, size: 0x8, addend: 0x0, symName: __ZN4juce18OggVorbisNamespaceL10_44p2_p7_0E, symObjAddr: 0x752E40, symBinAddr: 0x10075B7D8, symSize: 0x0 }
  - { offset: 0x5785F7, size: 0x8, addend: 0x0, symName: __ZN4juce18OggVorbisNamespaceL25_vq_lengthlist__44p2_p7_0E, symObjAddr: 0x6C2860, symBinAddr: 0x1006A0E80, symSize: 0x0 }
  - { offset: 0x578612, size: 0x8, addend: 0x0, symName: __ZN4juce18OggVorbisNamespaceL24_vq_quantlist__44p2_p7_0E, symObjAddr: 0x6C2958, symBinAddr: 0x1006A0F78, symSize: 0x0 }
  - { offset: 0x57862D, size: 0x8, addend: 0x0, symName: __ZN4juce18OggVorbisNamespaceL10_44p2_p7_1E, symObjAddr: 0x752E88, symBinAddr: 0x10075B820, symSize: 0x0 }
  - { offset: 0x578648, size: 0x8, addend: 0x0, symName: __ZN4juce18OggVorbisNamespaceL25_vq_lengthlist__44p2_p7_1E, symObjAddr: 0x6C2970, symBinAddr: 0x1006A0F90, symSize: 0x0 }
  - { offset: 0x578663, size: 0x8, addend: 0x0, symName: __ZN4juce18OggVorbisNamespaceL24_vq_quantlist__44p2_p7_1E, symObjAddr: 0x6C2A68, symBinAddr: 0x1006A1088, symSize: 0x0 }
  - { offset: 0x57867E, size: 0x8, addend: 0x0, symName: __ZN4juce18OggVorbisNamespaceL10_44p2_p7_2E, symObjAddr: 0x752ED0, symBinAddr: 0x10075B868, symSize: 0x0 }
  - { offset: 0x578699, size: 0x8, addend: 0x0, symName: __ZN4juce18OggVorbisNamespaceL25_vq_lengthlist__44p2_p7_2E, symObjAddr: 0x6C2A80, symBinAddr: 0x1006A10A0, symSize: 0x0 }
  - { offset: 0x5786B4, size: 0x8, addend: 0x0, symName: __ZN4juce18OggVorbisNamespaceL24_vq_quantlist__44p2_p7_2E, symObjAddr: 0x6C2AA0, symBinAddr: 0x1006A10C0, symSize: 0x0 }
  - { offset: 0x5786CF, size: 0x8, addend: 0x0, symName: __ZN4juce18OggVorbisNamespaceL10_44p2_p7_3E, symObjAddr: 0x752F18, symBinAddr: 0x10075B8B0, symSize: 0x0 }
  - { offset: 0x5786EA, size: 0x8, addend: 0x0, symName: __ZN4juce18OggVorbisNamespaceL25_vq_lengthlist__44p2_p7_3E, symObjAddr: 0x6C2B68, symBinAddr: 0x1006A1188, symSize: 0x0 }
  - { offset: 0x578705, size: 0x8, addend: 0x0, symName: __ZN4juce18OggVorbisNamespaceL24_vq_quantlist__44p2_p7_3E, symObjAddr: 0x6C2B88, symBinAddr: 0x1006A11A8, symSize: 0x0 }
  - { offset: 0x578720, size: 0x8, addend: 0x0, symName: __ZN4juce18OggVorbisNamespaceL21_huff_book__44p2_longE, symObjAddr: 0x752AE0, symBinAddr: 0x10075B478, symSize: 0x0 }
  - { offset: 0x57873B, size: 0x8, addend: 0x0, symName: __ZN4juce18OggVorbisNamespaceL27_huff_lengthlist__44p2_longE, symObjAddr: 0x6C2C50, symBinAddr: 0x1006A1270, symSize: 0x0 }
  - { offset: 0x578756, size: 0x8, addend: 0x0, symName: __ZN4juce18OggVorbisNamespaceL20_huff_book__44p2_lfeE, symObjAddr: 0x752B28, symBinAddr: 0x10075B4C0, symSize: 0x0 }
  - { offset: 0x578771, size: 0x8, addend: 0x0, symName: __ZN4juce18OggVorbisNamespaceL26_huff_lengthlist__44p2_lfeE, symObjAddr: 0x6C2C90, symBinAddr: 0x1006A12B0, symSize: 0x0 }
  - { offset: 0x57878A, size: 0x8, addend: 0x0, symName: __ZN4juce18OggVorbisNamespaceL15_resbook_44p_l2E, symObjAddr: 0x753038, symBinAddr: 0x10075B9D0, symSize: 0x0 }
  - { offset: 0x5787A5, size: 0x8, addend: 0x0, symName: __ZN4juce18OggVorbisNamespaceL10_44p2_l0_0E, symObjAddr: 0x752F60, symBinAddr: 0x10075B8F8, symSize: 0x0 }
  - { offset: 0x5787C0, size: 0x8, addend: 0x0, symName: __ZN4juce18OggVorbisNamespaceL25_vq_lengthlist__44p2_l0_0E, symObjAddr: 0x6C2C94, symBinAddr: 0x1006A12B4, symSize: 0x0 }
  - { offset: 0x5787DB, size: 0x8, addend: 0x0, symName: __ZN4juce18OggVorbisNamespaceL24_vq_quantlist__44p2_l0_0E, symObjAddr: 0x6C2D40, symBinAddr: 0x1006A1360, symSize: 0x0 }
  - { offset: 0x5787F6, size: 0x8, addend: 0x0, symName: __ZN4juce18OggVorbisNamespaceL10_44p2_l0_1E, symObjAddr: 0x752FA8, symBinAddr: 0x10075B940, symSize: 0x0 }
  - { offset: 0x578811, size: 0x8, addend: 0x0, symName: __ZN4juce18OggVorbisNamespaceL25_vq_lengthlist__44p2_l0_1E, symObjAddr: 0x6C2DA8, symBinAddr: 0x1006A13C8, symSize: 0x0 }
  - { offset: 0x57882C, size: 0x8, addend: 0x0, symName: __ZN4juce18OggVorbisNamespaceL24_vq_quantlist__44p2_l0_1E, symObjAddr: 0x6C2DC8, symBinAddr: 0x1006A13E8, symSize: 0x0 }
  - { offset: 0x578847, size: 0x8, addend: 0x0, symName: __ZN4juce18OggVorbisNamespaceL10_44p2_l1_0E, symObjAddr: 0x752FF0, symBinAddr: 0x10075B988, symSize: 0x0 }
  - { offset: 0x578862, size: 0x8, addend: 0x0, symName: __ZN4juce18OggVorbisNamespaceL25_vq_lengthlist__44p2_l1_0E, symObjAddr: 0x6C2DF0, symBinAddr: 0x1006A1410, symSize: 0x0 }
  - { offset: 0x57887D, size: 0x8, addend: 0x0, symName: __ZN4juce18OggVorbisNamespaceL24_vq_quantlist__44p2_l1_0E, symObjAddr: 0x6C2E00, symBinAddr: 0x1006A1420, symSize: 0x0 }
  - { offset: 0x578898, size: 0x8, addend: 0x0, symName: __ZN4juce18OggVorbisNamespaceL12_res_44p51_3E, symObjAddr: 0x750C50, symBinAddr: 0x1007595E8, symSize: 0x0 }
  - { offset: 0x5788B3, size: 0x8, addend: 0x0, symName: __ZN4juce18OggVorbisNamespaceL22_huff_book__44p3_shortE, symObjAddr: 0x7531B8, symBinAddr: 0x10075BB50, symSize: 0x0 }
  - { offset: 0x5788CE, size: 0x8, addend: 0x0, symName: __ZN4juce18OggVorbisNamespaceL28_huff_lengthlist__44p3_shortE, symObjAddr: 0x6C2E18, symBinAddr: 0x1006A1438, symSize: 0x0 }
  - { offset: 0x5788E7, size: 0x8, addend: 0x0, symName: __ZN4juce18OggVorbisNamespaceL14_resbook_44p_3E, symObjAddr: 0x753200, symBinAddr: 0x10075BB98, symSize: 0x0 }
  - { offset: 0x578902, size: 0x8, addend: 0x0, symName: __ZN4juce18OggVorbisNamespaceL10_44p3_p1_0E, symObjAddr: 0x753410, symBinAddr: 0x10075BDA8, symSize: 0x0 }
  - { offset: 0x57891D, size: 0x8, addend: 0x0, symName: __ZN4juce18OggVorbisNamespaceL25_vq_lengthlist__44p3_p1_0E, symObjAddr: 0x6C2E70, symBinAddr: 0x1006A1490, symSize: 0x0 }
  - { offset: 0x578938, size: 0x8, addend: 0x0, symName: __ZN4juce18OggVorbisNamespaceL24_vq_quantlist__44p3_p1_0E, symObjAddr: 0x6C2E58, symBinAddr: 0x1006A1478, symSize: 0x0 }
  - { offset: 0x578953, size: 0x8, addend: 0x0, symName: __ZN4juce18OggVorbisNamespaceL10_44p3_p2_0E, symObjAddr: 0x753458, symBinAddr: 0x10075BDF0, symSize: 0x0 }
  - { offset: 0x57896E, size: 0x8, addend: 0x0, symName: __ZN4juce18OggVorbisNamespaceL25_vq_lengthlist__44p3_p2_0E, symObjAddr: 0x6C2F90, symBinAddr: 0x1006A15B0, symSize: 0x0 }
  - { offset: 0x578989, size: 0x8, addend: 0x0, symName: __ZN4juce18OggVorbisNamespaceL24_vq_quantlist__44p3_p2_0E, symObjAddr: 0x6C2F68, symBinAddr: 0x1006A1588, symSize: 0x0 }
  - { offset: 0x5789A4, size: 0x8, addend: 0x0, symName: __ZN4juce18OggVorbisNamespaceL10_44p3_p3_0E, symObjAddr: 0x7534A0, symBinAddr: 0x10075BE38, symSize: 0x0 }
  - { offset: 0x5789BF, size: 0x8, addend: 0x0, symName: __ZN4juce18OggVorbisNamespaceL25_vq_lengthlist__44p3_p3_0E, symObjAddr: 0x6C3BE0, symBinAddr: 0x1006A2200, symSize: 0x0 }
  - { offset: 0x5789DA, size: 0x8, addend: 0x0, symName: __ZN4juce18OggVorbisNamespaceL24_vq_quantlist__44p3_p3_0E, symObjAddr: 0x6C3BC8, symBinAddr: 0x1006A21E8, symSize: 0x0 }
  - { offset: 0x5789F5, size: 0x8, addend: 0x0, symName: __ZN4juce18OggVorbisNamespaceL10_44p3_p3_1E, symObjAddr: 0x7534E8, symBinAddr: 0x10075BE80, symSize: 0x0 }
  - { offset: 0x578A10, size: 0x8, addend: 0x0, symName: __ZN4juce18OggVorbisNamespaceL25_vq_lengthlist__44p3_p3_1E, symObjAddr: 0x6C3CD3, symBinAddr: 0x1006A22F3, symSize: 0x0 }
  - { offset: 0x578A2B, size: 0x8, addend: 0x0, symName: __ZN4juce18OggVorbisNamespaceL24_vq_quantlist__44p3_p3_1E, symObjAddr: 0x6C3DC8, symBinAddr: 0x1006A23E8, symSize: 0x0 }
  - { offset: 0x578A46, size: 0x8, addend: 0x0, symName: __ZN4juce18OggVorbisNamespaceL10_44p3_p4_0E, symObjAddr: 0x753530, symBinAddr: 0x10075BEC8, symSize: 0x0 }
  - { offset: 0x578A61, size: 0x8, addend: 0x0, symName: __ZN4juce18OggVorbisNamespaceL25_vq_lengthlist__44p3_p4_0E, symObjAddr: 0x6C3DE0, symBinAddr: 0x1006A2400, symSize: 0x0 }
  - { offset: 0x578A7C, size: 0x8, addend: 0x0, symName: __ZN4juce18OggVorbisNamespaceL24_vq_quantlist__44p3_p4_0E, symObjAddr: 0x6C3ED8, symBinAddr: 0x1006A24F8, symSize: 0x0 }
  - { offset: 0x578A97, size: 0x8, addend: 0x0, symName: __ZN4juce18OggVorbisNamespaceL10_44p3_p4_1E, symObjAddr: 0x753578, symBinAddr: 0x10075BF10, symSize: 0x0 }
  - { offset: 0x578AB2, size: 0x8, addend: 0x0, symName: __ZN4juce18OggVorbisNamespaceL25_vq_lengthlist__44p3_p4_1E, symObjAddr: 0x6C3EF0, symBinAddr: 0x1006A2510, symSize: 0x0 }
  - { offset: 0x578ACD, size: 0x8, addend: 0x0, symName: __ZN4juce18OggVorbisNamespaceL24_vq_quantlist__44p3_p4_1E, symObjAddr: 0x6C4B28, symBinAddr: 0x1006A3148, symSize: 0x0 }
  - { offset: 0x578AE8, size: 0x8, addend: 0x0, symName: __ZN4juce18OggVorbisNamespaceL10_44p3_p5_0E, symObjAddr: 0x7535C0, symBinAddr: 0x10075BF58, symSize: 0x0 }
  - { offset: 0x578B03, size: 0x8, addend: 0x0, symName: __ZN4juce18OggVorbisNamespaceL25_vq_lengthlist__44p3_p5_0E, symObjAddr: 0x6C4B50, symBinAddr: 0x1006A3170, symSize: 0x0 }
  - { offset: 0x578B1E, size: 0x8, addend: 0x0, symName: __ZN4juce18OggVorbisNamespaceL24_vq_quantlist__44p3_p5_0E, symObjAddr: 0x6C5788, symBinAddr: 0x1006A3DA8, symSize: 0x0 }
  - { offset: 0x578B39, size: 0x8, addend: 0x0, symName: __ZN4juce18OggVorbisNamespaceL10_44p3_p5_1E, symObjAddr: 0x753608, symBinAddr: 0x10075BFA0, symSize: 0x0 }
  - { offset: 0x578B54, size: 0x8, addend: 0x0, symName: __ZN4juce18OggVorbisNamespaceL25_vq_lengthlist__44p3_p5_1E, symObjAddr: 0x6C57B0, symBinAddr: 0x1006A3DD0, symSize: 0x0 }
  - { offset: 0x578B6F, size: 0x8, addend: 0x0, symName: __ZN4juce18OggVorbisNamespaceL24_vq_quantlist__44p3_p5_1E, symObjAddr: 0x6C57B8, symBinAddr: 0x1006A3DD8, symSize: 0x0 }
  - { offset: 0x578B8A, size: 0x8, addend: 0x0, symName: __ZN4juce18OggVorbisNamespaceL10_44p3_p6_0E, symObjAddr: 0x753650, symBinAddr: 0x10075BFE8, symSize: 0x0 }
  - { offset: 0x578BA5, size: 0x8, addend: 0x0, symName: __ZN4juce18OggVorbisNamespaceL25_vq_lengthlist__44p3_p6_0E, symObjAddr: 0x6C57F0, symBinAddr: 0x1006A3E10, symSize: 0x0 }
  - { offset: 0x578BC0, size: 0x8, addend: 0x0, symName: __ZN4juce18OggVorbisNamespaceL24_vq_quantlist__44p3_p6_0E, symObjAddr: 0x6C58E8, symBinAddr: 0x1006A3F08, symSize: 0x0 }
  - { offset: 0x578BDB, size: 0x8, addend: 0x0, symName: __ZN4juce18OggVorbisNamespaceL10_44p3_p6_1E, symObjAddr: 0x753698, symBinAddr: 0x10075C030, symSize: 0x0 }
  - { offset: 0x578BF6, size: 0x8, addend: 0x0, symName: __ZN4juce18OggVorbisNamespaceL25_vq_lengthlist__44p3_p6_1E, symObjAddr: 0x6C5900, symBinAddr: 0x1006A3F20, symSize: 0x0 }
  - { offset: 0x578C11, size: 0x8, addend: 0x0, symName: __ZN4juce18OggVorbisNamespaceL24_vq_quantlist__44p3_p6_1E, symObjAddr: 0x6C59F8, symBinAddr: 0x1006A4018, symSize: 0x0 }
  - { offset: 0x578C2C, size: 0x8, addend: 0x0, symName: __ZN4juce18OggVorbisNamespaceL10_44p3_p7_0E, symObjAddr: 0x7536E0, symBinAddr: 0x10075C078, symSize: 0x0 }
  - { offset: 0x578C47, size: 0x8, addend: 0x0, symName: __ZN4juce18OggVorbisNamespaceL25_vq_lengthlist__44p3_p7_0E, symObjAddr: 0x6C5A10, symBinAddr: 0x1006A4030, symSize: 0x0 }
  - { offset: 0x578C62, size: 0x8, addend: 0x0, symName: __ZN4juce18OggVorbisNamespaceL24_vq_quantlist__44p3_p7_0E, symObjAddr: 0x6C5B08, symBinAddr: 0x1006A4128, symSize: 0x0 }
  - { offset: 0x578C7D, size: 0x8, addend: 0x0, symName: __ZN4juce18OggVorbisNamespaceL10_44p3_p7_1E, symObjAddr: 0x753728, symBinAddr: 0x10075C0C0, symSize: 0x0 }
  - { offset: 0x578C98, size: 0x8, addend: 0x0, symName: __ZN4juce18OggVorbisNamespaceL25_vq_lengthlist__44p3_p7_1E, symObjAddr: 0x6C5B20, symBinAddr: 0x1006A4140, symSize: 0x0 }
  - { offset: 0x578CB3, size: 0x8, addend: 0x0, symName: __ZN4juce18OggVorbisNamespaceL24_vq_quantlist__44p3_p7_1E, symObjAddr: 0x6C5C18, symBinAddr: 0x1006A4238, symSize: 0x0 }
  - { offset: 0x578CCE, size: 0x8, addend: 0x0, symName: __ZN4juce18OggVorbisNamespaceL10_44p3_p7_2E, symObjAddr: 0x753770, symBinAddr: 0x10075C108, symSize: 0x0 }
  - { offset: 0x578CE9, size: 0x8, addend: 0x0, symName: __ZN4juce18OggVorbisNamespaceL25_vq_lengthlist__44p3_p7_2E, symObjAddr: 0x6C5C30, symBinAddr: 0x1006A4250, symSize: 0x0 }
  - { offset: 0x578D04, size: 0x8, addend: 0x0, symName: __ZN4juce18OggVorbisNamespaceL24_vq_quantlist__44p3_p7_2E, symObjAddr: 0x6C5C50, symBinAddr: 0x1006A4270, symSize: 0x0 }
  - { offset: 0x578D1F, size: 0x8, addend: 0x0, symName: __ZN4juce18OggVorbisNamespaceL10_44p3_p7_3E, symObjAddr: 0x7537B8, symBinAddr: 0x10075C150, symSize: 0x0 }
  - { offset: 0x578D3A, size: 0x8, addend: 0x0, symName: __ZN4juce18OggVorbisNamespaceL25_vq_lengthlist__44p3_p7_3E, symObjAddr: 0x6C5D18, symBinAddr: 0x1006A4338, symSize: 0x0 }
  - { offset: 0x578D55, size: 0x8, addend: 0x0, symName: __ZN4juce18OggVorbisNamespaceL24_vq_quantlist__44p3_p7_3E, symObjAddr: 0x6C5D38, symBinAddr: 0x1006A4358, symSize: 0x0 }
  - { offset: 0x578D70, size: 0x8, addend: 0x0, symName: __ZN4juce18OggVorbisNamespaceL21_huff_book__44p3_longE, symObjAddr: 0x753380, symBinAddr: 0x10075BD18, symSize: 0x0 }
  - { offset: 0x578D8B, size: 0x8, addend: 0x0, symName: __ZN4juce18OggVorbisNamespaceL27_huff_lengthlist__44p3_longE, symObjAddr: 0x6C5E00, symBinAddr: 0x1006A4420, symSize: 0x0 }
  - { offset: 0x578DA6, size: 0x8, addend: 0x0, symName: __ZN4juce18OggVorbisNamespaceL20_huff_book__44p3_lfeE, symObjAddr: 0x7533C8, symBinAddr: 0x10075BD60, symSize: 0x0 }
  - { offset: 0x578DC1, size: 0x8, addend: 0x0, symName: __ZN4juce18OggVorbisNamespaceL26_huff_lengthlist__44p3_lfeE, symObjAddr: 0x6C5E40, symBinAddr: 0x1006A4460, symSize: 0x0 }
  - { offset: 0x578DDA, size: 0x8, addend: 0x0, symName: __ZN4juce18OggVorbisNamespaceL15_resbook_44p_l3E, symObjAddr: 0x7538D8, symBinAddr: 0x10075C270, symSize: 0x0 }
  - { offset: 0x578DF5, size: 0x8, addend: 0x0, symName: __ZN4juce18OggVorbisNamespaceL10_44p3_l0_0E, symObjAddr: 0x753800, symBinAddr: 0x10075C198, symSize: 0x0 }
  - { offset: 0x578E10, size: 0x8, addend: 0x0, symName: __ZN4juce18OggVorbisNamespaceL25_vq_lengthlist__44p3_l0_0E, symObjAddr: 0x6C5E44, symBinAddr: 0x1006A4464, symSize: 0x0 }
  - { offset: 0x578E2B, size: 0x8, addend: 0x0, symName: __ZN4juce18OggVorbisNamespaceL24_vq_quantlist__44p3_l0_0E, symObjAddr: 0x6C5EF0, symBinAddr: 0x1006A4510, symSize: 0x0 }
  - { offset: 0x578E46, size: 0x8, addend: 0x0, symName: __ZN4juce18OggVorbisNamespaceL10_44p3_l0_1E, symObjAddr: 0x753848, symBinAddr: 0x10075C1E0, symSize: 0x0 }
  - { offset: 0x578E61, size: 0x8, addend: 0x0, symName: __ZN4juce18OggVorbisNamespaceL25_vq_lengthlist__44p3_l0_1E, symObjAddr: 0x6C5F58, symBinAddr: 0x1006A4578, symSize: 0x0 }
  - { offset: 0x578E7C, size: 0x8, addend: 0x0, symName: __ZN4juce18OggVorbisNamespaceL24_vq_quantlist__44p3_l0_1E, symObjAddr: 0x6C5F78, symBinAddr: 0x1006A4598, symSize: 0x0 }
  - { offset: 0x578E97, size: 0x8, addend: 0x0, symName: __ZN4juce18OggVorbisNamespaceL10_44p3_l1_0E, symObjAddr: 0x753890, symBinAddr: 0x10075C228, symSize: 0x0 }
  - { offset: 0x578EB2, size: 0x8, addend: 0x0, symName: __ZN4juce18OggVorbisNamespaceL25_vq_lengthlist__44p3_l1_0E, symObjAddr: 0x6C5FA0, symBinAddr: 0x1006A45C0, symSize: 0x0 }
  - { offset: 0x578ECD, size: 0x8, addend: 0x0, symName: __ZN4juce18OggVorbisNamespaceL24_vq_quantlist__44p3_l1_0E, symObjAddr: 0x6C5FB0, symBinAddr: 0x1006A45D0, symSize: 0x0 }
  - { offset: 0x578EE8, size: 0x8, addend: 0x0, symName: __ZN4juce18OggVorbisNamespaceL12_res_44p51_4E, symObjAddr: 0x750CF8, symBinAddr: 0x100759690, symSize: 0x0 }
  - { offset: 0x578F03, size: 0x8, addend: 0x0, symName: __ZN4juce18OggVorbisNamespaceL22_huff_book__44p4_shortE, symObjAddr: 0x753A58, symBinAddr: 0x10075C3F0, symSize: 0x0 }
  - { offset: 0x578F1E, size: 0x8, addend: 0x0, symName: __ZN4juce18OggVorbisNamespaceL28_huff_lengthlist__44p4_shortE, symObjAddr: 0x6C5FC8, symBinAddr: 0x1006A45E8, symSize: 0x0 }
  - { offset: 0x578F37, size: 0x8, addend: 0x0, symName: __ZN4juce18OggVorbisNamespaceL14_resbook_44p_4E, symObjAddr: 0x753AA0, symBinAddr: 0x10075C438, symSize: 0x0 }
  - { offset: 0x578F52, size: 0x8, addend: 0x0, symName: __ZN4juce18OggVorbisNamespaceL10_44p4_p1_0E, symObjAddr: 0x753CB0, symBinAddr: 0x10075C648, symSize: 0x0 }
  - { offset: 0x578F6D, size: 0x8, addend: 0x0, symName: __ZN4juce18OggVorbisNamespaceL25_vq_lengthlist__44p4_p1_0E, symObjAddr: 0x6C6020, symBinAddr: 0x1006A4640, symSize: 0x0 }
  - { offset: 0x578F88, size: 0x8, addend: 0x0, symName: __ZN4juce18OggVorbisNamespaceL24_vq_quantlist__44p4_p1_0E, symObjAddr: 0x6C6008, symBinAddr: 0x1006A4628, symSize: 0x0 }
  - { offset: 0x578FA3, size: 0x8, addend: 0x0, symName: __ZN4juce18OggVorbisNamespaceL10_44p4_p2_0E, symObjAddr: 0x753CF8, symBinAddr: 0x10075C690, symSize: 0x0 }
  - { offset: 0x578FBE, size: 0x8, addend: 0x0, symName: __ZN4juce18OggVorbisNamespaceL25_vq_lengthlist__44p4_p2_0E, symObjAddr: 0x6C6140, symBinAddr: 0x1006A4760, symSize: 0x0 }
  - { offset: 0x578FD9, size: 0x8, addend: 0x0, symName: __ZN4juce18OggVorbisNamespaceL24_vq_quantlist__44p4_p2_0E, symObjAddr: 0x6C6118, symBinAddr: 0x1006A4738, symSize: 0x0 }
  - { offset: 0x578FF4, size: 0x8, addend: 0x0, symName: __ZN4juce18OggVorbisNamespaceL10_44p4_p3_0E, symObjAddr: 0x753D40, symBinAddr: 0x10075C6D8, symSize: 0x0 }
  - { offset: 0x57900F, size: 0x8, addend: 0x0, symName: __ZN4juce18OggVorbisNamespaceL25_vq_lengthlist__44p4_p3_0E, symObjAddr: 0x6C6D90, symBinAddr: 0x1006A53B0, symSize: 0x0 }
  - { offset: 0x57902A, size: 0x8, addend: 0x0, symName: __ZN4juce18OggVorbisNamespaceL24_vq_quantlist__44p4_p3_0E, symObjAddr: 0x6C6D78, symBinAddr: 0x1006A5398, symSize: 0x0 }
  - { offset: 0x579045, size: 0x8, addend: 0x0, symName: __ZN4juce18OggVorbisNamespaceL10_44p4_p3_1E, symObjAddr: 0x753D88, symBinAddr: 0x10075C720, symSize: 0x0 }
  - { offset: 0x579060, size: 0x8, addend: 0x0, symName: __ZN4juce18OggVorbisNamespaceL25_vq_lengthlist__44p4_p3_1E, symObjAddr: 0x6C6E83, symBinAddr: 0x1006A54A3, symSize: 0x0 }
  - { offset: 0x57907B, size: 0x8, addend: 0x0, symName: __ZN4juce18OggVorbisNamespaceL24_vq_quantlist__44p4_p3_1E, symObjAddr: 0x6C6F78, symBinAddr: 0x1006A5598, symSize: 0x0 }
  - { offset: 0x579096, size: 0x8, addend: 0x0, symName: __ZN4juce18OggVorbisNamespaceL10_44p4_p4_0E, symObjAddr: 0x753DD0, symBinAddr: 0x10075C768, symSize: 0x0 }
  - { offset: 0x5790B1, size: 0x8, addend: 0x0, symName: __ZN4juce18OggVorbisNamespaceL25_vq_lengthlist__44p4_p4_0E, symObjAddr: 0x6C6F90, symBinAddr: 0x1006A55B0, symSize: 0x0 }
  - { offset: 0x5790CC, size: 0x8, addend: 0x0, symName: __ZN4juce18OggVorbisNamespaceL24_vq_quantlist__44p4_p4_0E, symObjAddr: 0x6C7088, symBinAddr: 0x1006A56A8, symSize: 0x0 }
  - { offset: 0x5790E7, size: 0x8, addend: 0x0, symName: __ZN4juce18OggVorbisNamespaceL10_44p4_p4_1E, symObjAddr: 0x753E18, symBinAddr: 0x10075C7B0, symSize: 0x0 }
  - { offset: 0x579102, size: 0x8, addend: 0x0, symName: __ZN4juce18OggVorbisNamespaceL25_vq_lengthlist__44p4_p4_1E, symObjAddr: 0x6C70A0, symBinAddr: 0x1006A56C0, symSize: 0x0 }
  - { offset: 0x57911D, size: 0x8, addend: 0x0, symName: __ZN4juce18OggVorbisNamespaceL24_vq_quantlist__44p4_p4_1E, symObjAddr: 0x6C7CD8, symBinAddr: 0x1006A62F8, symSize: 0x0 }
  - { offset: 0x579138, size: 0x8, addend: 0x0, symName: __ZN4juce18OggVorbisNamespaceL10_44p4_p5_0E, symObjAddr: 0x753E60, symBinAddr: 0x10075C7F8, symSize: 0x0 }
  - { offset: 0x579153, size: 0x8, addend: 0x0, symName: __ZN4juce18OggVorbisNamespaceL25_vq_lengthlist__44p4_p5_0E, symObjAddr: 0x6C7D00, symBinAddr: 0x1006A6320, symSize: 0x0 }
  - { offset: 0x57916E, size: 0x8, addend: 0x0, symName: __ZN4juce18OggVorbisNamespaceL24_vq_quantlist__44p4_p5_0E, symObjAddr: 0x6C8938, symBinAddr: 0x1006A6F58, symSize: 0x0 }
  - { offset: 0x579189, size: 0x8, addend: 0x0, symName: __ZN4juce18OggVorbisNamespaceL10_44p4_p5_1E, symObjAddr: 0x753EA8, symBinAddr: 0x10075C840, symSize: 0x0 }
  - { offset: 0x5791A4, size: 0x8, addend: 0x0, symName: __ZN4juce18OggVorbisNamespaceL25_vq_lengthlist__44p4_p5_1E, symObjAddr: 0x6C8960, symBinAddr: 0x1006A6F80, symSize: 0x0 }
  - { offset: 0x5791BF, size: 0x8, addend: 0x0, symName: __ZN4juce18OggVorbisNamespaceL24_vq_quantlist__44p4_p5_1E, symObjAddr: 0x6C8968, symBinAddr: 0x1006A6F88, symSize: 0x0 }
  - { offset: 0x5791DA, size: 0x8, addend: 0x0, symName: __ZN4juce18OggVorbisNamespaceL10_44p4_p6_0E, symObjAddr: 0x753EF0, symBinAddr: 0x10075C888, symSize: 0x0 }
  - { offset: 0x5791F5, size: 0x8, addend: 0x0, symName: __ZN4juce18OggVorbisNamespaceL25_vq_lengthlist__44p4_p6_0E, symObjAddr: 0x6C89A0, symBinAddr: 0x1006A6FC0, symSize: 0x0 }
  - { offset: 0x579210, size: 0x8, addend: 0x0, symName: __ZN4juce18OggVorbisNamespaceL24_vq_quantlist__44p4_p6_0E, symObjAddr: 0x6C8A98, symBinAddr: 0x1006A70B8, symSize: 0x0 }
  - { offset: 0x57922B, size: 0x8, addend: 0x0, symName: __ZN4juce18OggVorbisNamespaceL10_44p4_p6_1E, symObjAddr: 0x753F38, symBinAddr: 0x10075C8D0, symSize: 0x0 }
  - { offset: 0x579246, size: 0x8, addend: 0x0, symName: __ZN4juce18OggVorbisNamespaceL25_vq_lengthlist__44p4_p6_1E, symObjAddr: 0x6C8AB0, symBinAddr: 0x1006A70D0, symSize: 0x0 }
  - { offset: 0x579261, size: 0x8, addend: 0x0, symName: __ZN4juce18OggVorbisNamespaceL24_vq_quantlist__44p4_p6_1E, symObjAddr: 0x6C8BA8, symBinAddr: 0x1006A71C8, symSize: 0x0 }
  - { offset: 0x57927C, size: 0x8, addend: 0x0, symName: __ZN4juce18OggVorbisNamespaceL10_44p4_p7_0E, symObjAddr: 0x753F80, symBinAddr: 0x10075C918, symSize: 0x0 }
  - { offset: 0x579297, size: 0x8, addend: 0x0, symName: __ZN4juce18OggVorbisNamespaceL25_vq_lengthlist__44p4_p7_0E, symObjAddr: 0x6C8BC0, symBinAddr: 0x1006A71E0, symSize: 0x0 }
  - { offset: 0x5792B2, size: 0x8, addend: 0x0, symName: __ZN4juce18OggVorbisNamespaceL24_vq_quantlist__44p4_p7_0E, symObjAddr: 0x6C8CB8, symBinAddr: 0x1006A72D8, symSize: 0x0 }
  - { offset: 0x5792CD, size: 0x8, addend: 0x0, symName: __ZN4juce18OggVorbisNamespaceL10_44p4_p7_1E, symObjAddr: 0x753FC8, symBinAddr: 0x10075C960, symSize: 0x0 }
  - { offset: 0x5792E8, size: 0x8, addend: 0x0, symName: __ZN4juce18OggVorbisNamespaceL25_vq_lengthlist__44p4_p7_1E, symObjAddr: 0x6C8CD0, symBinAddr: 0x1006A72F0, symSize: 0x0 }
  - { offset: 0x579303, size: 0x8, addend: 0x0, symName: __ZN4juce18OggVorbisNamespaceL24_vq_quantlist__44p4_p7_1E, symObjAddr: 0x6C8DC8, symBinAddr: 0x1006A73E8, symSize: 0x0 }
  - { offset: 0x57931E, size: 0x8, addend: 0x0, symName: __ZN4juce18OggVorbisNamespaceL10_44p4_p7_2E, symObjAddr: 0x754010, symBinAddr: 0x10075C9A8, symSize: 0x0 }
  - { offset: 0x579339, size: 0x8, addend: 0x0, symName: __ZN4juce18OggVorbisNamespaceL25_vq_lengthlist__44p4_p7_2E, symObjAddr: 0x6C8DE0, symBinAddr: 0x1006A7400, symSize: 0x0 }
  - { offset: 0x579354, size: 0x8, addend: 0x0, symName: __ZN4juce18OggVorbisNamespaceL24_vq_quantlist__44p4_p7_2E, symObjAddr: 0x6C8E00, symBinAddr: 0x1006A7420, symSize: 0x0 }
  - { offset: 0x57936F, size: 0x8, addend: 0x0, symName: __ZN4juce18OggVorbisNamespaceL10_44p4_p7_3E, symObjAddr: 0x754058, symBinAddr: 0x10075C9F0, symSize: 0x0 }
  - { offset: 0x57938A, size: 0x8, addend: 0x0, symName: __ZN4juce18OggVorbisNamespaceL25_vq_lengthlist__44p4_p7_3E, symObjAddr: 0x6C8EC8, symBinAddr: 0x1006A74E8, symSize: 0x0 }
  - { offset: 0x5793A5, size: 0x8, addend: 0x0, symName: __ZN4juce18OggVorbisNamespaceL24_vq_quantlist__44p4_p7_3E, symObjAddr: 0x6C8EE8, symBinAddr: 0x1006A7508, symSize: 0x0 }
  - { offset: 0x5793C0, size: 0x8, addend: 0x0, symName: __ZN4juce18OggVorbisNamespaceL21_huff_book__44p4_longE, symObjAddr: 0x753C20, symBinAddr: 0x10075C5B8, symSize: 0x0 }
  - { offset: 0x5793DB, size: 0x8, addend: 0x0, symName: __ZN4juce18OggVorbisNamespaceL27_huff_lengthlist__44p4_longE, symObjAddr: 0x6C8FB0, symBinAddr: 0x1006A75D0, symSize: 0x0 }
  - { offset: 0x5793F6, size: 0x8, addend: 0x0, symName: __ZN4juce18OggVorbisNamespaceL20_huff_book__44p4_lfeE, symObjAddr: 0x753C68, symBinAddr: 0x10075C600, symSize: 0x0 }
  - { offset: 0x579411, size: 0x8, addend: 0x0, symName: __ZN4juce18OggVorbisNamespaceL26_huff_lengthlist__44p4_lfeE, symObjAddr: 0x6C8FF0, symBinAddr: 0x1006A7610, symSize: 0x0 }
  - { offset: 0x57942A, size: 0x8, addend: 0x0, symName: __ZN4juce18OggVorbisNamespaceL15_resbook_44p_l4E, symObjAddr: 0x754178, symBinAddr: 0x10075CB10, symSize: 0x0 }
  - { offset: 0x579445, size: 0x8, addend: 0x0, symName: __ZN4juce18OggVorbisNamespaceL10_44p4_l0_0E, symObjAddr: 0x7540A0, symBinAddr: 0x10075CA38, symSize: 0x0 }
  - { offset: 0x579460, size: 0x8, addend: 0x0, symName: __ZN4juce18OggVorbisNamespaceL25_vq_lengthlist__44p4_l0_0E, symObjAddr: 0x6C8FF4, symBinAddr: 0x1006A7614, symSize: 0x0 }
  - { offset: 0x57947B, size: 0x8, addend: 0x0, symName: __ZN4juce18OggVorbisNamespaceL24_vq_quantlist__44p4_l0_0E, symObjAddr: 0x6C90A0, symBinAddr: 0x1006A76C0, symSize: 0x0 }
  - { offset: 0x579496, size: 0x8, addend: 0x0, symName: __ZN4juce18OggVorbisNamespaceL10_44p4_l0_1E, symObjAddr: 0x7540E8, symBinAddr: 0x10075CA80, symSize: 0x0 }
  - { offset: 0x5794B1, size: 0x8, addend: 0x0, symName: __ZN4juce18OggVorbisNamespaceL25_vq_lengthlist__44p4_l0_1E, symObjAddr: 0x6C9108, symBinAddr: 0x1006A7728, symSize: 0x0 }
  - { offset: 0x5794CC, size: 0x8, addend: 0x0, symName: __ZN4juce18OggVorbisNamespaceL24_vq_quantlist__44p4_l0_1E, symObjAddr: 0x6C9128, symBinAddr: 0x1006A7748, symSize: 0x0 }
  - { offset: 0x5794E7, size: 0x8, addend: 0x0, symName: __ZN4juce18OggVorbisNamespaceL10_44p4_l1_0E, symObjAddr: 0x754130, symBinAddr: 0x10075CAC8, symSize: 0x0 }
  - { offset: 0x579502, size: 0x8, addend: 0x0, symName: __ZN4juce18OggVorbisNamespaceL25_vq_lengthlist__44p4_l1_0E, symObjAddr: 0x6C9150, symBinAddr: 0x1006A7770, symSize: 0x0 }
  - { offset: 0x57951D, size: 0x8, addend: 0x0, symName: __ZN4juce18OggVorbisNamespaceL24_vq_quantlist__44p4_l1_0E, symObjAddr: 0x6C9160, symBinAddr: 0x1006A7780, symSize: 0x0 }
  - { offset: 0x579538, size: 0x8, addend: 0x0, symName: __ZN4juce18OggVorbisNamespaceL16_map_nominal_51uE, symObjAddr: 0x6C9178, symBinAddr: 0x1006A7798, symSize: 0x0 }
  - { offset: 0x579553, size: 0x8, addend: 0x0, symName: __ZN4juce18OggVorbisNamespaceL12_res_44p51_5E, symObjAddr: 0x750DA0, symBinAddr: 0x100759738, symSize: 0x0 }
  - { offset: 0x57956C, size: 0x8, addend: 0x0, symName: __ZN4juce18OggVorbisNamespaceL15_residue_44p_hiE, symObjAddr: 0x6CAA88, symBinAddr: 0x1006A90A8, symSize: 0x0 }
  - { offset: 0x579587, size: 0x8, addend: 0x0, symName: __ZN4juce18OggVorbisNamespaceL22_huff_book__44p5_shortE, symObjAddr: 0x7542F8, symBinAddr: 0x10075CC90, symSize: 0x0 }
  - { offset: 0x5795A2, size: 0x8, addend: 0x0, symName: __ZN4juce18OggVorbisNamespaceL28_huff_lengthlist__44p5_shortE, symObjAddr: 0x6CB5A8, symBinAddr: 0x1006A9BC8, symSize: 0x0 }
  - { offset: 0x5795BB, size: 0x8, addend: 0x0, symName: __ZN4juce18OggVorbisNamespaceL14_resbook_44p_5E, symObjAddr: 0x754340, symBinAddr: 0x10075CCD8, symSize: 0x0 }
  - { offset: 0x5795D6, size: 0x8, addend: 0x0, symName: __ZN4juce18OggVorbisNamespaceL10_44p5_p1_0E, symObjAddr: 0x754550, symBinAddr: 0x10075CEE8, symSize: 0x0 }
  - { offset: 0x5795F1, size: 0x8, addend: 0x0, symName: __ZN4juce18OggVorbisNamespaceL25_vq_lengthlist__44p5_p1_0E, symObjAddr: 0x6CB5E8, symBinAddr: 0x1006A9C08, symSize: 0x0 }
  - { offset: 0x57960C, size: 0x8, addend: 0x0, symName: __ZN4juce18OggVorbisNamespaceL24_vq_quantlist__44p5_p1_0E, symObjAddr: 0x6CB6E0, symBinAddr: 0x1006A9D00, symSize: 0x0 }
  - { offset: 0x579627, size: 0x8, addend: 0x0, symName: __ZN4juce18OggVorbisNamespaceL10_44p5_p2_0E, symObjAddr: 0x754598, symBinAddr: 0x10075CF30, symSize: 0x0 }
  - { offset: 0x579642, size: 0x8, addend: 0x0, symName: __ZN4juce18OggVorbisNamespaceL25_vq_lengthlist__44p5_p2_0E, symObjAddr: 0x6CB6F8, symBinAddr: 0x1006A9D18, symSize: 0x0 }
  - { offset: 0x57965D, size: 0x8, addend: 0x0, symName: __ZN4juce18OggVorbisNamespaceL24_vq_quantlist__44p5_p2_0E, symObjAddr: 0x6CC330, symBinAddr: 0x1006AA950, symSize: 0x0 }
  - { offset: 0x579678, size: 0x8, addend: 0x0, symName: __ZN4juce18OggVorbisNamespaceL10_44p5_p3_0E, symObjAddr: 0x7545E0, symBinAddr: 0x10075CF78, symSize: 0x0 }
  - { offset: 0x579693, size: 0x8, addend: 0x0, symName: __ZN4juce18OggVorbisNamespaceL25_vq_lengthlist__44p5_p3_0E, symObjAddr: 0x6CC358, symBinAddr: 0x1006AA978, symSize: 0x0 }
  - { offset: 0x5796AE, size: 0x8, addend: 0x0, symName: __ZN4juce18OggVorbisNamespaceL24_vq_quantlist__44p5_p3_0E, symObjAddr: 0x6CC450, symBinAddr: 0x1006AAA70, symSize: 0x0 }
  - { offset: 0x5796C9, size: 0x8, addend: 0x0, symName: __ZN4juce18OggVorbisNamespaceL10_44p5_p3_1E, symObjAddr: 0x754628, symBinAddr: 0x10075CFC0, symSize: 0x0 }
  - { offset: 0x5796E4, size: 0x8, addend: 0x0, symName: __ZN4juce18OggVorbisNamespaceL25_vq_lengthlist__44p5_p3_1E, symObjAddr: 0x6CC468, symBinAddr: 0x1006AAA88, symSize: 0x0 }
  - { offset: 0x5796FF, size: 0x8, addend: 0x0, symName: __ZN4juce18OggVorbisNamespaceL24_vq_quantlist__44p5_p3_1E, symObjAddr: 0x6CC560, symBinAddr: 0x1006AAB80, symSize: 0x0 }
  - { offset: 0x57971A, size: 0x8, addend: 0x0, symName: __ZN4juce18OggVorbisNamespaceL10_44p5_p4_0E, symObjAddr: 0x754670, symBinAddr: 0x10075D008, symSize: 0x0 }
  - { offset: 0x579735, size: 0x8, addend: 0x0, symName: __ZN4juce18OggVorbisNamespaceL25_vq_lengthlist__44p5_p4_0E, symObjAddr: 0x6CC578, symBinAddr: 0x1006AAB98, symSize: 0x0 }
  - { offset: 0x579750, size: 0x8, addend: 0x0, symName: __ZN4juce18OggVorbisNamespaceL24_vq_quantlist__44p5_p4_0E, symObjAddr: 0x6CC670, symBinAddr: 0x1006AAC90, symSize: 0x0 }
  - { offset: 0x57976B, size: 0x8, addend: 0x0, symName: __ZN4juce18OggVorbisNamespaceL10_44p5_p4_1E, symObjAddr: 0x7546B8, symBinAddr: 0x10075D050, symSize: 0x0 }
  - { offset: 0x579786, size: 0x8, addend: 0x0, symName: __ZN4juce18OggVorbisNamespaceL25_vq_lengthlist__44p5_p4_1E, symObjAddr: 0x6CC688, symBinAddr: 0x1006AACA8, symSize: 0x0 }
  - { offset: 0x5797A1, size: 0x8, addend: 0x0, symName: __ZN4juce18OggVorbisNamespaceL24_vq_quantlist__44p5_p4_1E, symObjAddr: 0x6CD2C0, symBinAddr: 0x1006AB8E0, symSize: 0x0 }
  - { offset: 0x5797BC, size: 0x8, addend: 0x0, symName: __ZN4juce18OggVorbisNamespaceL10_44p5_p5_0E, symObjAddr: 0x754700, symBinAddr: 0x10075D098, symSize: 0x0 }
  - { offset: 0x5797D7, size: 0x8, addend: 0x0, symName: __ZN4juce18OggVorbisNamespaceL25_vq_lengthlist__44p5_p5_0E, symObjAddr: 0x6CD2E8, symBinAddr: 0x1006AB908, symSize: 0x0 }
  - { offset: 0x5797F2, size: 0x8, addend: 0x0, symName: __ZN4juce18OggVorbisNamespaceL24_vq_quantlist__44p5_p5_0E, symObjAddr: 0x6CDF20, symBinAddr: 0x1006AC540, symSize: 0x0 }
  - { offset: 0x57980D, size: 0x8, addend: 0x0, symName: __ZN4juce18OggVorbisNamespaceL10_44p5_p5_1E, symObjAddr: 0x754748, symBinAddr: 0x10075D0E0, symSize: 0x0 }
  - { offset: 0x579828, size: 0x8, addend: 0x0, symName: __ZN4juce18OggVorbisNamespaceL25_vq_lengthlist__44p5_p5_1E, symObjAddr: 0x6CDF48, symBinAddr: 0x1006AC568, symSize: 0x0 }
  - { offset: 0x579843, size: 0x8, addend: 0x0, symName: __ZN4juce18OggVorbisNamespaceL24_vq_quantlist__44p5_p5_1E, symObjAddr: 0x6CDF50, symBinAddr: 0x1006AC570, symSize: 0x0 }
  - { offset: 0x57985E, size: 0x8, addend: 0x0, symName: __ZN4juce18OggVorbisNamespaceL10_44p5_p6_0E, symObjAddr: 0x754790, symBinAddr: 0x10075D128, symSize: 0x0 }
  - { offset: 0x579879, size: 0x8, addend: 0x0, symName: __ZN4juce18OggVorbisNamespaceL25_vq_lengthlist__44p5_p6_0E, symObjAddr: 0x6CDF88, symBinAddr: 0x1006AC5A8, symSize: 0x0 }
  - { offset: 0x579894, size: 0x8, addend: 0x0, symName: __ZN4juce18OggVorbisNamespaceL24_vq_quantlist__44p5_p6_0E, symObjAddr: 0x6CE080, symBinAddr: 0x1006AC6A0, symSize: 0x0 }
  - { offset: 0x5798AF, size: 0x8, addend: 0x0, symName: __ZN4juce18OggVorbisNamespaceL10_44p5_p6_1E, symObjAddr: 0x7547D8, symBinAddr: 0x10075D170, symSize: 0x0 }
  - { offset: 0x5798CA, size: 0x8, addend: 0x0, symName: __ZN4juce18OggVorbisNamespaceL25_vq_lengthlist__44p5_p6_1E, symObjAddr: 0x6CE098, symBinAddr: 0x1006AC6B8, symSize: 0x0 }
  - { offset: 0x5798E5, size: 0x8, addend: 0x0, symName: __ZN4juce18OggVorbisNamespaceL24_vq_quantlist__44p5_p6_1E, symObjAddr: 0x6CE190, symBinAddr: 0x1006AC7B0, symSize: 0x0 }
  - { offset: 0x579900, size: 0x8, addend: 0x0, symName: __ZN4juce18OggVorbisNamespaceL10_44p5_p7_0E, symObjAddr: 0x754820, symBinAddr: 0x10075D1B8, symSize: 0x0 }
  - { offset: 0x57991B, size: 0x8, addend: 0x0, symName: __ZN4juce18OggVorbisNamespaceL25_vq_lengthlist__44p5_p7_0E, symObjAddr: 0x6CE1A8, symBinAddr: 0x1006AC7C8, symSize: 0x0 }
  - { offset: 0x579936, size: 0x8, addend: 0x0, symName: __ZN4juce18OggVorbisNamespaceL24_vq_quantlist__44p5_p7_0E, symObjAddr: 0x6CE2A0, symBinAddr: 0x1006AC8C0, symSize: 0x0 }
  - { offset: 0x579951, size: 0x8, addend: 0x0, symName: __ZN4juce18OggVorbisNamespaceL10_44p5_p7_1E, symObjAddr: 0x754868, symBinAddr: 0x10075D200, symSize: 0x0 }
  - { offset: 0x57996C, size: 0x8, addend: 0x0, symName: __ZN4juce18OggVorbisNamespaceL25_vq_lengthlist__44p5_p7_1E, symObjAddr: 0x6CE2B8, symBinAddr: 0x1006AC8D8, symSize: 0x0 }
  - { offset: 0x579987, size: 0x8, addend: 0x0, symName: __ZN4juce18OggVorbisNamespaceL24_vq_quantlist__44p5_p7_1E, symObjAddr: 0x6CE3B0, symBinAddr: 0x1006AC9D0, symSize: 0x0 }
  - { offset: 0x5799A2, size: 0x8, addend: 0x0, symName: __ZN4juce18OggVorbisNamespaceL10_44p5_p7_2E, symObjAddr: 0x7548B0, symBinAddr: 0x10075D248, symSize: 0x0 }
  - { offset: 0x5799BD, size: 0x8, addend: 0x0, symName: __ZN4juce18OggVorbisNamespaceL25_vq_lengthlist__44p5_p7_2E, symObjAddr: 0x6CE3C8, symBinAddr: 0x1006AC9E8, symSize: 0x0 }
  - { offset: 0x5799D8, size: 0x8, addend: 0x0, symName: __ZN4juce18OggVorbisNamespaceL24_vq_quantlist__44p5_p7_2E, symObjAddr: 0x6CE3E8, symBinAddr: 0x1006ACA08, symSize: 0x0 }
  - { offset: 0x5799F3, size: 0x8, addend: 0x0, symName: __ZN4juce18OggVorbisNamespaceL10_44p5_p7_3E, symObjAddr: 0x7548F8, symBinAddr: 0x10075D290, symSize: 0x0 }
  - { offset: 0x579A0E, size: 0x8, addend: 0x0, symName: __ZN4juce18OggVorbisNamespaceL25_vq_lengthlist__44p5_p7_3E, symObjAddr: 0x6CE4B0, symBinAddr: 0x1006ACAD0, symSize: 0x0 }
  - { offset: 0x579A29, size: 0x8, addend: 0x0, symName: __ZN4juce18OggVorbisNamespaceL24_vq_quantlist__44p5_p7_3E, symObjAddr: 0x6CE4D0, symBinAddr: 0x1006ACAF0, symSize: 0x0 }
  - { offset: 0x579A44, size: 0x8, addend: 0x0, symName: __ZN4juce18OggVorbisNamespaceL21_huff_book__44p5_longE, symObjAddr: 0x7544C0, symBinAddr: 0x10075CE58, symSize: 0x0 }
  - { offset: 0x579A5F, size: 0x8, addend: 0x0, symName: __ZN4juce18OggVorbisNamespaceL27_huff_lengthlist__44p5_longE, symObjAddr: 0x6CE598, symBinAddr: 0x1006ACBB8, symSize: 0x0 }
  - { offset: 0x579A7A, size: 0x8, addend: 0x0, symName: __ZN4juce18OggVorbisNamespaceL20_huff_book__44p5_lfeE, symObjAddr: 0x754508, symBinAddr: 0x10075CEA0, symSize: 0x0 }
  - { offset: 0x579A95, size: 0x8, addend: 0x0, symName: __ZN4juce18OggVorbisNamespaceL26_huff_lengthlist__44p5_lfeE, symObjAddr: 0x6CE5D8, symBinAddr: 0x1006ACBF8, symSize: 0x0 }
  - { offset: 0x579AAE, size: 0x8, addend: 0x0, symName: __ZN4juce18OggVorbisNamespaceL15_resbook_44p_l5E, symObjAddr: 0x754A18, symBinAddr: 0x10075D3B0, symSize: 0x0 }
  - { offset: 0x579AC9, size: 0x8, addend: 0x0, symName: __ZN4juce18OggVorbisNamespaceL10_44p5_l0_0E, symObjAddr: 0x754940, symBinAddr: 0x10075D2D8, symSize: 0x0 }
  - { offset: 0x579AE4, size: 0x8, addend: 0x0, symName: __ZN4juce18OggVorbisNamespaceL25_vq_lengthlist__44p5_l0_0E, symObjAddr: 0x6CE5DC, symBinAddr: 0x1006ACBFC, symSize: 0x0 }
  - { offset: 0x579AFF, size: 0x8, addend: 0x0, symName: __ZN4juce18OggVorbisNamespaceL24_vq_quantlist__44p5_l0_0E, symObjAddr: 0x6CE688, symBinAddr: 0x1006ACCA8, symSize: 0x0 }
  - { offset: 0x579B1A, size: 0x8, addend: 0x0, symName: __ZN4juce18OggVorbisNamespaceL10_44p5_l0_1E, symObjAddr: 0x754988, symBinAddr: 0x10075D320, symSize: 0x0 }
  - { offset: 0x579B35, size: 0x8, addend: 0x0, symName: __ZN4juce18OggVorbisNamespaceL25_vq_lengthlist__44p5_l0_1E, symObjAddr: 0x6CE6F0, symBinAddr: 0x1006ACD10, symSize: 0x0 }
  - { offset: 0x579B50, size: 0x8, addend: 0x0, symName: __ZN4juce18OggVorbisNamespaceL24_vq_quantlist__44p5_l0_1E, symObjAddr: 0x6CE710, symBinAddr: 0x1006ACD30, symSize: 0x0 }
  - { offset: 0x579B6B, size: 0x8, addend: 0x0, symName: __ZN4juce18OggVorbisNamespaceL10_44p5_l1_0E, symObjAddr: 0x7549D0, symBinAddr: 0x10075D368, symSize: 0x0 }
  - { offset: 0x579B86, size: 0x8, addend: 0x0, symName: __ZN4juce18OggVorbisNamespaceL25_vq_lengthlist__44p5_l1_0E, symObjAddr: 0x6CE738, symBinAddr: 0x1006ACD58, symSize: 0x0 }
  - { offset: 0x579BA1, size: 0x8, addend: 0x0, symName: __ZN4juce18OggVorbisNamespaceL24_vq_quantlist__44p5_l1_0E, symObjAddr: 0x6CE748, symBinAddr: 0x1006ACD68, symSize: 0x0 }
  - { offset: 0x579BBC, size: 0x8, addend: 0x0, symName: __ZN4juce18OggVorbisNamespaceL12_res_44p51_6E, symObjAddr: 0x750E48, symBinAddr: 0x1007597E0, symSize: 0x0 }
  - { offset: 0x579BD7, size: 0x8, addend: 0x0, symName: __ZN4juce18OggVorbisNamespaceL22_huff_book__44p6_shortE, symObjAddr: 0x754B98, symBinAddr: 0x10075D530, symSize: 0x0 }
  - { offset: 0x579BF2, size: 0x8, addend: 0x0, symName: __ZN4juce18OggVorbisNamespaceL28_huff_lengthlist__44p6_shortE, symObjAddr: 0x6CE760, symBinAddr: 0x1006ACD80, symSize: 0x0 }
  - { offset: 0x579C0B, size: 0x8, addend: 0x0, symName: __ZN4juce18OggVorbisNamespaceL14_resbook_44p_6E, symObjAddr: 0x754BE0, symBinAddr: 0x10075D578, symSize: 0x0 }
  - { offset: 0x579C26, size: 0x8, addend: 0x0, symName: __ZN4juce18OggVorbisNamespaceL10_44p6_p1_0E, symObjAddr: 0x754DF0, symBinAddr: 0x10075D788, symSize: 0x0 }
  - { offset: 0x579C41, size: 0x8, addend: 0x0, symName: __ZN4juce18OggVorbisNamespaceL25_vq_lengthlist__44p6_p1_0E, symObjAddr: 0x6CE7A0, symBinAddr: 0x1006ACDC0, symSize: 0x0 }
  - { offset: 0x579C5C, size: 0x8, addend: 0x0, symName: __ZN4juce18OggVorbisNamespaceL24_vq_quantlist__44p6_p1_0E, symObjAddr: 0x6CE898, symBinAddr: 0x1006ACEB8, symSize: 0x0 }
  - { offset: 0x579C77, size: 0x8, addend: 0x0, symName: __ZN4juce18OggVorbisNamespaceL10_44p6_p2_0E, symObjAddr: 0x754E38, symBinAddr: 0x10075D7D0, symSize: 0x0 }
  - { offset: 0x579C92, size: 0x8, addend: 0x0, symName: __ZN4juce18OggVorbisNamespaceL25_vq_lengthlist__44p6_p2_0E, symObjAddr: 0x6CE8B0, symBinAddr: 0x1006ACED0, symSize: 0x0 }
  - { offset: 0x579CAD, size: 0x8, addend: 0x0, symName: __ZN4juce18OggVorbisNamespaceL24_vq_quantlist__44p6_p2_0E, symObjAddr: 0x6CF4E8, symBinAddr: 0x1006ADB08, symSize: 0x0 }
  - { offset: 0x579CC8, size: 0x8, addend: 0x0, symName: __ZN4juce18OggVorbisNamespaceL10_44p6_p3_0E, symObjAddr: 0x754E80, symBinAddr: 0x10075D818, symSize: 0x0 }
  - { offset: 0x579CE3, size: 0x8, addend: 0x0, symName: __ZN4juce18OggVorbisNamespaceL25_vq_lengthlist__44p6_p3_0E, symObjAddr: 0x6CF510, symBinAddr: 0x1006ADB30, symSize: 0x0 }
  - { offset: 0x579CFE, size: 0x8, addend: 0x0, symName: __ZN4juce18OggVorbisNamespaceL24_vq_quantlist__44p6_p3_0E, symObjAddr: 0x6CF608, symBinAddr: 0x1006ADC28, symSize: 0x0 }
  - { offset: 0x579D19, size: 0x8, addend: 0x0, symName: __ZN4juce18OggVorbisNamespaceL10_44p6_p3_1E, symObjAddr: 0x754EC8, symBinAddr: 0x10075D860, symSize: 0x0 }
  - { offset: 0x579D34, size: 0x8, addend: 0x0, symName: __ZN4juce18OggVorbisNamespaceL25_vq_lengthlist__44p6_p3_1E, symObjAddr: 0x6CF620, symBinAddr: 0x1006ADC40, symSize: 0x0 }
  - { offset: 0x579D4F, size: 0x8, addend: 0x0, symName: __ZN4juce18OggVorbisNamespaceL24_vq_quantlist__44p6_p3_1E, symObjAddr: 0x6CF718, symBinAddr: 0x1006ADD38, symSize: 0x0 }
  - { offset: 0x579D6A, size: 0x8, addend: 0x0, symName: __ZN4juce18OggVorbisNamespaceL10_44p6_p4_0E, symObjAddr: 0x754F10, symBinAddr: 0x10075D8A8, symSize: 0x0 }
  - { offset: 0x579D85, size: 0x8, addend: 0x0, symName: __ZN4juce18OggVorbisNamespaceL25_vq_lengthlist__44p6_p4_0E, symObjAddr: 0x6CF730, symBinAddr: 0x1006ADD50, symSize: 0x0 }
  - { offset: 0x579DA0, size: 0x8, addend: 0x0, symName: __ZN4juce18OggVorbisNamespaceL24_vq_quantlist__44p6_p4_0E, symObjAddr: 0x6CF828, symBinAddr: 0x1006ADE48, symSize: 0x0 }
  - { offset: 0x579DBB, size: 0x8, addend: 0x0, symName: __ZN4juce18OggVorbisNamespaceL10_44p6_p4_1E, symObjAddr: 0x754F58, symBinAddr: 0x10075D8F0, symSize: 0x0 }
  - { offset: 0x579DD6, size: 0x8, addend: 0x0, symName: __ZN4juce18OggVorbisNamespaceL25_vq_lengthlist__44p6_p4_1E, symObjAddr: 0x6CF840, symBinAddr: 0x1006ADE60, symSize: 0x0 }
  - { offset: 0x579DF1, size: 0x8, addend: 0x0, symName: __ZN4juce18OggVorbisNamespaceL24_vq_quantlist__44p6_p4_1E, symObjAddr: 0x6D0478, symBinAddr: 0x1006AEA98, symSize: 0x0 }
  - { offset: 0x579E0C, size: 0x8, addend: 0x0, symName: __ZN4juce18OggVorbisNamespaceL10_44p6_p5_0E, symObjAddr: 0x754FA0, symBinAddr: 0x10075D938, symSize: 0x0 }
  - { offset: 0x579E27, size: 0x8, addend: 0x0, symName: __ZN4juce18OggVorbisNamespaceL25_vq_lengthlist__44p6_p5_0E, symObjAddr: 0x6D04A0, symBinAddr: 0x1006AEAC0, symSize: 0x0 }
  - { offset: 0x579E42, size: 0x8, addend: 0x0, symName: __ZN4juce18OggVorbisNamespaceL24_vq_quantlist__44p6_p5_0E, symObjAddr: 0x6D10D8, symBinAddr: 0x1006AF6F8, symSize: 0x0 }
  - { offset: 0x579E5D, size: 0x8, addend: 0x0, symName: __ZN4juce18OggVorbisNamespaceL10_44p6_p5_1E, symObjAddr: 0x754FE8, symBinAddr: 0x10075D980, symSize: 0x0 }
  - { offset: 0x579E78, size: 0x8, addend: 0x0, symName: __ZN4juce18OggVorbisNamespaceL25_vq_lengthlist__44p6_p5_1E, symObjAddr: 0x6D1100, symBinAddr: 0x1006AF720, symSize: 0x0 }
  - { offset: 0x579E93, size: 0x8, addend: 0x0, symName: __ZN4juce18OggVorbisNamespaceL24_vq_quantlist__44p6_p5_1E, symObjAddr: 0x6D1108, symBinAddr: 0x1006AF728, symSize: 0x0 }
  - { offset: 0x579EAE, size: 0x8, addend: 0x0, symName: __ZN4juce18OggVorbisNamespaceL10_44p6_p6_0E, symObjAddr: 0x755030, symBinAddr: 0x10075D9C8, symSize: 0x0 }
  - { offset: 0x579EC9, size: 0x8, addend: 0x0, symName: __ZN4juce18OggVorbisNamespaceL25_vq_lengthlist__44p6_p6_0E, symObjAddr: 0x6D1140, symBinAddr: 0x1006AF760, symSize: 0x0 }
  - { offset: 0x579EE4, size: 0x8, addend: 0x0, symName: __ZN4juce18OggVorbisNamespaceL24_vq_quantlist__44p6_p6_0E, symObjAddr: 0x6D1238, symBinAddr: 0x1006AF858, symSize: 0x0 }
  - { offset: 0x579EFF, size: 0x8, addend: 0x0, symName: __ZN4juce18OggVorbisNamespaceL10_44p6_p6_1E, symObjAddr: 0x755078, symBinAddr: 0x10075DA10, symSize: 0x0 }
  - { offset: 0x579F1A, size: 0x8, addend: 0x0, symName: __ZN4juce18OggVorbisNamespaceL25_vq_lengthlist__44p6_p6_1E, symObjAddr: 0x6D1250, symBinAddr: 0x1006AF870, symSize: 0x0 }
  - { offset: 0x579F35, size: 0x8, addend: 0x0, symName: __ZN4juce18OggVorbisNamespaceL24_vq_quantlist__44p6_p6_1E, symObjAddr: 0x6D1348, symBinAddr: 0x1006AF968, symSize: 0x0 }
  - { offset: 0x579F50, size: 0x8, addend: 0x0, symName: __ZN4juce18OggVorbisNamespaceL10_44p6_p7_0E, symObjAddr: 0x7550C0, symBinAddr: 0x10075DA58, symSize: 0x0 }
  - { offset: 0x579F6B, size: 0x8, addend: 0x0, symName: __ZN4juce18OggVorbisNamespaceL25_vq_lengthlist__44p6_p7_0E, symObjAddr: 0x6D1360, symBinAddr: 0x1006AF980, symSize: 0x0 }
  - { offset: 0x579F86, size: 0x8, addend: 0x0, symName: __ZN4juce18OggVorbisNamespaceL24_vq_quantlist__44p6_p7_0E, symObjAddr: 0x6D1458, symBinAddr: 0x1006AFA78, symSize: 0x0 }
  - { offset: 0x579FA1, size: 0x8, addend: 0x0, symName: __ZN4juce18OggVorbisNamespaceL10_44p6_p7_1E, symObjAddr: 0x755108, symBinAddr: 0x10075DAA0, symSize: 0x0 }
  - { offset: 0x579FBC, size: 0x8, addend: 0x0, symName: __ZN4juce18OggVorbisNamespaceL25_vq_lengthlist__44p6_p7_1E, symObjAddr: 0x6D1470, symBinAddr: 0x1006AFA90, symSize: 0x0 }
  - { offset: 0x579FD7, size: 0x8, addend: 0x0, symName: __ZN4juce18OggVorbisNamespaceL24_vq_quantlist__44p6_p7_1E, symObjAddr: 0x6D1568, symBinAddr: 0x1006AFB88, symSize: 0x0 }
  - { offset: 0x579FF2, size: 0x8, addend: 0x0, symName: __ZN4juce18OggVorbisNamespaceL10_44p6_p7_2E, symObjAddr: 0x755150, symBinAddr: 0x10075DAE8, symSize: 0x0 }
  - { offset: 0x57A00D, size: 0x8, addend: 0x0, symName: __ZN4juce18OggVorbisNamespaceL25_vq_lengthlist__44p6_p7_2E, symObjAddr: 0x6D1580, symBinAddr: 0x1006AFBA0, symSize: 0x0 }
  - { offset: 0x57A028, size: 0x8, addend: 0x0, symName: __ZN4juce18OggVorbisNamespaceL24_vq_quantlist__44p6_p7_2E, symObjAddr: 0x6D15A0, symBinAddr: 0x1006AFBC0, symSize: 0x0 }
  - { offset: 0x57A043, size: 0x8, addend: 0x0, symName: __ZN4juce18OggVorbisNamespaceL10_44p6_p7_3E, symObjAddr: 0x755198, symBinAddr: 0x10075DB30, symSize: 0x0 }
  - { offset: 0x57A05E, size: 0x8, addend: 0x0, symName: __ZN4juce18OggVorbisNamespaceL25_vq_lengthlist__44p6_p7_3E, symObjAddr: 0x6D1668, symBinAddr: 0x1006AFC88, symSize: 0x0 }
  - { offset: 0x57A079, size: 0x8, addend: 0x0, symName: __ZN4juce18OggVorbisNamespaceL24_vq_quantlist__44p6_p7_3E, symObjAddr: 0x6D1688, symBinAddr: 0x1006AFCA8, symSize: 0x0 }
  - { offset: 0x57A094, size: 0x8, addend: 0x0, symName: __ZN4juce18OggVorbisNamespaceL21_huff_book__44p6_longE, symObjAddr: 0x754D60, symBinAddr: 0x10075D6F8, symSize: 0x0 }
  - { offset: 0x57A0AF, size: 0x8, addend: 0x0, symName: __ZN4juce18OggVorbisNamespaceL27_huff_lengthlist__44p6_longE, symObjAddr: 0x6D1750, symBinAddr: 0x1006AFD70, symSize: 0x0 }
  - { offset: 0x57A0CA, size: 0x8, addend: 0x0, symName: __ZN4juce18OggVorbisNamespaceL20_huff_book__44p6_lfeE, symObjAddr: 0x754DA8, symBinAddr: 0x10075D740, symSize: 0x0 }
  - { offset: 0x57A0E5, size: 0x8, addend: 0x0, symName: __ZN4juce18OggVorbisNamespaceL26_huff_lengthlist__44p6_lfeE, symObjAddr: 0x6D1790, symBinAddr: 0x1006AFDB0, symSize: 0x0 }
  - { offset: 0x57A100, size: 0x8, addend: 0x0, symName: __ZN4juce18OggVorbisNamespaceL15_resbook_44p_l6E, symObjAddr: 0x7552B8, symBinAddr: 0x10075DC50, symSize: 0x0 }
  - { offset: 0x57A11B, size: 0x8, addend: 0x0, symName: __ZN4juce18OggVorbisNamespaceL10_44p6_l0_0E, symObjAddr: 0x7551E0, symBinAddr: 0x10075DB78, symSize: 0x0 }
  - { offset: 0x57A136, size: 0x8, addend: 0x0, symName: __ZN4juce18OggVorbisNamespaceL25_vq_lengthlist__44p6_l0_0E, symObjAddr: 0x6D1794, symBinAddr: 0x1006AFDB4, symSize: 0x0 }
  - { offset: 0x57A151, size: 0x8, addend: 0x0, symName: __ZN4juce18OggVorbisNamespaceL24_vq_quantlist__44p6_l0_0E, symObjAddr: 0x6D1840, symBinAddr: 0x1006AFE60, symSize: 0x0 }
  - { offset: 0x57A16C, size: 0x8, addend: 0x0, symName: __ZN4juce18OggVorbisNamespaceL10_44p6_l0_1E, symObjAddr: 0x755228, symBinAddr: 0x10075DBC0, symSize: 0x0 }
  - { offset: 0x57A187, size: 0x8, addend: 0x0, symName: __ZN4juce18OggVorbisNamespaceL25_vq_lengthlist__44p6_l0_1E, symObjAddr: 0x6D18A8, symBinAddr: 0x1006AFEC8, symSize: 0x0 }
  - { offset: 0x57A1A2, size: 0x8, addend: 0x0, symName: __ZN4juce18OggVorbisNamespaceL24_vq_quantlist__44p6_l0_1E, symObjAddr: 0x6D18C8, symBinAddr: 0x1006AFEE8, symSize: 0x0 }
  - { offset: 0x57A1BD, size: 0x8, addend: 0x0, symName: __ZN4juce18OggVorbisNamespaceL10_44p6_l1_0E, symObjAddr: 0x755270, symBinAddr: 0x10075DC08, symSize: 0x0 }
  - { offset: 0x57A1D8, size: 0x8, addend: 0x0, symName: __ZN4juce18OggVorbisNamespaceL25_vq_lengthlist__44p6_l1_0E, symObjAddr: 0x6D18F0, symBinAddr: 0x1006AFF10, symSize: 0x0 }
  - { offset: 0x57A1F3, size: 0x8, addend: 0x0, symName: __ZN4juce18OggVorbisNamespaceL24_vq_quantlist__44p6_l1_0E, symObjAddr: 0x6D1900, symBinAddr: 0x1006AFF20, symSize: 0x0 }
  - { offset: 0x57A20E, size: 0x8, addend: 0x0, symName: __ZN4juce18OggVorbisNamespaceL12_res_44p51_7E, symObjAddr: 0x750EF0, symBinAddr: 0x100759888, symSize: 0x0 }
  - { offset: 0x57A229, size: 0x8, addend: 0x0, symName: __ZN4juce18OggVorbisNamespaceL22_huff_book__44p7_shortE, symObjAddr: 0x755438, symBinAddr: 0x10075DDD0, symSize: 0x0 }
  - { offset: 0x57A244, size: 0x8, addend: 0x0, symName: __ZN4juce18OggVorbisNamespaceL28_huff_lengthlist__44p7_shortE, symObjAddr: 0x6D1918, symBinAddr: 0x1006AFF38, symSize: 0x0 }
  - { offset: 0x57A25D, size: 0x8, addend: 0x0, symName: __ZN4juce18OggVorbisNamespaceL14_resbook_44p_7E, symObjAddr: 0x755480, symBinAddr: 0x10075DE18, symSize: 0x0 }
  - { offset: 0x57A278, size: 0x8, addend: 0x0, symName: __ZN4juce18OggVorbisNamespaceL10_44p7_p1_0E, symObjAddr: 0x755648, symBinAddr: 0x10075DFE0, symSize: 0x0 }
  - { offset: 0x57A293, size: 0x8, addend: 0x0, symName: __ZN4juce18OggVorbisNamespaceL25_vq_lengthlist__44p7_p1_0E, symObjAddr: 0x6D1958, symBinAddr: 0x1006AFF78, symSize: 0x0 }
  - { offset: 0x57A2AE, size: 0x8, addend: 0x0, symName: __ZN4juce18OggVorbisNamespaceL24_vq_quantlist__44p7_p1_0E, symObjAddr: 0x6D1A50, symBinAddr: 0x1006B0070, symSize: 0x0 }
  - { offset: 0x57A2C9, size: 0x8, addend: 0x0, symName: __ZN4juce18OggVorbisNamespaceL10_44p7_p2_0E, symObjAddr: 0x755690, symBinAddr: 0x10075E028, symSize: 0x0 }
  - { offset: 0x57A2E4, size: 0x8, addend: 0x0, symName: __ZN4juce18OggVorbisNamespaceL25_vq_lengthlist__44p7_p2_0E, symObjAddr: 0x6D1A68, symBinAddr: 0x1006B0088, symSize: 0x0 }
  - { offset: 0x57A2FF, size: 0x8, addend: 0x0, symName: __ZN4juce18OggVorbisNamespaceL24_vq_quantlist__44p7_p2_0E, symObjAddr: 0x6D26A0, symBinAddr: 0x1006B0CC0, symSize: 0x0 }
  - { offset: 0x57A31A, size: 0x8, addend: 0x0, symName: __ZN4juce18OggVorbisNamespaceL10_44p7_p3_0E, symObjAddr: 0x7556D8, symBinAddr: 0x10075E070, symSize: 0x0 }
  - { offset: 0x57A335, size: 0x8, addend: 0x0, symName: __ZN4juce18OggVorbisNamespaceL25_vq_lengthlist__44p7_p3_0E, symObjAddr: 0x6D26C8, symBinAddr: 0x1006B0CE8, symSize: 0x0 }
  - { offset: 0x57A350, size: 0x8, addend: 0x0, symName: __ZN4juce18OggVorbisNamespaceL24_vq_quantlist__44p7_p3_0E, symObjAddr: 0x6D27C0, symBinAddr: 0x1006B0DE0, symSize: 0x0 }
  - { offset: 0x57A36B, size: 0x8, addend: 0x0, symName: __ZN4juce18OggVorbisNamespaceL10_44p7_p3_1E, symObjAddr: 0x755720, symBinAddr: 0x10075E0B8, symSize: 0x0 }
  - { offset: 0x57A386, size: 0x8, addend: 0x0, symName: __ZN4juce18OggVorbisNamespaceL25_vq_lengthlist__44p7_p3_1E, symObjAddr: 0x6D27D8, symBinAddr: 0x1006B0DF8, symSize: 0x0 }
  - { offset: 0x57A3A1, size: 0x8, addend: 0x0, symName: __ZN4juce18OggVorbisNamespaceL24_vq_quantlist__44p7_p3_1E, symObjAddr: 0x6D28D0, symBinAddr: 0x1006B0EF0, symSize: 0x0 }
  - { offset: 0x57A3BC, size: 0x8, addend: 0x0, symName: __ZN4juce18OggVorbisNamespaceL10_44p7_p4_0E, symObjAddr: 0x755768, symBinAddr: 0x10075E100, symSize: 0x0 }
  - { offset: 0x57A3D7, size: 0x8, addend: 0x0, symName: __ZN4juce18OggVorbisNamespaceL25_vq_lengthlist__44p7_p4_0E, symObjAddr: 0x6D28E8, symBinAddr: 0x1006B0F08, symSize: 0x0 }
  - { offset: 0x57A3F2, size: 0x8, addend: 0x0, symName: __ZN4juce18OggVorbisNamespaceL24_vq_quantlist__44p7_p4_0E, symObjAddr: 0x6D29E0, symBinAddr: 0x1006B1000, symSize: 0x0 }
  - { offset: 0x57A40D, size: 0x8, addend: 0x0, symName: __ZN4juce18OggVorbisNamespaceL10_44p7_p4_1E, symObjAddr: 0x7557B0, symBinAddr: 0x10075E148, symSize: 0x0 }
  - { offset: 0x57A428, size: 0x8, addend: 0x0, symName: __ZN4juce18OggVorbisNamespaceL25_vq_lengthlist__44p7_p4_1E, symObjAddr: 0x6D29F8, symBinAddr: 0x1006B1018, symSize: 0x0 }
  - { offset: 0x57A443, size: 0x8, addend: 0x0, symName: __ZN4juce18OggVorbisNamespaceL24_vq_quantlist__44p7_p4_1E, symObjAddr: 0x6D3630, symBinAddr: 0x1006B1C50, symSize: 0x0 }
  - { offset: 0x57A45E, size: 0x8, addend: 0x0, symName: __ZN4juce18OggVorbisNamespaceL10_44p7_p5_0E, symObjAddr: 0x7557F8, symBinAddr: 0x10075E190, symSize: 0x0 }
  - { offset: 0x57A479, size: 0x8, addend: 0x0, symName: __ZN4juce18OggVorbisNamespaceL25_vq_lengthlist__44p7_p5_0E, symObjAddr: 0x6D3658, symBinAddr: 0x1006B1C78, symSize: 0x0 }
  - { offset: 0x57A494, size: 0x8, addend: 0x0, symName: __ZN4juce18OggVorbisNamespaceL24_vq_quantlist__44p7_p5_0E, symObjAddr: 0x6D4290, symBinAddr: 0x1006B28B0, symSize: 0x0 }
  - { offset: 0x57A4AF, size: 0x8, addend: 0x0, symName: __ZN4juce18OggVorbisNamespaceL10_44p7_p5_1E, symObjAddr: 0x755840, symBinAddr: 0x10075E1D8, symSize: 0x0 }
  - { offset: 0x57A4CA, size: 0x8, addend: 0x0, symName: __ZN4juce18OggVorbisNamespaceL25_vq_lengthlist__44p7_p5_1E, symObjAddr: 0x6D42B8, symBinAddr: 0x1006B28D8, symSize: 0x0 }
  - { offset: 0x57A4E5, size: 0x8, addend: 0x0, symName: __ZN4juce18OggVorbisNamespaceL24_vq_quantlist__44p7_p5_1E, symObjAddr: 0x6D42C0, symBinAddr: 0x1006B28E0, symSize: 0x0 }
  - { offset: 0x57A500, size: 0x8, addend: 0x0, symName: __ZN4juce18OggVorbisNamespaceL10_44p7_p6_0E, symObjAddr: 0x755888, symBinAddr: 0x10075E220, symSize: 0x0 }
  - { offset: 0x57A51B, size: 0x8, addend: 0x0, symName: __ZN4juce18OggVorbisNamespaceL25_vq_lengthlist__44p7_p6_0E, symObjAddr: 0x6D42F8, symBinAddr: 0x1006B2918, symSize: 0x0 }
  - { offset: 0x57A536, size: 0x8, addend: 0x0, symName: __ZN4juce18OggVorbisNamespaceL24_vq_quantlist__44p7_p6_0E, symObjAddr: 0x6D43F0, symBinAddr: 0x1006B2A10, symSize: 0x0 }
  - { offset: 0x57A551, size: 0x8, addend: 0x0, symName: __ZN4juce18OggVorbisNamespaceL10_44p7_p6_1E, symObjAddr: 0x7558D0, symBinAddr: 0x10075E268, symSize: 0x0 }
  - { offset: 0x57A56C, size: 0x8, addend: 0x0, symName: __ZN4juce18OggVorbisNamespaceL25_vq_lengthlist__44p7_p6_1E, symObjAddr: 0x6D4408, symBinAddr: 0x1006B2A28, symSize: 0x0 }
  - { offset: 0x57A587, size: 0x8, addend: 0x0, symName: __ZN4juce18OggVorbisNamespaceL24_vq_quantlist__44p7_p6_1E, symObjAddr: 0x6D4500, symBinAddr: 0x1006B2B20, symSize: 0x0 }
  - { offset: 0x57A5A2, size: 0x8, addend: 0x0, symName: __ZN4juce18OggVorbisNamespaceL10_44p7_p7_0E, symObjAddr: 0x755918, symBinAddr: 0x10075E2B0, symSize: 0x0 }
  - { offset: 0x57A5BD, size: 0x8, addend: 0x0, symName: __ZN4juce18OggVorbisNamespaceL25_vq_lengthlist__44p7_p7_0E, symObjAddr: 0x6D4518, symBinAddr: 0x1006B2B38, symSize: 0x0 }
  - { offset: 0x57A5D8, size: 0x8, addend: 0x0, symName: __ZN4juce18OggVorbisNamespaceL24_vq_quantlist__44p7_p7_0E, symObjAddr: 0x6D4610, symBinAddr: 0x1006B2C30, symSize: 0x0 }
  - { offset: 0x57A5F3, size: 0x8, addend: 0x0, symName: __ZN4juce18OggVorbisNamespaceL10_44p7_p7_1E, symObjAddr: 0x755960, symBinAddr: 0x10075E2F8, symSize: 0x0 }
  - { offset: 0x57A60E, size: 0x8, addend: 0x0, symName: __ZN4juce18OggVorbisNamespaceL25_vq_lengthlist__44p7_p7_1E, symObjAddr: 0x6D4628, symBinAddr: 0x1006B2C48, symSize: 0x0 }
  - { offset: 0x57A629, size: 0x8, addend: 0x0, symName: __ZN4juce18OggVorbisNamespaceL24_vq_quantlist__44p7_p7_1E, symObjAddr: 0x6D4720, symBinAddr: 0x1006B2D40, symSize: 0x0 }
  - { offset: 0x57A644, size: 0x8, addend: 0x0, symName: __ZN4juce18OggVorbisNamespaceL10_44p7_p7_2E, symObjAddr: 0x7559A8, symBinAddr: 0x10075E340, symSize: 0x0 }
  - { offset: 0x57A65F, size: 0x8, addend: 0x0, symName: __ZN4juce18OggVorbisNamespaceL25_vq_lengthlist__44p7_p7_2E, symObjAddr: 0x6D4738, symBinAddr: 0x1006B2D58, symSize: 0x0 }
  - { offset: 0x57A67A, size: 0x8, addend: 0x0, symName: __ZN4juce18OggVorbisNamespaceL24_vq_quantlist__44p7_p7_2E, symObjAddr: 0x6D4758, symBinAddr: 0x1006B2D78, symSize: 0x0 }
  - { offset: 0x57A695, size: 0x8, addend: 0x0, symName: __ZN4juce18OggVorbisNamespaceL10_44p7_p7_3E, symObjAddr: 0x7559F0, symBinAddr: 0x10075E388, symSize: 0x0 }
  - { offset: 0x57A6B0, size: 0x8, addend: 0x0, symName: __ZN4juce18OggVorbisNamespaceL25_vq_lengthlist__44p7_p7_3E, symObjAddr: 0x6D4820, symBinAddr: 0x1006B2E40, symSize: 0x0 }
  - { offset: 0x57A6CB, size: 0x8, addend: 0x0, symName: __ZN4juce18OggVorbisNamespaceL24_vq_quantlist__44p7_p7_3E, symObjAddr: 0x6D4840, symBinAddr: 0x1006B2E60, symSize: 0x0 }
  - { offset: 0x57A6E6, size: 0x8, addend: 0x0, symName: __ZN4juce18OggVorbisNamespaceL21_huff_book__44p7_longE, symObjAddr: 0x755600, symBinAddr: 0x10075DF98, symSize: 0x0 }
  - { offset: 0x57A701, size: 0x8, addend: 0x0, symName: __ZN4juce18OggVorbisNamespaceL27_huff_lengthlist__44p7_longE, symObjAddr: 0x6D4908, symBinAddr: 0x1006B2F28, symSize: 0x0 }
  - { offset: 0x57A71C, size: 0x8, addend: 0x0, symName: __ZN4juce18OggVorbisNamespaceL12_res_44p51_8E, symObjAddr: 0x750F98, symBinAddr: 0x100759930, symSize: 0x0 }
  - { offset: 0x57A737, size: 0x8, addend: 0x0, symName: __ZN4juce18OggVorbisNamespaceL22_huff_book__44p8_shortE, symObjAddr: 0x755A38, symBinAddr: 0x10075E3D0, symSize: 0x0 }
  - { offset: 0x57A752, size: 0x8, addend: 0x0, symName: __ZN4juce18OggVorbisNamespaceL28_huff_lengthlist__44p8_shortE, symObjAddr: 0x6D4948, symBinAddr: 0x1006B2F68, symSize: 0x0 }
  - { offset: 0x57A76B, size: 0x8, addend: 0x0, symName: __ZN4juce18OggVorbisNamespaceL14_resbook_44p_8E, symObjAddr: 0x755A80, symBinAddr: 0x10075E418, symSize: 0x0 }
  - { offset: 0x57A786, size: 0x8, addend: 0x0, symName: __ZN4juce18OggVorbisNamespaceL10_44p8_p1_0E, symObjAddr: 0x755C48, symBinAddr: 0x10075E5E0, symSize: 0x0 }
  - { offset: 0x57A7A1, size: 0x8, addend: 0x0, symName: __ZN4juce18OggVorbisNamespaceL25_vq_lengthlist__44p8_p1_0E, symObjAddr: 0x6D4988, symBinAddr: 0x1006B2FA8, symSize: 0x0 }
  - { offset: 0x57A7BC, size: 0x8, addend: 0x0, symName: __ZN4juce18OggVorbisNamespaceL24_vq_quantlist__44p8_p1_0E, symObjAddr: 0x6D4A80, symBinAddr: 0x1006B30A0, symSize: 0x0 }
  - { offset: 0x57A7D7, size: 0x8, addend: 0x0, symName: __ZN4juce18OggVorbisNamespaceL10_44p8_p2_0E, symObjAddr: 0x755C90, symBinAddr: 0x10075E628, symSize: 0x0 }
  - { offset: 0x57A7F2, size: 0x8, addend: 0x0, symName: __ZN4juce18OggVorbisNamespaceL25_vq_lengthlist__44p8_p2_0E, symObjAddr: 0x6D4A98, symBinAddr: 0x1006B30B8, symSize: 0x0 }
  - { offset: 0x57A80D, size: 0x8, addend: 0x0, symName: __ZN4juce18OggVorbisNamespaceL24_vq_quantlist__44p8_p2_0E, symObjAddr: 0x6D56D0, symBinAddr: 0x1006B3CF0, symSize: 0x0 }
  - { offset: 0x57A828, size: 0x8, addend: 0x0, symName: __ZN4juce18OggVorbisNamespaceL10_44p8_p3_0E, symObjAddr: 0x755CD8, symBinAddr: 0x10075E670, symSize: 0x0 }
  - { offset: 0x57A843, size: 0x8, addend: 0x0, symName: __ZN4juce18OggVorbisNamespaceL25_vq_lengthlist__44p8_p3_0E, symObjAddr: 0x6D56F8, symBinAddr: 0x1006B3D18, symSize: 0x0 }
  - { offset: 0x57A85E, size: 0x8, addend: 0x0, symName: __ZN4juce18OggVorbisNamespaceL24_vq_quantlist__44p8_p3_0E, symObjAddr: 0x6D57F0, symBinAddr: 0x1006B3E10, symSize: 0x0 }
  - { offset: 0x57A879, size: 0x8, addend: 0x0, symName: __ZN4juce18OggVorbisNamespaceL10_44p8_p3_1E, symObjAddr: 0x755D20, symBinAddr: 0x10075E6B8, symSize: 0x0 }
  - { offset: 0x57A894, size: 0x8, addend: 0x0, symName: __ZN4juce18OggVorbisNamespaceL25_vq_lengthlist__44p8_p3_1E, symObjAddr: 0x6D5808, symBinAddr: 0x1006B3E28, symSize: 0x0 }
  - { offset: 0x57A8AF, size: 0x8, addend: 0x0, symName: __ZN4juce18OggVorbisNamespaceL24_vq_quantlist__44p8_p3_1E, symObjAddr: 0x6D5900, symBinAddr: 0x1006B3F20, symSize: 0x0 }
  - { offset: 0x57A8CA, size: 0x8, addend: 0x0, symName: __ZN4juce18OggVorbisNamespaceL10_44p8_p4_0E, symObjAddr: 0x755D68, symBinAddr: 0x10075E700, symSize: 0x0 }
  - { offset: 0x57A8E5, size: 0x8, addend: 0x0, symName: __ZN4juce18OggVorbisNamespaceL25_vq_lengthlist__44p8_p4_0E, symObjAddr: 0x6D5918, symBinAddr: 0x1006B3F38, symSize: 0x0 }
  - { offset: 0x57A900, size: 0x8, addend: 0x0, symName: __ZN4juce18OggVorbisNamespaceL24_vq_quantlist__44p8_p4_0E, symObjAddr: 0x6D5A10, symBinAddr: 0x1006B4030, symSize: 0x0 }
  - { offset: 0x57A91B, size: 0x8, addend: 0x0, symName: __ZN4juce18OggVorbisNamespaceL10_44p8_p4_1E, symObjAddr: 0x755DB0, symBinAddr: 0x10075E748, symSize: 0x0 }
  - { offset: 0x57A936, size: 0x8, addend: 0x0, symName: __ZN4juce18OggVorbisNamespaceL25_vq_lengthlist__44p8_p4_1E, symObjAddr: 0x6D5A28, symBinAddr: 0x1006B4048, symSize: 0x0 }
  - { offset: 0x57A951, size: 0x8, addend: 0x0, symName: __ZN4juce18OggVorbisNamespaceL24_vq_quantlist__44p8_p4_1E, symObjAddr: 0x6D6660, symBinAddr: 0x1006B4C80, symSize: 0x0 }
  - { offset: 0x57A96C, size: 0x8, addend: 0x0, symName: __ZN4juce18OggVorbisNamespaceL10_44p8_p5_0E, symObjAddr: 0x755DF8, symBinAddr: 0x10075E790, symSize: 0x0 }
  - { offset: 0x57A987, size: 0x8, addend: 0x0, symName: __ZN4juce18OggVorbisNamespaceL25_vq_lengthlist__44p8_p5_0E, symObjAddr: 0x6D6688, symBinAddr: 0x1006B4CA8, symSize: 0x0 }
  - { offset: 0x57A9A2, size: 0x8, addend: 0x0, symName: __ZN4juce18OggVorbisNamespaceL24_vq_quantlist__44p8_p5_0E, symObjAddr: 0x6D72C0, symBinAddr: 0x1006B58E0, symSize: 0x0 }
  - { offset: 0x57A9BD, size: 0x8, addend: 0x0, symName: __ZN4juce18OggVorbisNamespaceL10_44p8_p5_1E, symObjAddr: 0x755E40, symBinAddr: 0x10075E7D8, symSize: 0x0 }
  - { offset: 0x57A9D8, size: 0x8, addend: 0x0, symName: __ZN4juce18OggVorbisNamespaceL25_vq_lengthlist__44p8_p5_1E, symObjAddr: 0x6D72E8, symBinAddr: 0x1006B5908, symSize: 0x0 }
  - { offset: 0x57A9F3, size: 0x8, addend: 0x0, symName: __ZN4juce18OggVorbisNamespaceL24_vq_quantlist__44p8_p5_1E, symObjAddr: 0x6D72F0, symBinAddr: 0x1006B5910, symSize: 0x0 }
  - { offset: 0x57AA0E, size: 0x8, addend: 0x0, symName: __ZN4juce18OggVorbisNamespaceL10_44p8_p6_0E, symObjAddr: 0x755E88, symBinAddr: 0x10075E820, symSize: 0x0 }
  - { offset: 0x57AA29, size: 0x8, addend: 0x0, symName: __ZN4juce18OggVorbisNamespaceL25_vq_lengthlist__44p8_p6_0E, symObjAddr: 0x6D7328, symBinAddr: 0x1006B5948, symSize: 0x0 }
  - { offset: 0x57AA44, size: 0x8, addend: 0x0, symName: __ZN4juce18OggVorbisNamespaceL24_vq_quantlist__44p8_p6_0E, symObjAddr: 0x6D7420, symBinAddr: 0x1006B5A40, symSize: 0x0 }
  - { offset: 0x57AA5F, size: 0x8, addend: 0x0, symName: __ZN4juce18OggVorbisNamespaceL10_44p8_p6_1E, symObjAddr: 0x755ED0, symBinAddr: 0x10075E868, symSize: 0x0 }
  - { offset: 0x57AA7A, size: 0x8, addend: 0x0, symName: __ZN4juce18OggVorbisNamespaceL25_vq_lengthlist__44p8_p6_1E, symObjAddr: 0x6D7438, symBinAddr: 0x1006B5A58, symSize: 0x0 }
  - { offset: 0x57AA95, size: 0x8, addend: 0x0, symName: __ZN4juce18OggVorbisNamespaceL24_vq_quantlist__44p8_p6_1E, symObjAddr: 0x6D7530, symBinAddr: 0x1006B5B50, symSize: 0x0 }
  - { offset: 0x57AAB0, size: 0x8, addend: 0x0, symName: __ZN4juce18OggVorbisNamespaceL10_44p8_p7_0E, symObjAddr: 0x755F18, symBinAddr: 0x10075E8B0, symSize: 0x0 }
  - { offset: 0x57AACB, size: 0x8, addend: 0x0, symName: __ZN4juce18OggVorbisNamespaceL25_vq_lengthlist__44p8_p7_0E, symObjAddr: 0x6D7548, symBinAddr: 0x1006B5B68, symSize: 0x0 }
  - { offset: 0x57AAE6, size: 0x8, addend: 0x0, symName: __ZN4juce18OggVorbisNamespaceL24_vq_quantlist__44p8_p7_0E, symObjAddr: 0x6D7640, symBinAddr: 0x1006B5C60, symSize: 0x0 }
  - { offset: 0x57AB01, size: 0x8, addend: 0x0, symName: __ZN4juce18OggVorbisNamespaceL10_44p8_p7_1E, symObjAddr: 0x755F60, symBinAddr: 0x10075E8F8, symSize: 0x0 }
  - { offset: 0x57AB1C, size: 0x8, addend: 0x0, symName: __ZN4juce18OggVorbisNamespaceL25_vq_lengthlist__44p8_p7_1E, symObjAddr: 0x6D7658, symBinAddr: 0x1006B5C78, symSize: 0x0 }
  - { offset: 0x57AB37, size: 0x8, addend: 0x0, symName: __ZN4juce18OggVorbisNamespaceL24_vq_quantlist__44p8_p7_1E, symObjAddr: 0x6D8290, symBinAddr: 0x1006B68B0, symSize: 0x0 }
  - { offset: 0x57AB52, size: 0x8, addend: 0x0, symName: __ZN4juce18OggVorbisNamespaceL10_44p8_p7_2E, symObjAddr: 0x755FA8, symBinAddr: 0x10075E940, symSize: 0x0 }
  - { offset: 0x57AB6D, size: 0x8, addend: 0x0, symName: __ZN4juce18OggVorbisNamespaceL25_vq_lengthlist__44p8_p7_2E, symObjAddr: 0x6D82B8, symBinAddr: 0x1006B68D8, symSize: 0x0 }
  - { offset: 0x57AB88, size: 0x8, addend: 0x0, symName: __ZN4juce18OggVorbisNamespaceL24_vq_quantlist__44p8_p7_2E, symObjAddr: 0x6D82D8, symBinAddr: 0x1006B68F8, symSize: 0x0 }
  - { offset: 0x57ABA3, size: 0x8, addend: 0x0, symName: __ZN4juce18OggVorbisNamespaceL10_44p8_p7_3E, symObjAddr: 0x755FF0, symBinAddr: 0x10075E988, symSize: 0x0 }
  - { offset: 0x57ABBE, size: 0x8, addend: 0x0, symName: __ZN4juce18OggVorbisNamespaceL25_vq_lengthlist__44p8_p7_3E, symObjAddr: 0x6D83A0, symBinAddr: 0x1006B69C0, symSize: 0x0 }
  - { offset: 0x57ABD9, size: 0x8, addend: 0x0, symName: __ZN4juce18OggVorbisNamespaceL24_vq_quantlist__44p8_p7_3E, symObjAddr: 0x6D83C0, symBinAddr: 0x1006B69E0, symSize: 0x0 }
  - { offset: 0x57ABF4, size: 0x8, addend: 0x0, symName: __ZN4juce18OggVorbisNamespaceL21_huff_book__44p8_longE, symObjAddr: 0x755C00, symBinAddr: 0x10075E598, symSize: 0x0 }
  - { offset: 0x57AC0F, size: 0x8, addend: 0x0, symName: __ZN4juce18OggVorbisNamespaceL27_huff_lengthlist__44p8_longE, symObjAddr: 0x6D8488, symBinAddr: 0x1006B6AA8, symSize: 0x0 }
  - { offset: 0x57AC2A, size: 0x8, addend: 0x0, symName: __ZN4juce18OggVorbisNamespaceL12_res_44p51_9E, symObjAddr: 0x751040, symBinAddr: 0x1007599D8, symSize: 0x0 }
  - { offset: 0x57AC45, size: 0x8, addend: 0x0, symName: __ZN4juce18OggVorbisNamespaceL22_huff_book__44p9_shortE, symObjAddr: 0x756038, symBinAddr: 0x10075E9D0, symSize: 0x0 }
  - { offset: 0x57AC60, size: 0x8, addend: 0x0, symName: __ZN4juce18OggVorbisNamespaceL28_huff_lengthlist__44p9_shortE, symObjAddr: 0x6D84C8, symBinAddr: 0x1006B6AE8, symSize: 0x0 }
  - { offset: 0x57AC79, size: 0x8, addend: 0x0, symName: __ZN4juce18OggVorbisNamespaceL14_resbook_44p_9E, symObjAddr: 0x756080, symBinAddr: 0x10075EA18, symSize: 0x0 }
  - { offset: 0x57AC94, size: 0x8, addend: 0x0, symName: __ZN4juce18OggVorbisNamespaceL10_44p9_p1_0E, symObjAddr: 0x756248, symBinAddr: 0x10075EBE0, symSize: 0x0 }
  - { offset: 0x57ACAF, size: 0x8, addend: 0x0, symName: __ZN4juce18OggVorbisNamespaceL25_vq_lengthlist__44p9_p1_0E, symObjAddr: 0x6D84D0, symBinAddr: 0x1006B6AF0, symSize: 0x0 }
  - { offset: 0x57ACCA, size: 0x8, addend: 0x0, symName: __ZN4juce18OggVorbisNamespaceL24_vq_quantlist__44p9_p1_0E, symObjAddr: 0x6D85C8, symBinAddr: 0x1006B6BE8, symSize: 0x0 }
  - { offset: 0x57ACE5, size: 0x8, addend: 0x0, symName: __ZN4juce18OggVorbisNamespaceL10_44p9_p2_0E, symObjAddr: 0x756290, symBinAddr: 0x10075EC28, symSize: 0x0 }
  - { offset: 0x57AD00, size: 0x8, addend: 0x0, symName: __ZN4juce18OggVorbisNamespaceL25_vq_lengthlist__44p9_p2_0E, symObjAddr: 0x6D85E0, symBinAddr: 0x1006B6C00, symSize: 0x0 }
  - { offset: 0x57AD1B, size: 0x8, addend: 0x0, symName: __ZN4juce18OggVorbisNamespaceL24_vq_quantlist__44p9_p2_0E, symObjAddr: 0x6D9218, symBinAddr: 0x1006B7838, symSize: 0x0 }
  - { offset: 0x57AD36, size: 0x8, addend: 0x0, symName: __ZN4juce18OggVorbisNamespaceL10_44p9_p3_0E, symObjAddr: 0x7562D8, symBinAddr: 0x10075EC70, symSize: 0x0 }
  - { offset: 0x57AD51, size: 0x8, addend: 0x0, symName: __ZN4juce18OggVorbisNamespaceL25_vq_lengthlist__44p9_p3_0E, symObjAddr: 0x6D9240, symBinAddr: 0x1006B7860, symSize: 0x0 }
  - { offset: 0x57AD6C, size: 0x8, addend: 0x0, symName: __ZN4juce18OggVorbisNamespaceL24_vq_quantlist__44p9_p3_0E, symObjAddr: 0x6D9338, symBinAddr: 0x1006B7958, symSize: 0x0 }
  - { offset: 0x57AD87, size: 0x8, addend: 0x0, symName: __ZN4juce18OggVorbisNamespaceL10_44p9_p3_1E, symObjAddr: 0x756320, symBinAddr: 0x10075ECB8, symSize: 0x0 }
  - { offset: 0x57ADA2, size: 0x8, addend: 0x0, symName: __ZN4juce18OggVorbisNamespaceL25_vq_lengthlist__44p9_p3_1E, symObjAddr: 0x6D9350, symBinAddr: 0x1006B7970, symSize: 0x0 }
  - { offset: 0x57ADBD, size: 0x8, addend: 0x0, symName: __ZN4juce18OggVorbisNamespaceL24_vq_quantlist__44p9_p3_1E, symObjAddr: 0x6D9448, symBinAddr: 0x1006B7A68, symSize: 0x0 }
  - { offset: 0x57ADD8, size: 0x8, addend: 0x0, symName: __ZN4juce18OggVorbisNamespaceL10_44p9_p4_0E, symObjAddr: 0x756368, symBinAddr: 0x10075ED00, symSize: 0x0 }
  - { offset: 0x57ADF3, size: 0x8, addend: 0x0, symName: __ZN4juce18OggVorbisNamespaceL25_vq_lengthlist__44p9_p4_0E, symObjAddr: 0x6D9460, symBinAddr: 0x1006B7A80, symSize: 0x0 }
  - { offset: 0x57AE0E, size: 0x8, addend: 0x0, symName: __ZN4juce18OggVorbisNamespaceL24_vq_quantlist__44p9_p4_0E, symObjAddr: 0x6D9558, symBinAddr: 0x1006B7B78, symSize: 0x0 }
  - { offset: 0x57AE29, size: 0x8, addend: 0x0, symName: __ZN4juce18OggVorbisNamespaceL10_44p9_p4_1E, symObjAddr: 0x7563B0, symBinAddr: 0x10075ED48, symSize: 0x0 }
  - { offset: 0x57AE44, size: 0x8, addend: 0x0, symName: __ZN4juce18OggVorbisNamespaceL25_vq_lengthlist__44p9_p4_1E, symObjAddr: 0x6D9570, symBinAddr: 0x1006B7B90, symSize: 0x0 }
  - { offset: 0x57AE5F, size: 0x8, addend: 0x0, symName: __ZN4juce18OggVorbisNamespaceL24_vq_quantlist__44p9_p4_1E, symObjAddr: 0x6DA1A8, symBinAddr: 0x1006B87C8, symSize: 0x0 }
  - { offset: 0x57AE7A, size: 0x8, addend: 0x0, symName: __ZN4juce18OggVorbisNamespaceL10_44p9_p5_0E, symObjAddr: 0x7563F8, symBinAddr: 0x10075ED90, symSize: 0x0 }
  - { offset: 0x57AE95, size: 0x8, addend: 0x0, symName: __ZN4juce18OggVorbisNamespaceL25_vq_lengthlist__44p9_p5_0E, symObjAddr: 0x6DA1D0, symBinAddr: 0x1006B87F0, symSize: 0x0 }
  - { offset: 0x57AEB0, size: 0x8, addend: 0x0, symName: __ZN4juce18OggVorbisNamespaceL24_vq_quantlist__44p9_p5_0E, symObjAddr: 0x6DAE08, symBinAddr: 0x1006B9428, symSize: 0x0 }
  - { offset: 0x57AECB, size: 0x8, addend: 0x0, symName: __ZN4juce18OggVorbisNamespaceL10_44p9_p5_1E, symObjAddr: 0x756440, symBinAddr: 0x10075EDD8, symSize: 0x0 }
  - { offset: 0x57AEE6, size: 0x8, addend: 0x0, symName: __ZN4juce18OggVorbisNamespaceL25_vq_lengthlist__44p9_p5_1E, symObjAddr: 0x6DAE30, symBinAddr: 0x1006B9450, symSize: 0x0 }
  - { offset: 0x57AF01, size: 0x8, addend: 0x0, symName: __ZN4juce18OggVorbisNamespaceL24_vq_quantlist__44p9_p5_1E, symObjAddr: 0x6DAE38, symBinAddr: 0x1006B9458, symSize: 0x0 }
  - { offset: 0x57AF1C, size: 0x8, addend: 0x0, symName: __ZN4juce18OggVorbisNamespaceL10_44p9_p6_0E, symObjAddr: 0x756488, symBinAddr: 0x10075EE20, symSize: 0x0 }
  - { offset: 0x57AF37, size: 0x8, addend: 0x0, symName: __ZN4juce18OggVorbisNamespaceL25_vq_lengthlist__44p9_p6_0E, symObjAddr: 0x6DAE70, symBinAddr: 0x1006B9490, symSize: 0x0 }
  - { offset: 0x57AF52, size: 0x8, addend: 0x0, symName: __ZN4juce18OggVorbisNamespaceL24_vq_quantlist__44p9_p6_0E, symObjAddr: 0x6DAF68, symBinAddr: 0x1006B9588, symSize: 0x0 }
  - { offset: 0x57AF6D, size: 0x8, addend: 0x0, symName: __ZN4juce18OggVorbisNamespaceL10_44p9_p6_1E, symObjAddr: 0x7564D0, symBinAddr: 0x10075EE68, symSize: 0x0 }
  - { offset: 0x57AF88, size: 0x8, addend: 0x0, symName: __ZN4juce18OggVorbisNamespaceL25_vq_lengthlist__44p9_p6_1E, symObjAddr: 0x6DAF80, symBinAddr: 0x1006B95A0, symSize: 0x0 }
  - { offset: 0x57AFA3, size: 0x8, addend: 0x0, symName: __ZN4juce18OggVorbisNamespaceL24_vq_quantlist__44p9_p6_1E, symObjAddr: 0x6DB078, symBinAddr: 0x1006B9698, symSize: 0x0 }
  - { offset: 0x57AFBE, size: 0x8, addend: 0x0, symName: __ZN4juce18OggVorbisNamespaceL10_44p9_p7_0E, symObjAddr: 0x756518, symBinAddr: 0x10075EEB0, symSize: 0x0 }
  - { offset: 0x57AFD9, size: 0x8, addend: 0x0, symName: __ZN4juce18OggVorbisNamespaceL25_vq_lengthlist__44p9_p7_0E, symObjAddr: 0x6DB090, symBinAddr: 0x1006B96B0, symSize: 0x0 }
  - { offset: 0x57AFF4, size: 0x8, addend: 0x0, symName: __ZN4juce18OggVorbisNamespaceL24_vq_quantlist__44p9_p7_0E, symObjAddr: 0x6DBCC8, symBinAddr: 0x1006BA2E8, symSize: 0x0 }
  - { offset: 0x57B00F, size: 0x8, addend: 0x0, symName: __ZN4juce18OggVorbisNamespaceL10_44p9_p7_1E, symObjAddr: 0x756560, symBinAddr: 0x10075EEF8, symSize: 0x0 }
  - { offset: 0x57B02A, size: 0x8, addend: 0x0, symName: __ZN4juce18OggVorbisNamespaceL25_vq_lengthlist__44p9_p7_1E, symObjAddr: 0x6DBCF0, symBinAddr: 0x1006BA310, symSize: 0x0 }
  - { offset: 0x57B045, size: 0x8, addend: 0x0, symName: __ZN4juce18OggVorbisNamespaceL24_vq_quantlist__44p9_p7_1E, symObjAddr: 0x6DC928, symBinAddr: 0x1006BAF48, symSize: 0x0 }
  - { offset: 0x57B060, size: 0x8, addend: 0x0, symName: __ZN4juce18OggVorbisNamespaceL10_44p9_p7_2E, symObjAddr: 0x7565A8, symBinAddr: 0x10075EF40, symSize: 0x0 }
  - { offset: 0x57B07B, size: 0x8, addend: 0x0, symName: __ZN4juce18OggVorbisNamespaceL25_vq_lengthlist__44p9_p7_2E, symObjAddr: 0x6DC950, symBinAddr: 0x1006BAF70, symSize: 0x0 }
  - { offset: 0x57B096, size: 0x8, addend: 0x0, symName: __ZN4juce18OggVorbisNamespaceL24_vq_quantlist__44p9_p7_2E, symObjAddr: 0x6DC970, symBinAddr: 0x1006BAF90, symSize: 0x0 }
  - { offset: 0x57B0B1, size: 0x8, addend: 0x0, symName: __ZN4juce18OggVorbisNamespaceL10_44p9_p7_3E, symObjAddr: 0x7565F0, symBinAddr: 0x10075EF88, symSize: 0x0 }
  - { offset: 0x57B0CC, size: 0x8, addend: 0x0, symName: __ZN4juce18OggVorbisNamespaceL25_vq_lengthlist__44p9_p7_3E, symObjAddr: 0x6DCA38, symBinAddr: 0x1006BB058, symSize: 0x0 }
  - { offset: 0x57B0E7, size: 0x8, addend: 0x0, symName: __ZN4juce18OggVorbisNamespaceL24_vq_quantlist__44p9_p7_3E, symObjAddr: 0x6DCA58, symBinAddr: 0x1006BB078, symSize: 0x0 }
  - { offset: 0x57B102, size: 0x8, addend: 0x0, symName: __ZN4juce18OggVorbisNamespaceL21_huff_book__44p9_longE, symObjAddr: 0x756200, symBinAddr: 0x10075EB98, symSize: 0x0 }
  - { offset: 0x57B11D, size: 0x8, addend: 0x0, symName: __ZN4juce18OggVorbisNamespaceL27_huff_lengthlist__44p9_longE, symObjAddr: 0x6DCB20, symBinAddr: 0x1006BB140, symSize: 0x0 }
  - { offset: 0x57B136, size: 0x8, addend: 0x0, symName: __ZN4juce18OggVorbisNamespaceL21ve_setup_44_uncoupledE, symObjAddr: 0x7481F0, symBinAddr: 0x100750B88, symSize: 0x0 }
  - { offset: 0x57B14F, size: 0x8, addend: 0x0, symName: __ZN4juce18OggVorbisNamespaceL18rate_mapping_44_unE, symObjAddr: 0x6DCB28, symBinAddr: 0x1006BB148, symSize: 0x0 }
  - { offset: 0x57B16A, size: 0x8, addend: 0x0, symName: __ZN4juce18OggVorbisNamespaceL29_mapres_template_44_uncoupledE, symObjAddr: 0x756638, symBinAddr: 0x10075EFD0, symSize: 0x0 }
  - { offset: 0x57B183, size: 0x8, addend: 0x0, symName: __ZN4juce18OggVorbisNamespaceL14_map_nominal_uE, symObjAddr: 0x6DCB88, symBinAddr: 0x1006BB1A8, symSize: 0x0 }
  - { offset: 0x57B19C, size: 0x8, addend: 0x0, symName: __ZN4juce18OggVorbisNamespaceL11_res_44u_n1E, symObjAddr: 0x7566E8, symBinAddr: 0x10075F080, symSize: 0x0 }
  - { offset: 0x57B1B5, size: 0x8, addend: 0x0, symName: __ZN4juce18OggVorbisNamespaceL18_residue_44_low_unE, symObjAddr: 0x6DE498, symBinAddr: 0x1006BCAB8, symSize: 0x0 }
  - { offset: 0x57B1D0, size: 0x8, addend: 0x0, symName: __ZN4juce18OggVorbisNamespaceL24_huff_book__44un1__shortE, symObjAddr: 0x756BB8, symBinAddr: 0x10075F550, symSize: 0x0 }
  - { offset: 0x57B1EB, size: 0x8, addend: 0x0, symName: __ZN4juce18OggVorbisNamespaceL30_huff_lengthlist__44un1__shortE, symObjAddr: 0x6DEFB8, symBinAddr: 0x1006BD5D8, symSize: 0x0 }
  - { offset: 0x57B204, size: 0x8, addend: 0x0, symName: __ZN4juce18OggVorbisNamespaceL15_resbook_44u_n1E, symObjAddr: 0x756C00, symBinAddr: 0x10075F598, symSize: 0x0 }
  - { offset: 0x57B21F, size: 0x8, addend: 0x0, symName: __ZN4juce18OggVorbisNamespaceL12_44un1__p1_0E, symObjAddr: 0x756DC8, symBinAddr: 0x10075F760, symSize: 0x0 }
  - { offset: 0x57B23A, size: 0x8, addend: 0x0, symName: __ZN4juce18OggVorbisNamespaceL27_vq_lengthlist__44un1__p1_0E, symObjAddr: 0x6DEFF8, symBinAddr: 0x1006BD618, symSize: 0x0 }
  - { offset: 0x57B255, size: 0x8, addend: 0x0, symName: __ZN4juce18OggVorbisNamespaceL26_vq_quantlist__44un1__p1_0E, symObjAddr: 0x6DF050, symBinAddr: 0x1006BD670, symSize: 0x0 }
  - { offset: 0x57B270, size: 0x8, addend: 0x0, symName: __ZN4juce18OggVorbisNamespaceL12_44un1__p2_0E, symObjAddr: 0x756E10, symBinAddr: 0x10075F7A8, symSize: 0x0 }
  - { offset: 0x57B28B, size: 0x8, addend: 0x0, symName: __ZN4juce18OggVorbisNamespaceL27_vq_lengthlist__44un1__p2_0E, symObjAddr: 0x6DF068, symBinAddr: 0x1006BD688, symSize: 0x0 }
  - { offset: 0x57B2A6, size: 0x8, addend: 0x0, symName: __ZN4juce18OggVorbisNamespaceL26_vq_quantlist__44un1__p2_0E, symObjAddr: 0x6DF0C0, symBinAddr: 0x1006BD6E0, symSize: 0x0 }
  - { offset: 0x57B2C1, size: 0x8, addend: 0x0, symName: __ZN4juce18OggVorbisNamespaceL12_44un1__p3_0E, symObjAddr: 0x756E58, symBinAddr: 0x10075F7F0, symSize: 0x0 }
  - { offset: 0x57B2DC, size: 0x8, addend: 0x0, symName: __ZN4juce18OggVorbisNamespaceL27_vq_lengthlist__44un1__p3_0E, symObjAddr: 0x6DF0D8, symBinAddr: 0x1006BD6F8, symSize: 0x0 }
  - { offset: 0x57B2F7, size: 0x8, addend: 0x0, symName: __ZN4juce18OggVorbisNamespaceL26_vq_quantlist__44un1__p3_0E, symObjAddr: 0x6DF350, symBinAddr: 0x1006BD970, symSize: 0x0 }
  - { offset: 0x57B312, size: 0x8, addend: 0x0, symName: __ZN4juce18OggVorbisNamespaceL12_44un1__p4_0E, symObjAddr: 0x756EA0, symBinAddr: 0x10075F838, symSize: 0x0 }
  - { offset: 0x57B32D, size: 0x8, addend: 0x0, symName: __ZN4juce18OggVorbisNamespaceL27_vq_lengthlist__44un1__p4_0E, symObjAddr: 0x6DF378, symBinAddr: 0x1006BD998, symSize: 0x0 }
  - { offset: 0x57B348, size: 0x8, addend: 0x0, symName: __ZN4juce18OggVorbisNamespaceL26_vq_quantlist__44un1__p4_0E, symObjAddr: 0x6DF5F0, symBinAddr: 0x1006BDC10, symSize: 0x0 }
  - { offset: 0x57B363, size: 0x8, addend: 0x0, symName: __ZN4juce18OggVorbisNamespaceL12_44un1__p5_0E, symObjAddr: 0x756EE8, symBinAddr: 0x10075F880, symSize: 0x0 }
  - { offset: 0x57B37E, size: 0x8, addend: 0x0, symName: __ZN4juce18OggVorbisNamespaceL27_vq_lengthlist__44un1__p5_0E, symObjAddr: 0x6DF618, symBinAddr: 0x1006BDC38, symSize: 0x0 }
  - { offset: 0x57B399, size: 0x8, addend: 0x0, symName: __ZN4juce18OggVorbisNamespaceL26_vq_quantlist__44un1__p5_0E, symObjAddr: 0x6DF670, symBinAddr: 0x1006BDC90, symSize: 0x0 }
  - { offset: 0x57B3B4, size: 0x8, addend: 0x0, symName: __ZN4juce18OggVorbisNamespaceL12_44un1__p6_0E, symObjAddr: 0x756F30, symBinAddr: 0x10075F8C8, symSize: 0x0 }
  - { offset: 0x57B3CF, size: 0x8, addend: 0x0, symName: __ZN4juce18OggVorbisNamespaceL27_vq_lengthlist__44un1__p6_0E, symObjAddr: 0x6DF6B8, symBinAddr: 0x1006BDCD8, symSize: 0x0 }
  - { offset: 0x57B3EA, size: 0x8, addend: 0x0, symName: __ZN4juce18OggVorbisNamespaceL26_vq_quantlist__44un1__p6_0E, symObjAddr: 0x6DF768, symBinAddr: 0x1006BDD88, symSize: 0x0 }
  - { offset: 0x57B405, size: 0x8, addend: 0x0, symName: __ZN4juce18OggVorbisNamespaceL12_44un1__p6_1E, symObjAddr: 0x756F78, symBinAddr: 0x10075F910, symSize: 0x0 }
  - { offset: 0x57B420, size: 0x8, addend: 0x0, symName: __ZN4juce18OggVorbisNamespaceL27_vq_lengthlist__44un1__p6_1E, symObjAddr: 0x6DF7D0, symBinAddr: 0x1006BDDF0, symSize: 0x0 }
  - { offset: 0x57B43B, size: 0x8, addend: 0x0, symName: __ZN4juce18OggVorbisNamespaceL26_vq_quantlist__44un1__p6_1E, symObjAddr: 0x6DF7F0, symBinAddr: 0x1006BDE10, symSize: 0x0 }
  - { offset: 0x57B456, size: 0x8, addend: 0x0, symName: __ZN4juce18OggVorbisNamespaceL12_44un1__p7_0E, symObjAddr: 0x756FC0, symBinAddr: 0x10075F958, symSize: 0x0 }
  - { offset: 0x57B471, size: 0x8, addend: 0x0, symName: __ZN4juce18OggVorbisNamespaceL27_vq_lengthlist__44un1__p7_0E, symObjAddr: 0x6DF818, symBinAddr: 0x1006BDE38, symSize: 0x0 }
  - { offset: 0x57B48C, size: 0x8, addend: 0x0, symName: __ZN4juce18OggVorbisNamespaceL26_vq_quantlist__44un1__p7_0E, symObjAddr: 0x6DFA90, symBinAddr: 0x1006BE0B0, symSize: 0x0 }
  - { offset: 0x57B4A7, size: 0x8, addend: 0x0, symName: __ZN4juce18OggVorbisNamespaceL12_44un1__p7_1E, symObjAddr: 0x757008, symBinAddr: 0x10075F9A0, symSize: 0x0 }
  - { offset: 0x57B4C2, size: 0x8, addend: 0x0, symName: __ZN4juce18OggVorbisNamespaceL27_vq_lengthlist__44un1__p7_1E, symObjAddr: 0x6DFAB8, symBinAddr: 0x1006BE0D8, symSize: 0x0 }
  - { offset: 0x57B4DD, size: 0x8, addend: 0x0, symName: __ZN4juce18OggVorbisNamespaceL26_vq_quantlist__44un1__p7_1E, symObjAddr: 0x6DFB68, symBinAddr: 0x1006BE188, symSize: 0x0 }
  - { offset: 0x57B4F8, size: 0x8, addend: 0x0, symName: __ZN4juce18OggVorbisNamespaceL12_44un1__p7_2E, symObjAddr: 0x757050, symBinAddr: 0x10075F9E8, symSize: 0x0 }
  - { offset: 0x57B513, size: 0x8, addend: 0x0, symName: __ZN4juce18OggVorbisNamespaceL27_vq_lengthlist__44un1__p7_2E, symObjAddr: 0x6DFBD0, symBinAddr: 0x1006BE1F0, symSize: 0x0 }
  - { offset: 0x57B52E, size: 0x8, addend: 0x0, symName: __ZN4juce18OggVorbisNamespaceL26_vq_quantlist__44un1__p7_2E, symObjAddr: 0x6DFC80, symBinAddr: 0x1006BE2A0, symSize: 0x0 }
  - { offset: 0x57B549, size: 0x8, addend: 0x0, symName: __ZN4juce18OggVorbisNamespaceL23_huff_book__44un1__longE, symObjAddr: 0x756D80, symBinAddr: 0x10075F718, symSize: 0x0 }
  - { offset: 0x57B564, size: 0x8, addend: 0x0, symName: __ZN4juce18OggVorbisNamespaceL29_huff_lengthlist__44un1__longE, symObjAddr: 0x6DFCE8, symBinAddr: 0x1006BE308, symSize: 0x0 }
  - { offset: 0x57B57D, size: 0x8, addend: 0x0, symName: __ZN4juce18OggVorbisNamespaceL10_res_44u_0E, symObjAddr: 0x756758, symBinAddr: 0x10075F0F0, symSize: 0x0 }
  - { offset: 0x57B598, size: 0x8, addend: 0x0, symName: __ZN4juce18OggVorbisNamespaceL23_huff_book__44u0__shortE, symObjAddr: 0x757098, symBinAddr: 0x10075FA30, symSize: 0x0 }
  - { offset: 0x57B5B3, size: 0x8, addend: 0x0, symName: __ZN4juce18OggVorbisNamespaceL29_huff_lengthlist__44u0__shortE, symObjAddr: 0x6DFD28, symBinAddr: 0x1006BE348, symSize: 0x0 }
  - { offset: 0x57B5CC, size: 0x8, addend: 0x0, symName: __ZN4juce18OggVorbisNamespaceL14_resbook_44u_0E, symObjAddr: 0x7570E0, symBinAddr: 0x10075FA78, symSize: 0x0 }
  - { offset: 0x57B5E7, size: 0x8, addend: 0x0, symName: __ZN4juce18OggVorbisNamespaceL11_44u0__p1_0E, symObjAddr: 0x7572A8, symBinAddr: 0x10075FC40, symSize: 0x0 }
  - { offset: 0x57B602, size: 0x8, addend: 0x0, symName: __ZN4juce18OggVorbisNamespaceL26_vq_lengthlist__44u0__p1_0E, symObjAddr: 0x6DFD68, symBinAddr: 0x1006BE388, symSize: 0x0 }
  - { offset: 0x57B61D, size: 0x8, addend: 0x0, symName: __ZN4juce18OggVorbisNamespaceL25_vq_quantlist__44u0__p1_0E, symObjAddr: 0x6DFDC0, symBinAddr: 0x1006BE3E0, symSize: 0x0 }
  - { offset: 0x57B638, size: 0x8, addend: 0x0, symName: __ZN4juce18OggVorbisNamespaceL11_44u0__p2_0E, symObjAddr: 0x7572F0, symBinAddr: 0x10075FC88, symSize: 0x0 }
  - { offset: 0x57B653, size: 0x8, addend: 0x0, symName: __ZN4juce18OggVorbisNamespaceL26_vq_lengthlist__44u0__p2_0E, symObjAddr: 0x6DFDD8, symBinAddr: 0x1006BE3F8, symSize: 0x0 }
  - { offset: 0x57B66E, size: 0x8, addend: 0x0, symName: __ZN4juce18OggVorbisNamespaceL25_vq_quantlist__44u0__p2_0E, symObjAddr: 0x6DFE30, symBinAddr: 0x1006BE450, symSize: 0x0 }
  - { offset: 0x57B689, size: 0x8, addend: 0x0, symName: __ZN4juce18OggVorbisNamespaceL11_44u0__p3_0E, symObjAddr: 0x757338, symBinAddr: 0x10075FCD0, symSize: 0x0 }
  - { offset: 0x57B6A4, size: 0x8, addend: 0x0, symName: __ZN4juce18OggVorbisNamespaceL26_vq_lengthlist__44u0__p3_0E, symObjAddr: 0x6DFE48, symBinAddr: 0x1006BE468, symSize: 0x0 }
  - { offset: 0x57B6BF, size: 0x8, addend: 0x0, symName: __ZN4juce18OggVorbisNamespaceL25_vq_quantlist__44u0__p3_0E, symObjAddr: 0x6E00C0, symBinAddr: 0x1006BE6E0, symSize: 0x0 }
  - { offset: 0x57B6DA, size: 0x8, addend: 0x0, symName: __ZN4juce18OggVorbisNamespaceL11_44u0__p4_0E, symObjAddr: 0x757380, symBinAddr: 0x10075FD18, symSize: 0x0 }
  - { offset: 0x57B6F5, size: 0x8, addend: 0x0, symName: __ZN4juce18OggVorbisNamespaceL26_vq_lengthlist__44u0__p4_0E, symObjAddr: 0x6E00E8, symBinAddr: 0x1006BE708, symSize: 0x0 }
  - { offset: 0x57B710, size: 0x8, addend: 0x0, symName: __ZN4juce18OggVorbisNamespaceL25_vq_quantlist__44u0__p4_0E, symObjAddr: 0x6E0360, symBinAddr: 0x1006BE980, symSize: 0x0 }
  - { offset: 0x57B72B, size: 0x8, addend: 0x0, symName: __ZN4juce18OggVorbisNamespaceL11_44u0__p5_0E, symObjAddr: 0x7573C8, symBinAddr: 0x10075FD60, symSize: 0x0 }
  - { offset: 0x57B746, size: 0x8, addend: 0x0, symName: __ZN4juce18OggVorbisNamespaceL26_vq_lengthlist__44u0__p5_0E, symObjAddr: 0x6E0388, symBinAddr: 0x1006BE9A8, symSize: 0x0 }
  - { offset: 0x57B761, size: 0x8, addend: 0x0, symName: __ZN4juce18OggVorbisNamespaceL25_vq_quantlist__44u0__p5_0E, symObjAddr: 0x6E03E0, symBinAddr: 0x1006BEA00, symSize: 0x0 }
  - { offset: 0x57B77C, size: 0x8, addend: 0x0, symName: __ZN4juce18OggVorbisNamespaceL11_44u0__p6_0E, symObjAddr: 0x757410, symBinAddr: 0x10075FDA8, symSize: 0x0 }
  - { offset: 0x57B797, size: 0x8, addend: 0x0, symName: __ZN4juce18OggVorbisNamespaceL26_vq_lengthlist__44u0__p6_0E, symObjAddr: 0x6E0428, symBinAddr: 0x1006BEA48, symSize: 0x0 }
  - { offset: 0x57B7B2, size: 0x8, addend: 0x0, symName: __ZN4juce18OggVorbisNamespaceL25_vq_quantlist__44u0__p6_0E, symObjAddr: 0x6E04D8, symBinAddr: 0x1006BEAF8, symSize: 0x0 }
  - { offset: 0x57B7CD, size: 0x8, addend: 0x0, symName: __ZN4juce18OggVorbisNamespaceL11_44u0__p6_1E, symObjAddr: 0x757458, symBinAddr: 0x10075FDF0, symSize: 0x0 }
  - { offset: 0x57B7E8, size: 0x8, addend: 0x0, symName: __ZN4juce18OggVorbisNamespaceL26_vq_lengthlist__44u0__p6_1E, symObjAddr: 0x6E0540, symBinAddr: 0x1006BEB60, symSize: 0x0 }
  - { offset: 0x57B803, size: 0x8, addend: 0x0, symName: __ZN4juce18OggVorbisNamespaceL25_vq_quantlist__44u0__p6_1E, symObjAddr: 0x6E0560, symBinAddr: 0x1006BEB80, symSize: 0x0 }
  - { offset: 0x57B81E, size: 0x8, addend: 0x0, symName: __ZN4juce18OggVorbisNamespaceL11_44u0__p7_0E, symObjAddr: 0x7574A0, symBinAddr: 0x10075FE38, symSize: 0x0 }
  - { offset: 0x57B839, size: 0x8, addend: 0x0, symName: __ZN4juce18OggVorbisNamespaceL26_vq_lengthlist__44u0__p7_0E, symObjAddr: 0x6E0588, symBinAddr: 0x1006BEBA8, symSize: 0x0 }
  - { offset: 0x57B854, size: 0x8, addend: 0x0, symName: __ZN4juce18OggVorbisNamespaceL25_vq_quantlist__44u0__p7_0E, symObjAddr: 0x6E0800, symBinAddr: 0x1006BEE20, symSize: 0x0 }
  - { offset: 0x57B86F, size: 0x8, addend: 0x0, symName: __ZN4juce18OggVorbisNamespaceL11_44u0__p7_1E, symObjAddr: 0x7574E8, symBinAddr: 0x10075FE80, symSize: 0x0 }
  - { offset: 0x57B88A, size: 0x8, addend: 0x0, symName: __ZN4juce18OggVorbisNamespaceL26_vq_lengthlist__44u0__p7_1E, symObjAddr: 0x6E0828, symBinAddr: 0x1006BEE48, symSize: 0x0 }
  - { offset: 0x57B8A5, size: 0x8, addend: 0x0, symName: __ZN4juce18OggVorbisNamespaceL25_vq_quantlist__44u0__p7_1E, symObjAddr: 0x6E08D8, symBinAddr: 0x1006BEEF8, symSize: 0x0 }
  - { offset: 0x57B8C0, size: 0x8, addend: 0x0, symName: __ZN4juce18OggVorbisNamespaceL11_44u0__p7_2E, symObjAddr: 0x757530, symBinAddr: 0x10075FEC8, symSize: 0x0 }
  - { offset: 0x57B8DB, size: 0x8, addend: 0x0, symName: __ZN4juce18OggVorbisNamespaceL26_vq_lengthlist__44u0__p7_2E, symObjAddr: 0x6E0940, symBinAddr: 0x1006BEF60, symSize: 0x0 }
  - { offset: 0x57B8F6, size: 0x8, addend: 0x0, symName: __ZN4juce18OggVorbisNamespaceL25_vq_quantlist__44u0__p7_2E, symObjAddr: 0x6E09F0, symBinAddr: 0x1006BF010, symSize: 0x0 }
  - { offset: 0x57B911, size: 0x8, addend: 0x0, symName: __ZN4juce18OggVorbisNamespaceL22_huff_book__44u0__longE, symObjAddr: 0x757260, symBinAddr: 0x10075FBF8, symSize: 0x0 }
  - { offset: 0x57B92C, size: 0x8, addend: 0x0, symName: __ZN4juce18OggVorbisNamespaceL28_huff_lengthlist__44u0__longE, symObjAddr: 0x6E0A58, symBinAddr: 0x1006BF078, symSize: 0x0 }
  - { offset: 0x57B945, size: 0x8, addend: 0x0, symName: __ZN4juce18OggVorbisNamespaceL10_res_44u_1E, symObjAddr: 0x7567C8, symBinAddr: 0x10075F160, symSize: 0x0 }
  - { offset: 0x57B960, size: 0x8, addend: 0x0, symName: __ZN4juce18OggVorbisNamespaceL23_huff_book__44u1__shortE, symObjAddr: 0x757578, symBinAddr: 0x10075FF10, symSize: 0x0 }
  - { offset: 0x57B97B, size: 0x8, addend: 0x0, symName: __ZN4juce18OggVorbisNamespaceL29_huff_lengthlist__44u1__shortE, symObjAddr: 0x6E0A98, symBinAddr: 0x1006BF0B8, symSize: 0x0 }
  - { offset: 0x57B994, size: 0x8, addend: 0x0, symName: __ZN4juce18OggVorbisNamespaceL14_resbook_44u_1E, symObjAddr: 0x7575C0, symBinAddr: 0x10075FF58, symSize: 0x0 }
  - { offset: 0x57B9AF, size: 0x8, addend: 0x0, symName: __ZN4juce18OggVorbisNamespaceL11_44u1__p1_0E, symObjAddr: 0x757788, symBinAddr: 0x100760120, symSize: 0x0 }
  - { offset: 0x57B9CA, size: 0x8, addend: 0x0, symName: __ZN4juce18OggVorbisNamespaceL26_vq_lengthlist__44u1__p1_0E, symObjAddr: 0x6E0AD8, symBinAddr: 0x1006BF0F8, symSize: 0x0 }
  - { offset: 0x57B9E5, size: 0x8, addend: 0x0, symName: __ZN4juce18OggVorbisNamespaceL25_vq_quantlist__44u1__p1_0E, symObjAddr: 0x6E0B30, symBinAddr: 0x1006BF150, symSize: 0x0 }
  - { offset: 0x57BA00, size: 0x8, addend: 0x0, symName: __ZN4juce18OggVorbisNamespaceL11_44u1__p2_0E, symObjAddr: 0x7577D0, symBinAddr: 0x100760168, symSize: 0x0 }
  - { offset: 0x57BA1B, size: 0x8, addend: 0x0, symName: __ZN4juce18OggVorbisNamespaceL26_vq_lengthlist__44u1__p2_0E, symObjAddr: 0x6E0B48, symBinAddr: 0x1006BF168, symSize: 0x0 }
  - { offset: 0x57BA36, size: 0x8, addend: 0x0, symName: __ZN4juce18OggVorbisNamespaceL25_vq_quantlist__44u1__p2_0E, symObjAddr: 0x6E0BA0, symBinAddr: 0x1006BF1C0, symSize: 0x0 }
  - { offset: 0x57BA51, size: 0x8, addend: 0x0, symName: __ZN4juce18OggVorbisNamespaceL11_44u1__p3_0E, symObjAddr: 0x757818, symBinAddr: 0x1007601B0, symSize: 0x0 }
  - { offset: 0x57BA6C, size: 0x8, addend: 0x0, symName: __ZN4juce18OggVorbisNamespaceL26_vq_lengthlist__44u1__p3_0E, symObjAddr: 0x6E0BB8, symBinAddr: 0x1006BF1D8, symSize: 0x0 }
  - { offset: 0x57BA87, size: 0x8, addend: 0x0, symName: __ZN4juce18OggVorbisNamespaceL25_vq_quantlist__44u1__p3_0E, symObjAddr: 0x6E0E30, symBinAddr: 0x1006BF450, symSize: 0x0 }
  - { offset: 0x57BAA2, size: 0x8, addend: 0x0, symName: __ZN4juce18OggVorbisNamespaceL11_44u1__p4_0E, symObjAddr: 0x757860, symBinAddr: 0x1007601F8, symSize: 0x0 }
  - { offset: 0x57BABD, size: 0x8, addend: 0x0, symName: __ZN4juce18OggVorbisNamespaceL26_vq_lengthlist__44u1__p4_0E, symObjAddr: 0x6E0E58, symBinAddr: 0x1006BF478, symSize: 0x0 }
  - { offset: 0x57BAD8, size: 0x8, addend: 0x0, symName: __ZN4juce18OggVorbisNamespaceL25_vq_quantlist__44u1__p4_0E, symObjAddr: 0x6E10D0, symBinAddr: 0x1006BF6F0, symSize: 0x0 }
  - { offset: 0x57BAF3, size: 0x8, addend: 0x0, symName: __ZN4juce18OggVorbisNamespaceL11_44u1__p5_0E, symObjAddr: 0x7578A8, symBinAddr: 0x100760240, symSize: 0x0 }
  - { offset: 0x57BB0E, size: 0x8, addend: 0x0, symName: __ZN4juce18OggVorbisNamespaceL26_vq_lengthlist__44u1__p5_0E, symObjAddr: 0x6E10F8, symBinAddr: 0x1006BF718, symSize: 0x0 }
  - { offset: 0x57BB29, size: 0x8, addend: 0x0, symName: __ZN4juce18OggVorbisNamespaceL25_vq_quantlist__44u1__p5_0E, symObjAddr: 0x6E1150, symBinAddr: 0x1006BF770, symSize: 0x0 }
  - { offset: 0x57BB44, size: 0x8, addend: 0x0, symName: __ZN4juce18OggVorbisNamespaceL11_44u1__p6_0E, symObjAddr: 0x7578F0, symBinAddr: 0x100760288, symSize: 0x0 }
  - { offset: 0x57BB5F, size: 0x8, addend: 0x0, symName: __ZN4juce18OggVorbisNamespaceL26_vq_lengthlist__44u1__p6_0E, symObjAddr: 0x6E1198, symBinAddr: 0x1006BF7B8, symSize: 0x0 }
  - { offset: 0x57BB7A, size: 0x8, addend: 0x0, symName: __ZN4juce18OggVorbisNamespaceL25_vq_quantlist__44u1__p6_0E, symObjAddr: 0x6E1248, symBinAddr: 0x1006BF868, symSize: 0x0 }
  - { offset: 0x57BB95, size: 0x8, addend: 0x0, symName: __ZN4juce18OggVorbisNamespaceL11_44u1__p6_1E, symObjAddr: 0x757938, symBinAddr: 0x1007602D0, symSize: 0x0 }
  - { offset: 0x57BBB0, size: 0x8, addend: 0x0, symName: __ZN4juce18OggVorbisNamespaceL26_vq_lengthlist__44u1__p6_1E, symObjAddr: 0x6E12B0, symBinAddr: 0x1006BF8D0, symSize: 0x0 }
  - { offset: 0x57BBCB, size: 0x8, addend: 0x0, symName: __ZN4juce18OggVorbisNamespaceL25_vq_quantlist__44u1__p6_1E, symObjAddr: 0x6E12D0, symBinAddr: 0x1006BF8F0, symSize: 0x0 }
  - { offset: 0x57BBE6, size: 0x8, addend: 0x0, symName: __ZN4juce18OggVorbisNamespaceL11_44u1__p7_0E, symObjAddr: 0x757980, symBinAddr: 0x100760318, symSize: 0x0 }
  - { offset: 0x57BC01, size: 0x8, addend: 0x0, symName: __ZN4juce18OggVorbisNamespaceL26_vq_lengthlist__44u1__p7_0E, symObjAddr: 0x6E12F8, symBinAddr: 0x1006BF918, symSize: 0x0 }
  - { offset: 0x57BC1C, size: 0x8, addend: 0x0, symName: __ZN4juce18OggVorbisNamespaceL25_vq_quantlist__44u1__p7_0E, symObjAddr: 0x6E1330, symBinAddr: 0x1006BF950, symSize: 0x0 }
  - { offset: 0x57BC37, size: 0x8, addend: 0x0, symName: __ZN4juce18OggVorbisNamespaceL11_44u1__p7_1E, symObjAddr: 0x7579C8, symBinAddr: 0x100760360, symSize: 0x0 }
  - { offset: 0x57BC52, size: 0x8, addend: 0x0, symName: __ZN4juce18OggVorbisNamespaceL26_vq_lengthlist__44u1__p7_1E, symObjAddr: 0x6E1368, symBinAddr: 0x1006BF988, symSize: 0x0 }
  - { offset: 0x57BC6D, size: 0x8, addend: 0x0, symName: __ZN4juce18OggVorbisNamespaceL25_vq_quantlist__44u1__p7_1E, symObjAddr: 0x6E1418, symBinAddr: 0x1006BFA38, symSize: 0x0 }
  - { offset: 0x57BC88, size: 0x8, addend: 0x0, symName: __ZN4juce18OggVorbisNamespaceL11_44u1__p7_2E, symObjAddr: 0x757A10, symBinAddr: 0x1007603A8, symSize: 0x0 }
  - { offset: 0x57BCA3, size: 0x8, addend: 0x0, symName: __ZN4juce18OggVorbisNamespaceL26_vq_lengthlist__44u1__p7_2E, symObjAddr: 0x6E1480, symBinAddr: 0x1006BFAA0, symSize: 0x0 }
  - { offset: 0x57BCBE, size: 0x8, addend: 0x0, symName: __ZN4juce18OggVorbisNamespaceL25_vq_quantlist__44u1__p7_2E, symObjAddr: 0x6E1530, symBinAddr: 0x1006BFB50, symSize: 0x0 }
  - { offset: 0x57BCD9, size: 0x8, addend: 0x0, symName: __ZN4juce18OggVorbisNamespaceL22_huff_book__44u1__longE, symObjAddr: 0x757740, symBinAddr: 0x1007600D8, symSize: 0x0 }
  - { offset: 0x57BCF4, size: 0x8, addend: 0x0, symName: __ZN4juce18OggVorbisNamespaceL28_huff_lengthlist__44u1__longE, symObjAddr: 0x6E1598, symBinAddr: 0x1006BFBB8, symSize: 0x0 }
  - { offset: 0x57BD0D, size: 0x8, addend: 0x0, symName: __ZN4juce18OggVorbisNamespaceL10_res_44u_2E, symObjAddr: 0x756838, symBinAddr: 0x10075F1D0, symSize: 0x0 }
  - { offset: 0x57BD28, size: 0x8, addend: 0x0, symName: __ZN4juce18OggVorbisNamespaceL23_huff_book__44u2__shortE, symObjAddr: 0x757A58, symBinAddr: 0x1007603F0, symSize: 0x0 }
  - { offset: 0x57BD43, size: 0x8, addend: 0x0, symName: __ZN4juce18OggVorbisNamespaceL29_huff_lengthlist__44u2__shortE, symObjAddr: 0x6E15D8, symBinAddr: 0x1006BFBF8, symSize: 0x0 }
  - { offset: 0x57BD5C, size: 0x8, addend: 0x0, symName: __ZN4juce18OggVorbisNamespaceL14_resbook_44u_2E, symObjAddr: 0x757AA0, symBinAddr: 0x100760438, symSize: 0x0 }
  - { offset: 0x57BD77, size: 0x8, addend: 0x0, symName: __ZN4juce18OggVorbisNamespaceL11_44u2__p1_0E, symObjAddr: 0x757C68, symBinAddr: 0x100760600, symSize: 0x0 }
  - { offset: 0x57BD92, size: 0x8, addend: 0x0, symName: __ZN4juce18OggVorbisNamespaceL26_vq_lengthlist__44u2__p1_0E, symObjAddr: 0x6E1618, symBinAddr: 0x1006BFC38, symSize: 0x0 }
  - { offset: 0x57BDAD, size: 0x8, addend: 0x0, symName: __ZN4juce18OggVorbisNamespaceL25_vq_quantlist__44u2__p1_0E, symObjAddr: 0x6E1670, symBinAddr: 0x1006BFC90, symSize: 0x0 }
  - { offset: 0x57BDC8, size: 0x8, addend: 0x0, symName: __ZN4juce18OggVorbisNamespaceL11_44u2__p2_0E, symObjAddr: 0x757CB0, symBinAddr: 0x100760648, symSize: 0x0 }
  - { offset: 0x57BDE3, size: 0x8, addend: 0x0, symName: __ZN4juce18OggVorbisNamespaceL26_vq_lengthlist__44u2__p2_0E, symObjAddr: 0x6E1688, symBinAddr: 0x1006BFCA8, symSize: 0x0 }
  - { offset: 0x57BDFE, size: 0x8, addend: 0x0, symName: __ZN4juce18OggVorbisNamespaceL25_vq_quantlist__44u2__p2_0E, symObjAddr: 0x6E16E0, symBinAddr: 0x1006BFD00, symSize: 0x0 }
  - { offset: 0x57BE19, size: 0x8, addend: 0x0, symName: __ZN4juce18OggVorbisNamespaceL11_44u2__p3_0E, symObjAddr: 0x757CF8, symBinAddr: 0x100760690, symSize: 0x0 }
  - { offset: 0x57BE34, size: 0x8, addend: 0x0, symName: __ZN4juce18OggVorbisNamespaceL26_vq_lengthlist__44u2__p3_0E, symObjAddr: 0x6E16F8, symBinAddr: 0x1006BFD18, symSize: 0x0 }
  - { offset: 0x57BE4F, size: 0x8, addend: 0x0, symName: __ZN4juce18OggVorbisNamespaceL25_vq_quantlist__44u2__p3_0E, symObjAddr: 0x6E1970, symBinAddr: 0x1006BFF90, symSize: 0x0 }
  - { offset: 0x57BE6A, size: 0x8, addend: 0x0, symName: __ZN4juce18OggVorbisNamespaceL11_44u2__p4_0E, symObjAddr: 0x757D40, symBinAddr: 0x1007606D8, symSize: 0x0 }
  - { offset: 0x57BE85, size: 0x8, addend: 0x0, symName: __ZN4juce18OggVorbisNamespaceL26_vq_lengthlist__44u2__p4_0E, symObjAddr: 0x6E1998, symBinAddr: 0x1006BFFB8, symSize: 0x0 }
  - { offset: 0x57BEA0, size: 0x8, addend: 0x0, symName: __ZN4juce18OggVorbisNamespaceL25_vq_quantlist__44u2__p4_0E, symObjAddr: 0x6E1C10, symBinAddr: 0x1006C0230, symSize: 0x0 }
  - { offset: 0x57BEBB, size: 0x8, addend: 0x0, symName: __ZN4juce18OggVorbisNamespaceL11_44u2__p5_0E, symObjAddr: 0x757D88, symBinAddr: 0x100760720, symSize: 0x0 }
  - { offset: 0x57BED6, size: 0x8, addend: 0x0, symName: __ZN4juce18OggVorbisNamespaceL26_vq_lengthlist__44u2__p5_0E, symObjAddr: 0x6E1C38, symBinAddr: 0x1006C0258, symSize: 0x0 }
  - { offset: 0x57BEF1, size: 0x8, addend: 0x0, symName: __ZN4juce18OggVorbisNamespaceL25_vq_quantlist__44u2__p5_0E, symObjAddr: 0x6E1C90, symBinAddr: 0x1006C02B0, symSize: 0x0 }
  - { offset: 0x57BF0C, size: 0x8, addend: 0x0, symName: __ZN4juce18OggVorbisNamespaceL11_44u2__p6_0E, symObjAddr: 0x757DD0, symBinAddr: 0x100760768, symSize: 0x0 }
  - { offset: 0x57BF27, size: 0x8, addend: 0x0, symName: __ZN4juce18OggVorbisNamespaceL26_vq_lengthlist__44u2__p6_0E, symObjAddr: 0x6E1CD8, symBinAddr: 0x1006C02F8, symSize: 0x0 }
  - { offset: 0x57BF42, size: 0x8, addend: 0x0, symName: __ZN4juce18OggVorbisNamespaceL25_vq_quantlist__44u2__p6_0E, symObjAddr: 0x6E1D88, symBinAddr: 0x1006C03A8, symSize: 0x0 }
  - { offset: 0x57BF5D, size: 0x8, addend: 0x0, symName: __ZN4juce18OggVorbisNamespaceL11_44u2__p6_1E, symObjAddr: 0x757E18, symBinAddr: 0x1007607B0, symSize: 0x0 }
  - { offset: 0x57BF78, size: 0x8, addend: 0x0, symName: __ZN4juce18OggVorbisNamespaceL26_vq_lengthlist__44u2__p6_1E, symObjAddr: 0x6E1DF0, symBinAddr: 0x1006C0410, symSize: 0x0 }
  - { offset: 0x57BF93, size: 0x8, addend: 0x0, symName: __ZN4juce18OggVorbisNamespaceL25_vq_quantlist__44u2__p6_1E, symObjAddr: 0x6E1E10, symBinAddr: 0x1006C0430, symSize: 0x0 }
  - { offset: 0x57BFAE, size: 0x8, addend: 0x0, symName: __ZN4juce18OggVorbisNamespaceL11_44u2__p7_0E, symObjAddr: 0x757E60, symBinAddr: 0x1007607F8, symSize: 0x0 }
  - { offset: 0x57BFC9, size: 0x8, addend: 0x0, symName: __ZN4juce18OggVorbisNamespaceL26_vq_lengthlist__44u2__p7_0E, symObjAddr: 0x6E1E38, symBinAddr: 0x1006C0458, symSize: 0x0 }
  - { offset: 0x57BFE4, size: 0x8, addend: 0x0, symName: __ZN4juce18OggVorbisNamespaceL25_vq_quantlist__44u2__p7_0E, symObjAddr: 0x6E1E90, symBinAddr: 0x1006C04B0, symSize: 0x0 }
  - { offset: 0x57BFFF, size: 0x8, addend: 0x0, symName: __ZN4juce18OggVorbisNamespaceL11_44u2__p7_1E, symObjAddr: 0x757EA8, symBinAddr: 0x100760840, symSize: 0x0 }
  - { offset: 0x57C01A, size: 0x8, addend: 0x0, symName: __ZN4juce18OggVorbisNamespaceL26_vq_lengthlist__44u2__p7_1E, symObjAddr: 0x6E1ED8, symBinAddr: 0x1006C04F8, symSize: 0x0 }
  - { offset: 0x57C035, size: 0x8, addend: 0x0, symName: __ZN4juce18OggVorbisNamespaceL25_vq_quantlist__44u2__p7_1E, symObjAddr: 0x6E1F88, symBinAddr: 0x1006C05A8, symSize: 0x0 }
  - { offset: 0x57C050, size: 0x8, addend: 0x0, symName: __ZN4juce18OggVorbisNamespaceL11_44u2__p7_2E, symObjAddr: 0x757EF0, symBinAddr: 0x100760888, symSize: 0x0 }
  - { offset: 0x57C06B, size: 0x8, addend: 0x0, symName: __ZN4juce18OggVorbisNamespaceL26_vq_lengthlist__44u2__p7_2E, symObjAddr: 0x6E1FF0, symBinAddr: 0x1006C0610, symSize: 0x0 }
  - { offset: 0x57C086, size: 0x8, addend: 0x0, symName: __ZN4juce18OggVorbisNamespaceL25_vq_quantlist__44u2__p7_2E, symObjAddr: 0x6E20A0, symBinAddr: 0x1006C06C0, symSize: 0x0 }
  - { offset: 0x57C0A1, size: 0x8, addend: 0x0, symName: __ZN4juce18OggVorbisNamespaceL22_huff_book__44u2__longE, symObjAddr: 0x757C20, symBinAddr: 0x1007605B8, symSize: 0x0 }
  - { offset: 0x57C0BC, size: 0x8, addend: 0x0, symName: __ZN4juce18OggVorbisNamespaceL28_huff_lengthlist__44u2__longE, symObjAddr: 0x6E2108, symBinAddr: 0x1006C0728, symSize: 0x0 }
  - { offset: 0x57C0D5, size: 0x8, addend: 0x0, symName: __ZN4juce18OggVorbisNamespaceL10_res_44u_3E, symObjAddr: 0x7568A8, symBinAddr: 0x10075F240, symSize: 0x0 }
  - { offset: 0x57C0F0, size: 0x8, addend: 0x0, symName: __ZN4juce18OggVorbisNamespaceL23_huff_book__44u3__shortE, symObjAddr: 0x757F38, symBinAddr: 0x1007608D0, symSize: 0x0 }
  - { offset: 0x57C10B, size: 0x8, addend: 0x0, symName: __ZN4juce18OggVorbisNamespaceL29_huff_lengthlist__44u3__shortE, symObjAddr: 0x6E2148, symBinAddr: 0x1006C0768, symSize: 0x0 }
  - { offset: 0x57C124, size: 0x8, addend: 0x0, symName: __ZN4juce18OggVorbisNamespaceL14_resbook_44u_3E, symObjAddr: 0x757F80, symBinAddr: 0x100760918, symSize: 0x0 }
  - { offset: 0x57C13F, size: 0x8, addend: 0x0, symName: __ZN4juce18OggVorbisNamespaceL11_44u3__p1_0E, symObjAddr: 0x758148, symBinAddr: 0x100760AE0, symSize: 0x0 }
  - { offset: 0x57C15A, size: 0x8, addend: 0x0, symName: __ZN4juce18OggVorbisNamespaceL26_vq_lengthlist__44u3__p1_0E, symObjAddr: 0x6E2188, symBinAddr: 0x1006C07A8, symSize: 0x0 }
  - { offset: 0x57C175, size: 0x8, addend: 0x0, symName: __ZN4juce18OggVorbisNamespaceL25_vq_quantlist__44u3__p1_0E, symObjAddr: 0x6E21E0, symBinAddr: 0x1006C0800, symSize: 0x0 }
  - { offset: 0x57C190, size: 0x8, addend: 0x0, symName: __ZN4juce18OggVorbisNamespaceL11_44u3__p2_0E, symObjAddr: 0x758190, symBinAddr: 0x100760B28, symSize: 0x0 }
  - { offset: 0x57C1AB, size: 0x8, addend: 0x0, symName: __ZN4juce18OggVorbisNamespaceL26_vq_lengthlist__44u3__p2_0E, symObjAddr: 0x6E21F8, symBinAddr: 0x1006C0818, symSize: 0x0 }
  - { offset: 0x57C1C6, size: 0x8, addend: 0x0, symName: __ZN4juce18OggVorbisNamespaceL25_vq_quantlist__44u3__p2_0E, symObjAddr: 0x6E2250, symBinAddr: 0x1006C0870, symSize: 0x0 }
  - { offset: 0x57C1E1, size: 0x8, addend: 0x0, symName: __ZN4juce18OggVorbisNamespaceL11_44u3__p3_0E, symObjAddr: 0x7581D8, symBinAddr: 0x100760B70, symSize: 0x0 }
  - { offset: 0x57C1FC, size: 0x8, addend: 0x0, symName: __ZN4juce18OggVorbisNamespaceL26_vq_lengthlist__44u3__p3_0E, symObjAddr: 0x6E2268, symBinAddr: 0x1006C0888, symSize: 0x0 }
  - { offset: 0x57C217, size: 0x8, addend: 0x0, symName: __ZN4juce18OggVorbisNamespaceL25_vq_quantlist__44u3__p3_0E, symObjAddr: 0x6E24E0, symBinAddr: 0x1006C0B00, symSize: 0x0 }
  - { offset: 0x57C232, size: 0x8, addend: 0x0, symName: __ZN4juce18OggVorbisNamespaceL11_44u3__p4_0E, symObjAddr: 0x758220, symBinAddr: 0x100760BB8, symSize: 0x0 }
  - { offset: 0x57C24D, size: 0x8, addend: 0x0, symName: __ZN4juce18OggVorbisNamespaceL26_vq_lengthlist__44u3__p4_0E, symObjAddr: 0x6E2508, symBinAddr: 0x1006C0B28, symSize: 0x0 }
  - { offset: 0x57C268, size: 0x8, addend: 0x0, symName: __ZN4juce18OggVorbisNamespaceL25_vq_quantlist__44u3__p4_0E, symObjAddr: 0x6E2780, symBinAddr: 0x1006C0DA0, symSize: 0x0 }
  - { offset: 0x57C283, size: 0x8, addend: 0x0, symName: __ZN4juce18OggVorbisNamespaceL11_44u3__p5_0E, symObjAddr: 0x758268, symBinAddr: 0x100760C00, symSize: 0x0 }
  - { offset: 0x57C29E, size: 0x8, addend: 0x0, symName: __ZN4juce18OggVorbisNamespaceL26_vq_lengthlist__44u3__p5_0E, symObjAddr: 0x6E27A8, symBinAddr: 0x1006C0DC8, symSize: 0x0 }
  - { offset: 0x57C2B9, size: 0x8, addend: 0x0, symName: __ZN4juce18OggVorbisNamespaceL25_vq_quantlist__44u3__p5_0E, symObjAddr: 0x6E2800, symBinAddr: 0x1006C0E20, symSize: 0x0 }
  - { offset: 0x57C2D4, size: 0x8, addend: 0x0, symName: __ZN4juce18OggVorbisNamespaceL11_44u3__p6_0E, symObjAddr: 0x7582B0, symBinAddr: 0x100760C48, symSize: 0x0 }
  - { offset: 0x57C2EF, size: 0x8, addend: 0x0, symName: __ZN4juce18OggVorbisNamespaceL26_vq_lengthlist__44u3__p6_0E, symObjAddr: 0x6E2848, symBinAddr: 0x1006C0E68, symSize: 0x0 }
  - { offset: 0x57C30A, size: 0x8, addend: 0x0, symName: __ZN4juce18OggVorbisNamespaceL25_vq_quantlist__44u3__p6_0E, symObjAddr: 0x6E28F8, symBinAddr: 0x1006C0F18, symSize: 0x0 }
  - { offset: 0x57C325, size: 0x8, addend: 0x0, symName: __ZN4juce18OggVorbisNamespaceL11_44u3__p6_1E, symObjAddr: 0x7582F8, symBinAddr: 0x100760C90, symSize: 0x0 }
  - { offset: 0x57C340, size: 0x8, addend: 0x0, symName: __ZN4juce18OggVorbisNamespaceL26_vq_lengthlist__44u3__p6_1E, symObjAddr: 0x6E2960, symBinAddr: 0x1006C0F80, symSize: 0x0 }
  - { offset: 0x57C35B, size: 0x8, addend: 0x0, symName: __ZN4juce18OggVorbisNamespaceL25_vq_quantlist__44u3__p6_1E, symObjAddr: 0x6E2980, symBinAddr: 0x1006C0FA0, symSize: 0x0 }
  - { offset: 0x57C376, size: 0x8, addend: 0x0, symName: __ZN4juce18OggVorbisNamespaceL11_44u3__p7_0E, symObjAddr: 0x758340, symBinAddr: 0x100760CD8, symSize: 0x0 }
  - { offset: 0x57C391, size: 0x8, addend: 0x0, symName: __ZN4juce18OggVorbisNamespaceL26_vq_lengthlist__44u3__p7_0E, symObjAddr: 0x6E29A8, symBinAddr: 0x1006C0FC8, symSize: 0x0 }
  - { offset: 0x57C3AC, size: 0x8, addend: 0x0, symName: __ZN4juce18OggVorbisNamespaceL25_vq_quantlist__44u3__p7_0E, symObjAddr: 0x6E2A00, symBinAddr: 0x1006C1020, symSize: 0x0 }
  - { offset: 0x57C3C7, size: 0x8, addend: 0x0, symName: __ZN4juce18OggVorbisNamespaceL11_44u3__p7_1E, symObjAddr: 0x758388, symBinAddr: 0x100760D20, symSize: 0x0 }
  - { offset: 0x57C3E2, size: 0x8, addend: 0x0, symName: __ZN4juce18OggVorbisNamespaceL26_vq_lengthlist__44u3__p7_1E, symObjAddr: 0x6E2A48, symBinAddr: 0x1006C1068, symSize: 0x0 }
  - { offset: 0x57C3FD, size: 0x8, addend: 0x0, symName: __ZN4juce18OggVorbisNamespaceL25_vq_quantlist__44u3__p7_1E, symObjAddr: 0x6E2B30, symBinAddr: 0x1006C1150, symSize: 0x0 }
  - { offset: 0x57C418, size: 0x8, addend: 0x0, symName: __ZN4juce18OggVorbisNamespaceL11_44u3__p7_2E, symObjAddr: 0x7583D0, symBinAddr: 0x100760D68, symSize: 0x0 }
  - { offset: 0x57C433, size: 0x8, addend: 0x0, symName: __ZN4juce18OggVorbisNamespaceL26_vq_lengthlist__44u3__p7_2E, symObjAddr: 0x6E2BA8, symBinAddr: 0x1006C11C8, symSize: 0x0 }
  - { offset: 0x57C44E, size: 0x8, addend: 0x0, symName: __ZN4juce18OggVorbisNamespaceL25_vq_quantlist__44u3__p7_2E, symObjAddr: 0x6E2CD0, symBinAddr: 0x1006C12F0, symSize: 0x0 }
  - { offset: 0x57C469, size: 0x8, addend: 0x0, symName: __ZN4juce18OggVorbisNamespaceL22_huff_book__44u3__longE, symObjAddr: 0x758100, symBinAddr: 0x100760A98, symSize: 0x0 }
  - { offset: 0x57C484, size: 0x8, addend: 0x0, symName: __ZN4juce18OggVorbisNamespaceL28_huff_lengthlist__44u3__longE, symObjAddr: 0x6E2D58, symBinAddr: 0x1006C1378, symSize: 0x0 }
  - { offset: 0x57C49D, size: 0x8, addend: 0x0, symName: __ZN4juce18OggVorbisNamespaceL10_res_44u_4E, symObjAddr: 0x756918, symBinAddr: 0x10075F2B0, symSize: 0x0 }
  - { offset: 0x57C4B8, size: 0x8, addend: 0x0, symName: __ZN4juce18OggVorbisNamespaceL23_huff_book__44u4__shortE, symObjAddr: 0x758418, symBinAddr: 0x100760DB0, symSize: 0x0 }
  - { offset: 0x57C4D3, size: 0x8, addend: 0x0, symName: __ZN4juce18OggVorbisNamespaceL29_huff_lengthlist__44u4__shortE, symObjAddr: 0x6E2D98, symBinAddr: 0x1006C13B8, symSize: 0x0 }
  - { offset: 0x57C4EC, size: 0x8, addend: 0x0, symName: __ZN4juce18OggVorbisNamespaceL14_resbook_44u_4E, symObjAddr: 0x758460, symBinAddr: 0x100760DF8, symSize: 0x0 }
  - { offset: 0x57C507, size: 0x8, addend: 0x0, symName: __ZN4juce18OggVorbisNamespaceL11_44u4__p1_0E, symObjAddr: 0x758628, symBinAddr: 0x100760FC0, symSize: 0x0 }
  - { offset: 0x57C522, size: 0x8, addend: 0x0, symName: __ZN4juce18OggVorbisNamespaceL26_vq_lengthlist__44u4__p1_0E, symObjAddr: 0x6E2DD8, symBinAddr: 0x1006C13F8, symSize: 0x0 }
  - { offset: 0x57C53D, size: 0x8, addend: 0x0, symName: __ZN4juce18OggVorbisNamespaceL25_vq_quantlist__44u4__p1_0E, symObjAddr: 0x6E2E30, symBinAddr: 0x1006C1450, symSize: 0x0 }
  - { offset: 0x57C558, size: 0x8, addend: 0x0, symName: __ZN4juce18OggVorbisNamespaceL11_44u4__p2_0E, symObjAddr: 0x758670, symBinAddr: 0x100761008, symSize: 0x0 }
  - { offset: 0x57C573, size: 0x8, addend: 0x0, symName: __ZN4juce18OggVorbisNamespaceL26_vq_lengthlist__44u4__p2_0E, symObjAddr: 0x6E2E48, symBinAddr: 0x1006C1468, symSize: 0x0 }
  - { offset: 0x57C58E, size: 0x8, addend: 0x0, symName: __ZN4juce18OggVorbisNamespaceL25_vq_quantlist__44u4__p2_0E, symObjAddr: 0x6E2EA0, symBinAddr: 0x1006C14C0, symSize: 0x0 }
  - { offset: 0x57C5A9, size: 0x8, addend: 0x0, symName: __ZN4juce18OggVorbisNamespaceL11_44u4__p3_0E, symObjAddr: 0x7586B8, symBinAddr: 0x100761050, symSize: 0x0 }
  - { offset: 0x57C5C4, size: 0x8, addend: 0x0, symName: __ZN4juce18OggVorbisNamespaceL26_vq_lengthlist__44u4__p3_0E, symObjAddr: 0x6E2EB8, symBinAddr: 0x1006C14D8, symSize: 0x0 }
  - { offset: 0x57C5DF, size: 0x8, addend: 0x0, symName: __ZN4juce18OggVorbisNamespaceL25_vq_quantlist__44u4__p3_0E, symObjAddr: 0x6E3130, symBinAddr: 0x1006C1750, symSize: 0x0 }
  - { offset: 0x57C5FA, size: 0x8, addend: 0x0, symName: __ZN4juce18OggVorbisNamespaceL11_44u4__p4_0E, symObjAddr: 0x758700, symBinAddr: 0x100761098, symSize: 0x0 }
  - { offset: 0x57C615, size: 0x8, addend: 0x0, symName: __ZN4juce18OggVorbisNamespaceL26_vq_lengthlist__44u4__p4_0E, symObjAddr: 0x6E3158, symBinAddr: 0x1006C1778, symSize: 0x0 }
  - { offset: 0x57C630, size: 0x8, addend: 0x0, symName: __ZN4juce18OggVorbisNamespaceL25_vq_quantlist__44u4__p4_0E, symObjAddr: 0x6E33D0, symBinAddr: 0x1006C19F0, symSize: 0x0 }
  - { offset: 0x57C64B, size: 0x8, addend: 0x0, symName: __ZN4juce18OggVorbisNamespaceL11_44u4__p5_0E, symObjAddr: 0x758748, symBinAddr: 0x1007610E0, symSize: 0x0 }
  - { offset: 0x57C666, size: 0x8, addend: 0x0, symName: __ZN4juce18OggVorbisNamespaceL26_vq_lengthlist__44u4__p5_0E, symObjAddr: 0x6E33F8, symBinAddr: 0x1006C1A18, symSize: 0x0 }
  - { offset: 0x57C681, size: 0x8, addend: 0x0, symName: __ZN4juce18OggVorbisNamespaceL25_vq_quantlist__44u4__p5_0E, symObjAddr: 0x6E3450, symBinAddr: 0x1006C1A70, symSize: 0x0 }
  - { offset: 0x57C69C, size: 0x8, addend: 0x0, symName: __ZN4juce18OggVorbisNamespaceL11_44u4__p6_0E, symObjAddr: 0x758790, symBinAddr: 0x100761128, symSize: 0x0 }
  - { offset: 0x57C6B7, size: 0x8, addend: 0x0, symName: __ZN4juce18OggVorbisNamespaceL26_vq_lengthlist__44u4__p6_0E, symObjAddr: 0x6E3498, symBinAddr: 0x1006C1AB8, symSize: 0x0 }
  - { offset: 0x57C6D2, size: 0x8, addend: 0x0, symName: __ZN4juce18OggVorbisNamespaceL25_vq_quantlist__44u4__p6_0E, symObjAddr: 0x6E3548, symBinAddr: 0x1006C1B68, symSize: 0x0 }
  - { offset: 0x57C6ED, size: 0x8, addend: 0x0, symName: __ZN4juce18OggVorbisNamespaceL11_44u4__p6_1E, symObjAddr: 0x7587D8, symBinAddr: 0x100761170, symSize: 0x0 }
  - { offset: 0x57C708, size: 0x8, addend: 0x0, symName: __ZN4juce18OggVorbisNamespaceL26_vq_lengthlist__44u4__p6_1E, symObjAddr: 0x6E35B0, symBinAddr: 0x1006C1BD0, symSize: 0x0 }
  - { offset: 0x57C723, size: 0x8, addend: 0x0, symName: __ZN4juce18OggVorbisNamespaceL25_vq_quantlist__44u4__p6_1E, symObjAddr: 0x6E35D0, symBinAddr: 0x1006C1BF0, symSize: 0x0 }
  - { offset: 0x57C73E, size: 0x8, addend: 0x0, symName: __ZN4juce18OggVorbisNamespaceL11_44u4__p7_0E, symObjAddr: 0x758820, symBinAddr: 0x1007611B8, symSize: 0x0 }
  - { offset: 0x57C759, size: 0x8, addend: 0x0, symName: __ZN4juce18OggVorbisNamespaceL26_vq_lengthlist__44u4__p7_0E, symObjAddr: 0x6E35F8, symBinAddr: 0x1006C1C18, symSize: 0x0 }
  - { offset: 0x57C774, size: 0x8, addend: 0x0, symName: __ZN4juce18OggVorbisNamespaceL25_vq_quantlist__44u4__p7_0E, symObjAddr: 0x6E36A8, symBinAddr: 0x1006C1CC8, symSize: 0x0 }
  - { offset: 0x57C78F, size: 0x8, addend: 0x0, symName: __ZN4juce18OggVorbisNamespaceL11_44u4__p7_1E, symObjAddr: 0x758868, symBinAddr: 0x100761200, symSize: 0x0 }
  - { offset: 0x57C7AA, size: 0x8, addend: 0x0, symName: __ZN4juce18OggVorbisNamespaceL26_vq_lengthlist__44u4__p7_1E, symObjAddr: 0x6E3710, symBinAddr: 0x1006C1D30, symSize: 0x0 }
  - { offset: 0x57C7C5, size: 0x8, addend: 0x0, symName: __ZN4juce18OggVorbisNamespaceL25_vq_quantlist__44u4__p7_1E, symObjAddr: 0x6E37F8, symBinAddr: 0x1006C1E18, symSize: 0x0 }
  - { offset: 0x57C7E0, size: 0x8, addend: 0x0, symName: __ZN4juce18OggVorbisNamespaceL11_44u4__p7_2E, symObjAddr: 0x7588B0, symBinAddr: 0x100761248, symSize: 0x0 }
  - { offset: 0x57C7FB, size: 0x8, addend: 0x0, symName: __ZN4juce18OggVorbisNamespaceL26_vq_lengthlist__44u4__p7_2E, symObjAddr: 0x6E3870, symBinAddr: 0x1006C1E90, symSize: 0x0 }
  - { offset: 0x57C816, size: 0x8, addend: 0x0, symName: __ZN4juce18OggVorbisNamespaceL25_vq_quantlist__44u4__p7_2E, symObjAddr: 0x6E3998, symBinAddr: 0x1006C1FB8, symSize: 0x0 }
  - { offset: 0x57C831, size: 0x8, addend: 0x0, symName: __ZN4juce18OggVorbisNamespaceL22_huff_book__44u4__longE, symObjAddr: 0x7585E0, symBinAddr: 0x100760F78, symSize: 0x0 }
  - { offset: 0x57C84C, size: 0x8, addend: 0x0, symName: __ZN4juce18OggVorbisNamespaceL28_huff_lengthlist__44u4__longE, symObjAddr: 0x6E3A20, symBinAddr: 0x1006C2040, symSize: 0x0 }
  - { offset: 0x57C867, size: 0x8, addend: 0x0, symName: __ZN4juce18OggVorbisNamespaceL10_res_44u_5E, symObjAddr: 0x756988, symBinAddr: 0x10075F320, symSize: 0x0 }
  - { offset: 0x57C880, size: 0x8, addend: 0x0, symName: __ZN4juce18OggVorbisNamespaceL18_residue_44_mid_unE, symObjAddr: 0x6E3A60, symBinAddr: 0x1006C2080, symSize: 0x0 }
  - { offset: 0x57C89B, size: 0x8, addend: 0x0, symName: __ZN4juce18OggVorbisNamespaceL23_huff_book__44u5__shortE, symObjAddr: 0x7588F8, symBinAddr: 0x100761290, symSize: 0x0 }
  - { offset: 0x57C8B6, size: 0x8, addend: 0x0, symName: __ZN4juce18OggVorbisNamespaceL29_huff_lengthlist__44u5__shortE, symObjAddr: 0x6E4580, symBinAddr: 0x1006C2BA0, symSize: 0x0 }
  - { offset: 0x57C8CF, size: 0x8, addend: 0x0, symName: __ZN4juce18OggVorbisNamespaceL14_resbook_44u_5E, symObjAddr: 0x758940, symBinAddr: 0x1007612D8, symSize: 0x0 }
  - { offset: 0x57C8EA, size: 0x8, addend: 0x0, symName: __ZN4juce18OggVorbisNamespaceL11_44u5__p1_0E, symObjAddr: 0x758B08, symBinAddr: 0x1007614A0, symSize: 0x0 }
  - { offset: 0x57C905, size: 0x8, addend: 0x0, symName: __ZN4juce18OggVorbisNamespaceL26_vq_lengthlist__44u5__p1_0E, symObjAddr: 0x6E45E4, symBinAddr: 0x1006C2C04, symSize: 0x0 }
  - { offset: 0x57C920, size: 0x8, addend: 0x0, symName: __ZN4juce18OggVorbisNamespaceL25_vq_quantlist__44u5__p1_0E, symObjAddr: 0x6E4638, symBinAddr: 0x1006C2C58, symSize: 0x0 }
  - { offset: 0x57C93B, size: 0x8, addend: 0x0, symName: __ZN4juce18OggVorbisNamespaceL11_44u5__p2_0E, symObjAddr: 0x758B50, symBinAddr: 0x1007614E8, symSize: 0x0 }
  - { offset: 0x57C956, size: 0x8, addend: 0x0, symName: __ZN4juce18OggVorbisNamespaceL26_vq_lengthlist__44u5__p2_0E, symObjAddr: 0x6E4650, symBinAddr: 0x1006C2C70, symSize: 0x0 }
  - { offset: 0x57C971, size: 0x8, addend: 0x0, symName: __ZN4juce18OggVorbisNamespaceL25_vq_quantlist__44u5__p2_0E, symObjAddr: 0x6E46A8, symBinAddr: 0x1006C2CC8, symSize: 0x0 }
  - { offset: 0x57C98C, size: 0x8, addend: 0x0, symName: __ZN4juce18OggVorbisNamespaceL11_44u5__p3_0E, symObjAddr: 0x758B98, symBinAddr: 0x100761530, symSize: 0x0 }
  - { offset: 0x57C9A7, size: 0x8, addend: 0x0, symName: __ZN4juce18OggVorbisNamespaceL26_vq_lengthlist__44u5__p3_0E, symObjAddr: 0x6E46C0, symBinAddr: 0x1006C2CE0, symSize: 0x0 }
  - { offset: 0x57C9C2, size: 0x8, addend: 0x0, symName: __ZN4juce18OggVorbisNamespaceL25_vq_quantlist__44u5__p3_0E, symObjAddr: 0x6E4938, symBinAddr: 0x1006C2F58, symSize: 0x0 }
  - { offset: 0x57C9DD, size: 0x8, addend: 0x0, symName: __ZN4juce18OggVorbisNamespaceL11_44u5__p4_0E, symObjAddr: 0x758BE0, symBinAddr: 0x100761578, symSize: 0x0 }
  - { offset: 0x57C9F8, size: 0x8, addend: 0x0, symName: __ZN4juce18OggVorbisNamespaceL26_vq_lengthlist__44u5__p4_0E, symObjAddr: 0x6E4960, symBinAddr: 0x1006C2F80, symSize: 0x0 }
  - { offset: 0x57CA13, size: 0x8, addend: 0x0, symName: __ZN4juce18OggVorbisNamespaceL25_vq_quantlist__44u5__p4_0E, symObjAddr: 0x6E4BD8, symBinAddr: 0x1006C31F8, symSize: 0x0 }
  - { offset: 0x57CA2E, size: 0x8, addend: 0x0, symName: __ZN4juce18OggVorbisNamespaceL11_44u5__p5_0E, symObjAddr: 0x758C28, symBinAddr: 0x1007615C0, symSize: 0x0 }
  - { offset: 0x57CA49, size: 0x8, addend: 0x0, symName: __ZN4juce18OggVorbisNamespaceL26_vq_lengthlist__44u5__p5_0E, symObjAddr: 0x6E4C00, symBinAddr: 0x1006C3220, symSize: 0x0 }
  - { offset: 0x57CA64, size: 0x8, addend: 0x0, symName: __ZN4juce18OggVorbisNamespaceL25_vq_quantlist__44u5__p5_0E, symObjAddr: 0x6E4C58, symBinAddr: 0x1006C3278, symSize: 0x0 }
  - { offset: 0x57CA7F, size: 0x8, addend: 0x0, symName: __ZN4juce18OggVorbisNamespaceL11_44u5__p6_0E, symObjAddr: 0x758C70, symBinAddr: 0x100761608, symSize: 0x0 }
  - { offset: 0x57CA9A, size: 0x8, addend: 0x0, symName: __ZN4juce18OggVorbisNamespaceL26_vq_lengthlist__44u5__p6_0E, symObjAddr: 0x6E4CA0, symBinAddr: 0x1006C32C0, symSize: 0x0 }
  - { offset: 0x57CAB5, size: 0x8, addend: 0x0, symName: __ZN4juce18OggVorbisNamespaceL25_vq_quantlist__44u5__p6_0E, symObjAddr: 0x6E4CF8, symBinAddr: 0x1006C3318, symSize: 0x0 }
  - { offset: 0x57CAD0, size: 0x8, addend: 0x0, symName: __ZN4juce18OggVorbisNamespaceL11_44u5__p7_0E, symObjAddr: 0x758CB8, symBinAddr: 0x100761650, symSize: 0x0 }
  - { offset: 0x57CAEB, size: 0x8, addend: 0x0, symName: __ZN4juce18OggVorbisNamespaceL26_vq_lengthlist__44u5__p7_0E, symObjAddr: 0x6E4D40, symBinAddr: 0x1006C3360, symSize: 0x0 }
  - { offset: 0x57CB06, size: 0x8, addend: 0x0, symName: __ZN4juce18OggVorbisNamespaceL25_vq_quantlist__44u5__p7_0E, symObjAddr: 0x6E4D98, symBinAddr: 0x1006C33B8, symSize: 0x0 }
  - { offset: 0x57CB21, size: 0x8, addend: 0x0, symName: __ZN4juce18OggVorbisNamespaceL11_44u5__p7_1E, symObjAddr: 0x758D00, symBinAddr: 0x100761698, symSize: 0x0 }
  - { offset: 0x57CB3C, size: 0x8, addend: 0x0, symName: __ZN4juce18OggVorbisNamespaceL26_vq_lengthlist__44u5__p7_1E, symObjAddr: 0x6E4DB0, symBinAddr: 0x1006C33D0, symSize: 0x0 }
  - { offset: 0x57CB57, size: 0x8, addend: 0x0, symName: __ZN4juce18OggVorbisNamespaceL25_vq_quantlist__44u5__p7_1E, symObjAddr: 0x6E4E30, symBinAddr: 0x1006C3450, symSize: 0x0 }
  - { offset: 0x57CB72, size: 0x8, addend: 0x0, symName: __ZN4juce18OggVorbisNamespaceL11_44u5__p8_0E, symObjAddr: 0x758D48, symBinAddr: 0x1007616E0, symSize: 0x0 }
  - { offset: 0x57CB8D, size: 0x8, addend: 0x0, symName: __ZN4juce18OggVorbisNamespaceL26_vq_lengthlist__44u5__p8_0E, symObjAddr: 0x6E4E88, symBinAddr: 0x1006C34A8, symSize: 0x0 }
  - { offset: 0x57CBA8, size: 0x8, addend: 0x0, symName: __ZN4juce18OggVorbisNamespaceL25_vq_quantlist__44u5__p8_0E, symObjAddr: 0x6E4F08, symBinAddr: 0x1006C3528, symSize: 0x0 }
  - { offset: 0x57CBC3, size: 0x8, addend: 0x0, symName: __ZN4juce18OggVorbisNamespaceL11_44u5__p8_1E, symObjAddr: 0x758D90, symBinAddr: 0x100761728, symSize: 0x0 }
  - { offset: 0x57CBDE, size: 0x8, addend: 0x0, symName: __ZN4juce18OggVorbisNamespaceL26_vq_lengthlist__44u5__p8_1E, symObjAddr: 0x6E4F60, symBinAddr: 0x1006C3580, symSize: 0x0 }
  - { offset: 0x57CBF9, size: 0x8, addend: 0x0, symName: __ZN4juce18OggVorbisNamespaceL25_vq_quantlist__44u5__p8_1E, symObjAddr: 0x6E4FE0, symBinAddr: 0x1006C3600, symSize: 0x0 }
  - { offset: 0x57CC14, size: 0x8, addend: 0x0, symName: __ZN4juce18OggVorbisNamespaceL11_44u5__p9_0E, symObjAddr: 0x758DD8, symBinAddr: 0x100761770, symSize: 0x0 }
  - { offset: 0x57CC2F, size: 0x8, addend: 0x0, symName: __ZN4juce18OggVorbisNamespaceL26_vq_lengthlist__44u5__p9_0E, symObjAddr: 0x6E5038, symBinAddr: 0x1006C3658, symSize: 0x0 }
  - { offset: 0x57CC4A, size: 0x8, addend: 0x0, symName: __ZN4juce18OggVorbisNamespaceL25_vq_quantlist__44u5__p9_0E, symObjAddr: 0x6E50E8, symBinAddr: 0x1006C3708, symSize: 0x0 }
  - { offset: 0x57CC65, size: 0x8, addend: 0x0, symName: __ZN4juce18OggVorbisNamespaceL11_44u5__p9_1E, symObjAddr: 0x758E20, symBinAddr: 0x1007617B8, symSize: 0x0 }
  - { offset: 0x57CC80, size: 0x8, addend: 0x0, symName: __ZN4juce18OggVorbisNamespaceL26_vq_lengthlist__44u5__p9_1E, symObjAddr: 0x6E5150, symBinAddr: 0x1006C3770, symSize: 0x0 }
  - { offset: 0x57CC9B, size: 0x8, addend: 0x0, symName: __ZN4juce18OggVorbisNamespaceL25_vq_quantlist__44u5__p9_1E, symObjAddr: 0x6E5238, symBinAddr: 0x1006C3858, symSize: 0x0 }
  - { offset: 0x57CCB6, size: 0x8, addend: 0x0, symName: __ZN4juce18OggVorbisNamespaceL11_44u5__p9_2E, symObjAddr: 0x758E68, symBinAddr: 0x100761800, symSize: 0x0 }
  - { offset: 0x57CCD1, size: 0x8, addend: 0x0, symName: __ZN4juce18OggVorbisNamespaceL26_vq_lengthlist__44u5__p9_2E, symObjAddr: 0x6E52B0, symBinAddr: 0x1006C38D0, symSize: 0x0 }
  - { offset: 0x57CCEC, size: 0x8, addend: 0x0, symName: __ZN4juce18OggVorbisNamespaceL25_vq_quantlist__44u5__p9_2E, symObjAddr: 0x6E53D8, symBinAddr: 0x1006C39F8, symSize: 0x0 }
  - { offset: 0x57CD07, size: 0x8, addend: 0x0, symName: __ZN4juce18OggVorbisNamespaceL22_huff_book__44u5__longE, symObjAddr: 0x758AC0, symBinAddr: 0x100761458, symSize: 0x0 }
  - { offset: 0x57CD22, size: 0x8, addend: 0x0, symName: __ZN4juce18OggVorbisNamespaceL28_huff_lengthlist__44u5__longE, symObjAddr: 0x6E5460, symBinAddr: 0x1006C3A80, symSize: 0x0 }
  - { offset: 0x57CD3D, size: 0x8, addend: 0x0, symName: __ZN4juce18OggVorbisNamespaceL10_res_44u_6E, symObjAddr: 0x7569F8, symBinAddr: 0x10075F390, symSize: 0x0 }
  - { offset: 0x57CD58, size: 0x8, addend: 0x0, symName: __ZN4juce18OggVorbisNamespaceL23_huff_book__44u6__shortE, symObjAddr: 0x758EB0, symBinAddr: 0x100761848, symSize: 0x0 }
  - { offset: 0x57CD73, size: 0x8, addend: 0x0, symName: __ZN4juce18OggVorbisNamespaceL29_huff_lengthlist__44u6__shortE, symObjAddr: 0x6E54C4, symBinAddr: 0x1006C3AE4, symSize: 0x0 }
  - { offset: 0x57CD8C, size: 0x8, addend: 0x0, symName: __ZN4juce18OggVorbisNamespaceL14_resbook_44u_6E, symObjAddr: 0x758EF8, symBinAddr: 0x100761890, symSize: 0x0 }
  - { offset: 0x57CDA7, size: 0x8, addend: 0x0, symName: __ZN4juce18OggVorbisNamespaceL11_44u6__p1_0E, symObjAddr: 0x7590C0, symBinAddr: 0x100761A58, symSize: 0x0 }
  - { offset: 0x57CDC2, size: 0x8, addend: 0x0, symName: __ZN4juce18OggVorbisNamespaceL26_vq_lengthlist__44u6__p1_0E, symObjAddr: 0x6E5528, symBinAddr: 0x1006C3B48, symSize: 0x0 }
  - { offset: 0x57CDDD, size: 0x8, addend: 0x0, symName: __ZN4juce18OggVorbisNamespaceL25_vq_quantlist__44u6__p1_0E, symObjAddr: 0x6E5580, symBinAddr: 0x1006C3BA0, symSize: 0x0 }
  - { offset: 0x57CDF8, size: 0x8, addend: 0x0, symName: __ZN4juce18OggVorbisNamespaceL11_44u6__p2_0E, symObjAddr: 0x759108, symBinAddr: 0x100761AA0, symSize: 0x0 }
  - { offset: 0x57CE13, size: 0x8, addend: 0x0, symName: __ZN4juce18OggVorbisNamespaceL26_vq_lengthlist__44u6__p2_0E, symObjAddr: 0x6E5598, symBinAddr: 0x1006C3BB8, symSize: 0x0 }
  - { offset: 0x57CE2E, size: 0x8, addend: 0x0, symName: __ZN4juce18OggVorbisNamespaceL25_vq_quantlist__44u6__p2_0E, symObjAddr: 0x6E55F0, symBinAddr: 0x1006C3C10, symSize: 0x0 }
  - { offset: 0x57CE49, size: 0x8, addend: 0x0, symName: __ZN4juce18OggVorbisNamespaceL11_44u6__p3_0E, symObjAddr: 0x759150, symBinAddr: 0x100761AE8, symSize: 0x0 }
  - { offset: 0x57CE64, size: 0x8, addend: 0x0, symName: __ZN4juce18OggVorbisNamespaceL26_vq_lengthlist__44u6__p3_0E, symObjAddr: 0x6E5608, symBinAddr: 0x1006C3C28, symSize: 0x0 }
  - { offset: 0x57CE7F, size: 0x8, addend: 0x0, symName: __ZN4juce18OggVorbisNamespaceL25_vq_quantlist__44u6__p3_0E, symObjAddr: 0x6E5880, symBinAddr: 0x1006C3EA0, symSize: 0x0 }
  - { offset: 0x57CE9A, size: 0x8, addend: 0x0, symName: __ZN4juce18OggVorbisNamespaceL11_44u6__p4_0E, symObjAddr: 0x759198, symBinAddr: 0x100761B30, symSize: 0x0 }
  - { offset: 0x57CEB5, size: 0x8, addend: 0x0, symName: __ZN4juce18OggVorbisNamespaceL26_vq_lengthlist__44u6__p4_0E, symObjAddr: 0x6E58A8, symBinAddr: 0x1006C3EC8, symSize: 0x0 }
  - { offset: 0x57CED0, size: 0x8, addend: 0x0, symName: __ZN4juce18OggVorbisNamespaceL25_vq_quantlist__44u6__p4_0E, symObjAddr: 0x6E5B20, symBinAddr: 0x1006C4140, symSize: 0x0 }
  - { offset: 0x57CEEB, size: 0x8, addend: 0x0, symName: __ZN4juce18OggVorbisNamespaceL11_44u6__p5_0E, symObjAddr: 0x7591E0, symBinAddr: 0x100761B78, symSize: 0x0 }
  - { offset: 0x57CF06, size: 0x8, addend: 0x0, symName: __ZN4juce18OggVorbisNamespaceL26_vq_lengthlist__44u6__p5_0E, symObjAddr: 0x6E5B48, symBinAddr: 0x1006C4168, symSize: 0x0 }
  - { offset: 0x57CF21, size: 0x8, addend: 0x0, symName: __ZN4juce18OggVorbisNamespaceL25_vq_quantlist__44u6__p5_0E, symObjAddr: 0x6E5BA0, symBinAddr: 0x1006C41C0, symSize: 0x0 }
  - { offset: 0x57CF3C, size: 0x8, addend: 0x0, symName: __ZN4juce18OggVorbisNamespaceL11_44u6__p6_0E, symObjAddr: 0x759228, symBinAddr: 0x100761BC0, symSize: 0x0 }
  - { offset: 0x57CF57, size: 0x8, addend: 0x0, symName: __ZN4juce18OggVorbisNamespaceL26_vq_lengthlist__44u6__p6_0E, symObjAddr: 0x6E5BE8, symBinAddr: 0x1006C4208, symSize: 0x0 }
  - { offset: 0x57CF72, size: 0x8, addend: 0x0, symName: __ZN4juce18OggVorbisNamespaceL25_vq_quantlist__44u6__p6_0E, symObjAddr: 0x6E5C40, symBinAddr: 0x1006C4260, symSize: 0x0 }
  - { offset: 0x57CF8D, size: 0x8, addend: 0x0, symName: __ZN4juce18OggVorbisNamespaceL11_44u6__p7_0E, symObjAddr: 0x759270, symBinAddr: 0x100761C08, symSize: 0x0 }
  - { offset: 0x57CFA8, size: 0x8, addend: 0x0, symName: __ZN4juce18OggVorbisNamespaceL26_vq_lengthlist__44u6__p7_0E, symObjAddr: 0x6E5C88, symBinAddr: 0x1006C42A8, symSize: 0x0 }
  - { offset: 0x57CFC3, size: 0x8, addend: 0x0, symName: __ZN4juce18OggVorbisNamespaceL25_vq_quantlist__44u6__p7_0E, symObjAddr: 0x6E5CE0, symBinAddr: 0x1006C4300, symSize: 0x0 }
  - { offset: 0x57CFDE, size: 0x8, addend: 0x0, symName: __ZN4juce18OggVorbisNamespaceL11_44u6__p7_1E, symObjAddr: 0x7592B8, symBinAddr: 0x100761C50, symSize: 0x0 }
  - { offset: 0x57CFF9, size: 0x8, addend: 0x0, symName: __ZN4juce18OggVorbisNamespaceL26_vq_lengthlist__44u6__p7_1E, symObjAddr: 0x6E5CF8, symBinAddr: 0x1006C4318, symSize: 0x0 }
  - { offset: 0x57D014, size: 0x8, addend: 0x0, symName: __ZN4juce18OggVorbisNamespaceL25_vq_quantlist__44u6__p7_1E, symObjAddr: 0x6E5D78, symBinAddr: 0x1006C4398, symSize: 0x0 }
