---
triple:          'arm64-apple-darwin'
binary-path:     '/Volumes/CrucialP2/Programming/JUCEProjects/IRFx/Builds/MacOSX/build/Release/juce_vst3_helper'
relocations:
  - { offset: 0x5EF, size: 0x8, addend: 0x0, symName: __ZN9Steinberg15IPluginFactory23iidE, symObjAddr: 0x2260A0, symBinAddr: 0x100024390, symSize: 0x0 }
  - { offset: 0x72C, size: 0x8, addend: 0x0, symName: __ZN9Steinberg15IPluginFactory33iidE, symObjAddr: 0x2260B8, symBinAddr: 0x1000243A8, symSize: 0x0 }
  - { offset: 0x89E, size: 0x8, addend: 0x0, symName: __ZN9Steinberg8FUnknown3iidE, symObjAddr: 0x2260D0, symBinAddr: 0x1000243C0, symSize: 0x0 }
  - { offset: 0x8B1, size: 0x8, addend: 0x0, symName: __ZN9Steinberg8IBStream3iidE, symObjAddr: 0x2260E8, symBinAddr: 0x1000243D8, symSize: 0x0 }
  - { offset: 0x99F, size: 0x8, addend: 0x0, symName: __ZN9Steinberg11CommandLine11Description5kBoolE, symObjAddr: 0x1B828, symBinAddr: 0x10001ADB8, symSize: 0x0 }
  - { offset: 0xA2F, size: 0x8, addend: 0x0, symName: __ZN9Steinberg11CommandLine11Description7kStringE, symObjAddr: 0x1B840, symBinAddr: 0x10001ADD0, symSize: 0x0 }
  - { offset: 0x1007, size: 0x8, addend: 0x0, symName: __ZN9Steinberg14ModuleInfoTool12_GLOBAL__N_110printUsageERNSt3__113basic_ostreamIcNS2_11char_traitsIcEEEE, symObjAddr: 0xC9D4, symBinAddr: 0x10000D8AC, symSize: 0x44 }
  - { offset: 0x10BD, size: 0x8, addend: 0x0, symName: __ZN9Steinberg14ModuleInfoTool3runEiPPc, symObjAddr: 0x3978, symBinAddr: 0x1000048A0, symSize: 0x7638 }
  - { offset: 0x1EFDF, size: 0x8, addend: 0x0, symName: __ZZN9Steinberg3Vst13StringConvert12_GLOBAL__N_19converterEvE4conv, symObjAddr: 0x226118, symBinAddr: 0x100024408, symSize: 0x0 }
  - { offset: 0x1F037, size: 0x8, addend: 0x0, symName: __ZN9Steinberg3Vst13StringConvert7convertEPKDsj, symObjAddr: 0x16F6C, symBinAddr: 0x100017DF4, symSize: 0x95C }
  - { offset: 0x21410, size: 0x8, addend: 0x0, symName: __ZN9Steinberg20IPluginCompatibility3iidE, symObjAddr: 0x226100, symBinAddr: 0x1000243F0, symSize: 0x0 }
  - { offset: 0x2146E, size: 0x8, addend: 0x0, symName: __ZN9SteinbergL19IPluginFactory2_iidE, symObjAddr: 0x1B7E8, symBinAddr: 0x10001AD78, symSize: 0x0 }
  - { offset: 0x21488, size: 0x8, addend: 0x0, symName: __ZN9SteinbergL19IPluginFactory3_iidE, symObjAddr: 0x1B7F8, symBinAddr: 0x10001AD88, symSize: 0x0 }
  - { offset: 0x214A2, size: 0x8, addend: 0x0, symName: __ZN9SteinbergL12FUnknown_iidE, symObjAddr: 0x1B808, symBinAddr: 0x10001AD98, symSize: 0x0 }
  - { offset: 0x214BB, size: 0x8, addend: 0x0, symName: __ZN9SteinbergL12IBStream_iidE, symObjAddr: 0x1B818, symBinAddr: 0x10001ADA8, symSize: 0x0 }
  - { offset: 0x21519, size: 0x8, addend: 0x0, symName: __ZN9SteinbergL24IPluginCompatibility_iidE, symObjAddr: 0x1B858, symBinAddr: 0x10001ADE8, symSize: 0x0 }
  - { offset: 0x21CEC, size: 0x8, addend: 0x0, symName: __ZN9Steinberg13ModuleInfoLib12_GLOBAL__N_119printJsonParseErrorER19json_parse_result_sRNSt3__113basic_ostreamIcNS4_11char_traitsIcEEEE, symObjAddr: 0xCDF8, symBinAddr: 0x10000DCD0, symSize: 0x114 }
  - { offset: 0x22433, size: 0x8, addend: 0x0, symName: __ZN9Steinberg13ModuleInfoLib22parseCompatibilityJsonENSt3__117basic_string_viewIcNS1_11char_traitsIcEEEEPNS1_13basic_ostreamIcS4_EE, symObjAddr: 0xB29C, symBinAddr: 0x10000C1C4, symSize: 0x1A0 }
  - { offset: 0x23A21, size: 0x8, addend: 0x0, symName: __ZN9Steinberg8readFileERKNSt3__112basic_stringIcNS0_11char_traitsIcEENS0_9allocatorIcEEEE, symObjAddr: 0xB014, symBinAddr: 0x10000BF3C, symSize: 0x288 }
  - { offset: 0x2A902, size: 0x8, addend: 0x0, symName: __ZNSt3__16__itoa10__pow10_64E, symObjAddr: 0x1BAA0, symBinAddr: 0x10001B030, symSize: 0x0 }
  - { offset: 0x492AB, size: 0x8, addend: 0x0, symName: __ZNSt3__124__put_character_sequenceB8ne190102IcNS_11char_traitsIcEEEERNS_13basic_ostreamIT_T0_EES7_PKS4_m, symObjAddr: 0x36D4, symBinAddr: 0x1000045FC, symSize: 0x2A4 }
  - { offset: 0x4B964, size: 0x8, addend: 0x0, symName: __ZNSt3__120__throw_length_errorB8ne190102EPKc, symObjAddr: 0xC94, symBinAddr: 0x100001BE4, symSize: 0x50 }
  - { offset: 0x4CC3A, size: 0x8, addend: 0x0, symName: __ZNSt3__120__throw_out_of_rangeB8ne190102EPKc, symObjAddr: 0x3660, symBinAddr: 0x100004588, symSize: 0x48 }
  - { offset: 0x505BB, size: 0x8, addend: 0x0, symName: __ZNSt3__1plB8ne190102IcNS_11char_traitsIcEENS_9allocatorIcEEEENS_12basic_stringIT_T0_T1_EEPKS6_OS9_, symObjAddr: 0xC8D0, symBinAddr: 0x10000D7A8, symSize: 0x60 }
  - { offset: 0x50C72, size: 0x8, addend: 0x0, symName: __ZNSt3__135__uninitialized_allocator_copy_implB8ne190102INS_9allocatorIN9Steinberg10ModuleInfo13CompatibilityEEEPS4_S6_S6_EET2_RT_T0_T1_S7_, symObjAddr: 0x17D28, symBinAddr: 0x100018BB0, symSize: 0x1C8 }
  - { offset: 0x51AC6, size: 0x8, addend: 0x0, symName: __ZNSt3__117__from_chars_atoiB8ne190102IxLi0EEENS_17from_chars_resultEPKcS3_RT_, symObjAddr: 0xF5D0, symBinAddr: 0x1000104A8, symSize: 0x298 }
  - { offset: 0x52183, size: 0x8, addend: 0x0, symName: __ZNSt3__119__throw_range_errorB8ne190102EPKc, symObjAddr: 0x17928, symBinAddr: 0x1000187B0, symSize: 0x48 }
  - { offset: 0x52C16, size: 0x8, addend: 0x0, symName: __ZNSt3__116__throw_bad_castB8ne190102Ev, symObjAddr: 0x184A4, symBinAddr: 0x10001932C, symSize: 0x28 }
  - { offset: 0x545B1, size: 0x8, addend: 0x0, symName: __ZSt28__throw_bad_array_new_lengthB8ne190102v, symObjAddr: 0x1564, symBinAddr: 0x1000024B4, symSize: 0x28 }
  - { offset: 0x56D40, size: 0x8, addend: 0x0, symName: __ZN9Steinberg13ModuleInfoLib12_GLOBAL__N_120ModuleInfoJsonParser12parseClassesERKN4JSON5ValueE, symObjAddr: 0xDAD4, symBinAddr: 0x10000E9AC, symSize: 0x1A90 }
  - { offset: 0x5DE93, size: 0x8, addend: 0x0, symName: __ZN9Steinberg12MemoryStream14queryInterfaceEPKcPPv, symObjAddr: 0x0, symBinAddr: 0x100000F50, symSize: 0x90 }
  - { offset: 0x5DF2B, size: 0x8, addend: 0x0, symName: __ZN9Steinberg12MemoryStream6addRefEv, symObjAddr: 0x90, symBinAddr: 0x100000FE0, symSize: 0x14 }
  - { offset: 0x5DF78, size: 0x8, addend: 0x0, symName: __ZN9Steinberg12MemoryStream7releaseEv, symObjAddr: 0xA4, symBinAddr: 0x100000FF4, symSize: 0x40 }
  - { offset: 0x5DFCE, size: 0x8, addend: 0x0, symName: __ZN9Steinberg12MemoryStream4readEPviPi, symObjAddr: 0xE4, symBinAddr: 0x100001034, symSize: 0xB0 }
  - { offset: 0x5E07F, size: 0x8, addend: 0x0, symName: __ZN9Steinberg12MemoryStream5writeEPviPi, symObjAddr: 0x194, symBinAddr: 0x1000010E4, symSize: 0x22C }
  - { offset: 0x5E18C, size: 0x8, addend: 0x0, symName: __ZN9Steinberg12MemoryStream4seekExiPx, symObjAddr: 0x3C0, symBinAddr: 0x100001310, symSize: 0x68 }
  - { offset: 0x5E1DF, size: 0x8, addend: 0x0, symName: __ZN9Steinberg12MemoryStream4tellEPx, symObjAddr: 0x428, symBinAddr: 0x100001378, symSize: 0x20 }
  - { offset: 0x5E232, size: 0x8, addend: 0x0, symName: __ZN9Steinberg12MemoryStreamD1Ev, symObjAddr: 0x448, symBinAddr: 0x100001398, symSize: 0x48 }
  - { offset: 0x5E256, size: 0x8, addend: 0x0, symName: __ZN9Steinberg12MemoryStreamD1Ev, symObjAddr: 0x448, symBinAddr: 0x100001398, symSize: 0x48 }
  - { offset: 0x5E29B, size: 0x8, addend: 0x0, symName: __ZN9Steinberg12MemoryStreamD0Ev, symObjAddr: 0x490, symBinAddr: 0x1000013E0, symSize: 0x48 }
  - { offset: 0x5E2CA, size: 0x8, addend: 0x0, symName: __ZN9Steinberg12MemoryStreamD0Ev, symObjAddr: 0x490, symBinAddr: 0x1000013E0, symSize: 0x48 }
  - { offset: 0x5E2E7, size: 0x8, addend: 0x0, symName: __ZN9Steinberg12MemoryStreamD0Ev, symObjAddr: 0x490, symBinAddr: 0x1000013E0, symSize: 0x48 }
  - { offset: 0x5E39E, size: 0x8, addend: 0x0, symName: __GLOBAL__sub_I_juce_VST3ManifestHelper.mm, symObjAddr: 0x192E0, symBinAddr: 0x10001A168, symSize: 0xA8 }
  - { offset: 0x5E5A2, size: 0x8, addend: 0x0, symName: __ZN9Steinberg4FUIDD1Ev, symObjAddr: 0x4D8, symBinAddr: 0x100001428, symSize: 0x4 }
  - { offset: 0x5E5CB, size: 0x8, addend: 0x0, symName: __ZN9Steinberg4FUIDD0Ev, symObjAddr: 0x4DC, symBinAddr: 0x10000142C, symSize: 0x4 }
  - { offset: 0x5EB2B, size: 0x8, addend: 0x0, symName: __ZN4VST37Hosting6Module6createERKNSt3__112basic_stringIcNS2_11char_traitsIcEENS2_9allocatorIcEEEERS8_, symObjAddr: 0x4E0, symBinAddr: 0x100001430, symSize: 0x24C }
  - { offset: 0x5F9AE, size: 0x8, addend: 0x0, symName: __ZN4VST37Hosting12_GLOBAL__N_19MacModule4loadERKNSt3__112basic_stringIcNS3_11char_traitsIcEENS3_9allocatorIcEEEERS9_, symObjAddr: 0x72C, symBinAddr: 0x10000167C, symSize: 0x334 }
  - { offset: 0x607BF, size: 0x8, addend: 0x0, symName: __ZNSt3__112basic_stringIcNS_11char_traitsIcEENS_9allocatorIcEEE17__assign_no_aliasILb0EEERS5_PKcm, symObjAddr: 0xB1C, symBinAddr: 0x100001A6C, symSize: 0x114 }
  - { offset: 0x60B9D, size: 0x8, addend: 0x0, symName: __ZNKSt3__112basic_stringIcNS_11char_traitsIcEENS_9allocatorIcEEE20__throw_length_errorB8ne190102Ev, symObjAddr: 0xC30, symBinAddr: 0x100001B80, symSize: 0x14 }
  - { offset: 0x60BB2, size: 0x8, addend: 0x0, symName: __ZNSt3__112basic_stringIcNS_11char_traitsIcEENS_9allocatorIcEEE17__assign_no_aliasILb1EEERS5_PKcm, symObjAddr: 0xA60, symBinAddr: 0x1000019B0, symSize: 0xBC }
  - { offset: 0x60E79, size: 0x8, addend: 0x0, symName: __ZNSt3__112basic_stringIcNS_11char_traitsIcEENS_9allocatorIcEEE17__assign_no_aliasILb0EEERS5_PKcm, symObjAddr: 0xB1C, symBinAddr: 0x100001A6C, symSize: 0x114 }
  - { offset: 0x60E8E, size: 0x8, addend: 0x0, symName: __ZNKSt3__112basic_stringIcNS_11char_traitsIcEENS_9allocatorIcEEE20__throw_length_errorB8ne190102Ev, symObjAddr: 0xC30, symBinAddr: 0x100001B80, symSize: 0x14 }
  - { offset: 0x60EB3, size: 0x8, addend: 0x0, symName: __ZNSt3__110shared_ptrIN4VST37Hosting12_GLOBAL__N_19MacModuleEED1B8ne190102Ev, symObjAddr: 0xC44, symBinAddr: 0x100001B94, symSize: 0x50 }
  - { offset: 0x60EBE, size: 0x8, addend: 0x0, symName: __ZNSt3__110shared_ptrIN4VST37Hosting12_GLOBAL__N_19MacModuleEED1B8ne190102Ev, symObjAddr: 0xC44, symBinAddr: 0x100001B94, symSize: 0x50 }
  - { offset: 0x6128B, size: 0x8, addend: 0x0, symName: __ZN4VST37Hosting12_GLOBAL__N_19MacModule12loadInternalERKNSt3__112basic_stringIcNS3_11char_traitsIcEENS3_9allocatorIcEEEERS9_, symObjAddr: 0xD08, symBinAddr: 0x100001C58, symSize: 0x434 }
  - { offset: 0x62017, size: 0x8, addend: 0x0, symName: __ZNSt12length_errorC1B8ne190102EPKc, symObjAddr: 0xCE4, symBinAddr: 0x100001C34, symSize: 0x24 }
  - { offset: 0x62592, size: 0x8, addend: 0x0, symName: __ZNSt3__112basic_stringIcNS_11char_traitsIcEENS_9allocatorIcEEE17__assign_externalEPKc, symObjAddr: 0x113C, symBinAddr: 0x10000208C, symSize: 0x34 }
  - { offset: 0x6261C, size: 0x8, addend: 0x0, symName: __ZNSt3__112basic_stringIcNS_11char_traitsIcEENS_9allocatorIcEEE17__assign_externalEPKcm, symObjAddr: 0x11B0, symBinAddr: 0x100002100, symSize: 0x174 }
  - { offset: 0x62ABB, size: 0x8, addend: 0x0, symName: __ZN4VST37Hosting12_GLOBAL__N_15CFPtrIPK7__CFURLED1Ev, symObjAddr: 0x1324, symBinAddr: 0x100002274, symSize: 0x30 }
  - { offset: 0x62AC6, size: 0x8, addend: 0x0, symName: __ZN4VST37Hosting12_GLOBAL__N_15CFPtrIPK10__CFStringED1Ev, symObjAddr: 0x1170, symBinAddr: 0x1000020C0, symSize: 0x30 }
  - { offset: 0x62B0B, size: 0x8, addend: 0x0, symName: __ZN4VST37Hosting12_GLOBAL__N_15CFPtrIPK7__CFURLED1Ev, symObjAddr: 0x1324, symBinAddr: 0x100002274, symSize: 0x30 }
  - { offset: 0x62C98, size: 0x8, addend: 0x0, symName: __ZN4VST37Hosting12_GLOBAL__N_19MacModuleD1Ev, symObjAddr: 0x1354, symBinAddr: 0x1000022A4, symSize: 0x130 }
  - { offset: 0x630BD, size: 0x8, addend: 0x0, symName: __ZN4VST37Hosting12_GLOBAL__N_19MacModuleD0Ev, symObjAddr: 0x1484, symBinAddr: 0x1000023D4, symSize: 0x14 }
  - { offset: 0x630F3, size: 0x8, addend: 0x0, symName: __ZN4VST37Hosting6ModuleD1Ev, symObjAddr: 0x1498, symBinAddr: 0x1000023E8, symSize: 0x4 }
  - { offset: 0x6311A, size: 0x8, addend: 0x0, symName: __ZN4VST37Hosting6ModuleD0Ev, symObjAddr: 0x149C, symBinAddr: 0x1000023EC, symSize: 0x4 }
  - { offset: 0x6315D, size: 0x8, addend: 0x0, symName: __ZNSt3__120__shared_ptr_emplaceIN4VST37Hosting12_GLOBAL__N_19MacModuleENS_9allocatorIS4_EEED1Ev, symObjAddr: 0x14A0, symBinAddr: 0x1000023F0, symSize: 0x10 }
  - { offset: 0x6317F, size: 0x8, addend: 0x0, symName: __ZNSt3__120__shared_ptr_emplaceIN4VST37Hosting12_GLOBAL__N_19MacModuleENS_9allocatorIS4_EEED1Ev, symObjAddr: 0x14A0, symBinAddr: 0x1000023F0, symSize: 0x10 }
  - { offset: 0x631B5, size: 0x8, addend: 0x0, symName: __ZNSt3__120__shared_ptr_emplaceIN4VST37Hosting12_GLOBAL__N_19MacModuleENS_9allocatorIS4_EEED0Ev, symObjAddr: 0x14B0, symBinAddr: 0x100002400, symSize: 0x20 }
  - { offset: 0x63286, size: 0x8, addend: 0x0, symName: __ZNSt3__120__shared_ptr_emplaceIN4VST37Hosting12_GLOBAL__N_19MacModuleENS_9allocatorIS4_EEE16__on_zero_sharedEv, symObjAddr: 0x14D0, symBinAddr: 0x100002420, symSize: 0xC }
  - { offset: 0x632AF, size: 0x8, addend: 0x0, symName: __ZNSt3__120__shared_ptr_emplaceIN4VST37Hosting12_GLOBAL__N_19MacModuleENS_9allocatorIS4_EEE16__on_zero_sharedEv, symObjAddr: 0x14D0, symBinAddr: 0x100002420, symSize: 0xC }
  - { offset: 0x632CD, size: 0x8, addend: 0x0, symName: __ZNSt3__120__shared_ptr_emplaceIN4VST37Hosting12_GLOBAL__N_19MacModuleENS_9allocatorIS4_EEE16__on_zero_sharedEv, symObjAddr: 0x14D0, symBinAddr: 0x100002420, symSize: 0xC }
  - { offset: 0x632EB, size: 0x8, addend: 0x0, symName: __ZNSt3__120__shared_ptr_emplaceIN4VST37Hosting12_GLOBAL__N_19MacModuleENS_9allocatorIS4_EEE16__on_zero_sharedEv, symObjAddr: 0x14D0, symBinAddr: 0x100002420, symSize: 0xC }
  - { offset: 0x6336E, size: 0x8, addend: 0x0, symName: __ZNSt3__120__shared_ptr_emplaceIN4VST37Hosting12_GLOBAL__N_19MacModuleENS_9allocatorIS4_EEE21__on_zero_shared_weakEv, symObjAddr: 0x14DC, symBinAddr: 0x10000242C, symSize: 0x4 }
  - { offset: 0x633A1, size: 0x8, addend: 0x0, symName: __ZNSt3__120__shared_ptr_emplaceIN4VST37Hosting12_GLOBAL__N_19MacModuleENS_9allocatorIS4_EEE21__on_zero_shared_weakEv, symObjAddr: 0x14DC, symBinAddr: 0x10000242C, symSize: 0x4 }
  - { offset: 0x633C3, size: 0x8, addend: 0x0, symName: __ZNSt3__120__shared_ptr_emplaceIN4VST37Hosting12_GLOBAL__N_19MacModuleENS_9allocatorIS4_EEE21__on_zero_shared_weakEv, symObjAddr: 0x14DC, symBinAddr: 0x10000242C, symSize: 0x4 }
  - { offset: 0x633E5, size: 0x8, addend: 0x0, symName: __ZNSt3__120__shared_ptr_emplaceIN4VST37Hosting12_GLOBAL__N_19MacModuleENS_9allocatorIS4_EEE21__on_zero_shared_weakEv, symObjAddr: 0x14DC, symBinAddr: 0x10000242C, symSize: 0x4 }
  - { offset: 0x63411, size: 0x8, addend: 0x0, symName: __ZNSt3__120__shared_ptr_emplaceIN4VST37Hosting12_GLOBAL__N_19MacModuleENS_9allocatorIS4_EEE21__on_zero_shared_weakEv, symObjAddr: 0x14DC, symBinAddr: 0x10000242C, symSize: 0x4 }
  - { offset: 0x63438, size: 0x8, addend: 0x0, symName: __ZNSt3__120__shared_ptr_emplaceIN4VST37Hosting12_GLOBAL__N_19MacModuleENS_9allocatorIS4_EEE21__on_zero_shared_weakEv, symObjAddr: 0x14DC, symBinAddr: 0x10000242C, symSize: 0x4 }
  - { offset: 0x6356E, size: 0x8, addend: 0x0, symName: __ZNSt3__16vectorINS_12basic_stringIcNS_11char_traitsIcEENS_9allocatorIcEEEENS4_IS6_EEED1B8ne190102Ev, symObjAddr: 0x14E0, symBinAddr: 0x100002430, symSize: 0x70 }
  - { offset: 0x637DD, size: 0x8, addend: 0x0, symName: __ZNKSt3__16vectorINS_12basic_stringIcNS_11char_traitsIcEENS_9allocatorIcEEEENS4_IS6_EEE20__throw_length_errorB8ne190102Ev, symObjAddr: 0x1550, symBinAddr: 0x1000024A0, symSize: 0x14 }
  - { offset: 0x63802, size: 0x8, addend: 0x0, symName: __ZSt28__throw_bad_array_new_lengthB8ne190102v, symObjAddr: 0x1564, symBinAddr: 0x1000024B4, symSize: 0x28 }
  - { offset: 0x6388C, size: 0x8, addend: 0x0, symName: __ZNSt3__114__split_bufferINS_12basic_stringIcNS_11char_traitsIcEENS_9allocatorIcEEEERNS4_IS6_EEED1Ev, symObjAddr: 0x158C, symBinAddr: 0x1000024DC, symSize: 0x64 }
  - { offset: 0x64CF7, size: 0x8, addend: 0x0, symName: __ZN4VST37Hosting6Module12getSnapshotsERKNSt3__112basic_stringIcNS2_11char_traitsIcEENS2_9allocatorIcEEEE, symObjAddr: 0x15F0, symBinAddr: 0x100002540, symSize: 0xF7C }
  - { offset: 0x67F82, size: 0x8, addend: 0x0, symName: __ZNSt3__115basic_stringbufIcNS_11char_traitsIcEENS_9allocatorIcEEE15__init_buf_ptrsB8ne190102Ev, symObjAddr: 0x2DE4, symBinAddr: 0x100003D0C, symSize: 0x144 }
  - { offset: 0x6828A, size: 0x8, addend: 0x0, symName: __ZNSt3__16vectorIN4VST37Hosting6Module8Snapshot9ImageDescENS_9allocatorIS5_EEE24__emplace_back_slow_pathIJS5_EEEPS5_DpOT_, symObjAddr: 0x256C, symBinAddr: 0x1000034BC, symSize: 0x144 }
  - { offset: 0x6896B, size: 0x8, addend: 0x0, symName: __ZN4VST37Hosting6Module8SnapshotD1Ev, symObjAddr: 0x26B0, symBinAddr: 0x100003600, symSize: 0x70 }
  - { offset: 0x68998, size: 0x8, addend: 0x0, symName: __ZNSt3__119basic_istringstreamIcNS_11char_traitsIcEENS_9allocatorIcEEED1Ev, symObjAddr: 0x27F4, symBinAddr: 0x10000371C, symSize: 0x80 }
  - { offset: 0x68B39, size: 0x8, addend: 0x0, symName: __ZN4VST37Hosting6Module8SnapshotD1Ev, symObjAddr: 0x26B0, symBinAddr: 0x100003600, symSize: 0x70 }
  - { offset: 0x68E24, size: 0x8, addend: 0x0, symName: __ZNSt3__16vectorIN4VST37Hosting6Module8SnapshotENS_9allocatorIS4_EEED1B8ne190102Ev, symObjAddr: 0x2720, symBinAddr: 0x100003670, symSize: 0xAC }
  - { offset: 0x692DE, size: 0x8, addend: 0x0, symName: __ZNSt3__119basic_istringstreamIcNS_11char_traitsIcEENS_9allocatorIcEEED1Ev, symObjAddr: 0x27F4, symBinAddr: 0x10000371C, symSize: 0x80 }
  - { offset: 0x69362, size: 0x8, addend: 0x0, symName: __ZNSt3__115basic_stringbufIcNS_11char_traitsIcEENS_9allocatorIcEEED1Ev, symObjAddr: 0x2874, symBinAddr: 0x10000379C, symSize: 0x44 }
  - { offset: 0x69386, size: 0x8, addend: 0x0, symName: __ZNSt3__115basic_stringbufIcNS_11char_traitsIcEENS_9allocatorIcEEED1Ev, symObjAddr: 0x2874, symBinAddr: 0x10000379C, symSize: 0x44 }
  - { offset: 0x694C1, size: 0x8, addend: 0x0, symName: __ZNSt3__115basic_stringbufIcNS_11char_traitsIcEENS_9allocatorIcEEED0Ev, symObjAddr: 0x28B8, symBinAddr: 0x1000037E0, symSize: 0x40 }
  - { offset: 0x69769, size: 0x8, addend: 0x0, symName: __ZNSt3__115basic_stringbufIcNS_11char_traitsIcEENS_9allocatorIcEEE7seekoffExNS_8ios_base7seekdirEj, symObjAddr: 0x28F8, symBinAddr: 0x100003820, symSize: 0x100 }
  - { offset: 0x69991, size: 0x8, addend: 0x0, symName: __ZNSt3__115basic_stringbufIcNS_11char_traitsIcEENS_9allocatorIcEEE7seekposENS_4fposI11__mbstate_tEEj, symObjAddr: 0x29F8, symBinAddr: 0x100003920, symSize: 0x18 }
  - { offset: 0x69A15, size: 0x8, addend: 0x0, symName: __ZNSt3__115basic_stringbufIcNS_11char_traitsIcEENS_9allocatorIcEEE9underflowEv, symObjAddr: 0x2A10, symBinAddr: 0x100003938, symSize: 0x50 }
  - { offset: 0x69AB9, size: 0x8, addend: 0x0, symName: __ZNSt3__115basic_stringbufIcNS_11char_traitsIcEENS_9allocatorIcEEE9pbackfailEi, symObjAddr: 0x2A60, symBinAddr: 0x100003988, symSize: 0x6C }
  - { offset: 0x69CAF, size: 0x8, addend: 0x0, symName: __ZNSt3__115basic_stringbufIcNS_11char_traitsIcEENS_9allocatorIcEEE8overflowEi, symObjAddr: 0x2ACC, symBinAddr: 0x1000039F4, symSize: 0x190 }
  - { offset: 0x6A159, size: 0x8, addend: 0x0, symName: __ZNSt3__119basic_istringstreamIcNS_11char_traitsIcEENS_9allocatorIcEEED0Ev, symObjAddr: 0x2C5C, symBinAddr: 0x100003B84, symSize: 0x80 }
  - { offset: 0x6A316, size: 0x8, addend: 0x0, symName: __ZTv0_n24_NSt3__119basic_istringstreamIcNS_11char_traitsIcEENS_9allocatorIcEEED1Ev, symObjAddr: 0x2CDC, symBinAddr: 0x100003C04, symSize: 0x80 }
  - { offset: 0x6A4D7, size: 0x8, addend: 0x0, symName: __ZTv0_n24_NSt3__119basic_istringstreamIcNS_11char_traitsIcEENS_9allocatorIcEEED0Ev, symObjAddr: 0x2D5C, symBinAddr: 0x100003C84, symSize: 0x88 }
  - { offset: 0x6A736, size: 0x8, addend: 0x0, symName: __ZN4VST37Hosting6Module17getModuleInfoPathERKNSt3__112basic_stringIcNS2_11char_traitsIcEENS2_9allocatorIcEEEE, symObjAddr: 0x2F28, symBinAddr: 0x100003E50, symSize: 0x224 }
  - { offset: 0x6B1D5, size: 0x8, addend: 0x0, symName: __ZNSt3__16__treeINS_12__value_typeINS_12basic_stringIcNS_11char_traitsIcEENS_9allocatorIcEEEES7_EENS_19__map_value_compareIS7_S8_NS_4lessIS7_EELb1EEENS5_IS8_EEE25__emplace_unique_key_argsIS7_JRKNS_21piecewise_construct_tENS_5tupleIJRKS7_EEENSJ_IJEEEEEENS_4pairINS_15__tree_iteratorIS8_PNS_11__tree_nodeIS8_PvEElEEbEERKT_DpOT0_, symObjAddr: 0x314C, symBinAddr: 0x100004074, symSize: 0x328 }
  - { offset: 0x6BB9D, size: 0x8, addend: 0x0, symName: __ZNSt3__112basic_stringIcNS_11char_traitsIcEENS_9allocatorIcEEE25__init_copy_ctor_externalEPKcm, symObjAddr: 0x3474, symBinAddr: 0x10000439C, symSize: 0x78 }
  - { offset: 0x6BD5D, size: 0x8, addend: 0x0, symName: __ZNSt3__110unique_ptrINS_11__tree_nodeINS_12__value_typeINS_12basic_stringIcNS_11char_traitsIcEENS_9allocatorIcEEEES8_EEPvEENS_22__tree_node_destructorINS6_ISB_EEEEED1B8ne190102Ev, symObjAddr: 0x34EC, symBinAddr: 0x100004414, symSize: 0x6C }
  - { offset: 0x6BD68, size: 0x8, addend: 0x0, symName: __ZNSt3__110unique_ptrINS_11__tree_nodeINS_12__value_typeINS_12basic_stringIcNS_11char_traitsIcEENS_9allocatorIcEEEES8_EEPvEENS_22__tree_node_destructorINS6_ISB_EEEEED1B8ne190102Ev, symObjAddr: 0x34EC, symBinAddr: 0x100004414, symSize: 0x6C }
  - { offset: 0x6C25B, size: 0x8, addend: 0x0, symName: __ZN9Steinberg11CommandLine11DescriptionC2ERKNSt3__112basic_stringIcNS2_11char_traitsIcEENS2_9allocatorIcEEEESA_SA_, symObjAddr: 0x3558, symBinAddr: 0x100004480, symSize: 0xFC }
  - { offset: 0x6C5BD, size: 0x8, addend: 0x0, symName: __ZNKSt3__112basic_stringIcNS_11char_traitsIcEENS_9allocatorIcEEE20__throw_out_of_rangeB8ne190102Ev, symObjAddr: 0x3654, symBinAddr: 0x10000457C, symSize: 0xC }
  - { offset: 0x6C5E2, size: 0x8, addend: 0x0, symName: __ZNSt3__120__throw_out_of_rangeB8ne190102EPKc, symObjAddr: 0x3660, symBinAddr: 0x100004588, symSize: 0x48 }
  - { offset: 0x6C5ED, size: 0x8, addend: 0x0, symName: __ZNSt12out_of_rangeC1B8ne190102EPKc, symObjAddr: 0x36A8, symBinAddr: 0x1000045D0, symSize: 0x2C }
  - { offset: 0x714F2, size: 0x8, addend: 0x0, symName: __ZNSt3__16__treeINS_12__value_typeINS_12basic_stringIcNS_11char_traitsIcEENS_9allocatorIcEEEES7_EENS_19__map_value_compareIS7_S8_NS_4lessIS7_EELb1EEENS5_IS8_EEE7destroyEPNS_11__tree_nodeIS8_PvEE, symObjAddr: 0xCA18, symBinAddr: 0x10000D8F0, symSize: 0x64 }
  - { offset: 0x71897, size: 0x8, addend: 0x0, symName: __ZNSt3__15dequeIN9Steinberg11CommandLine11DescriptionENS_9allocatorIS3_EEE5clearEv, symObjAddr: 0xCA7C, symBinAddr: 0x10000D954, symSize: 0x168 }
  - { offset: 0x71E59, size: 0x8, addend: 0x0, symName: __ZNSt3__114basic_ofstreamIcNS_11char_traitsIcEEEC1ERKNS_12basic_stringIcS2_NS_9allocatorIcEEEEj, symObjAddr: 0xB594, symBinAddr: 0x10000C4BC, symSize: 0x114 }
  - { offset: 0x7209F, size: 0x8, addend: 0x0, symName: __ZNK4VST37Hosting13PluginFactory10classInfosEv, symObjAddr: 0xBA4C, symBinAddr: 0x10000C974, symSize: 0xADC }
  - { offset: 0x746BE, size: 0x8, addend: 0x0, symName: __ZN9Steinberg10ModuleInfo9ClassInfoD2Ev, symObjAddr: 0xFB10, symBinAddr: 0x1000109E8, symSize: 0x144 }
  - { offset: 0x75281, size: 0x8, addend: 0x0, symName: __ZNSt3__16vectorINS_12basic_stringIcNS_11char_traitsIcEENS_9allocatorIcEEEENS4_IS6_EEE18__assign_with_sizeB8ne190102IPS6_SA_EEvT_T0_l, symObjAddr: 0x179B4, symBinAddr: 0x10001883C, symSize: 0x374 }
  - { offset: 0x7612B, size: 0x8, addend: 0x0, symName: __ZNSt3__16vectorIN9Steinberg10ModuleInfo9ClassInfoENS_9allocatorIS3_EEE24__emplace_back_slow_pathIJS3_EEEPS3_DpOT_, symObjAddr: 0xF868, symBinAddr: 0x100010740, symSize: 0x2A8 }
  - { offset: 0x76ABC, size: 0x8, addend: 0x0, symName: __ZN9Steinberg10ModuleInfo9ClassInfoD2Ev, symObjAddr: 0xFB10, symBinAddr: 0x1000109E8, symSize: 0x144 }
  - { offset: 0x76AD4, size: 0x8, addend: 0x0, symName: __ZN4VST37Hosting9ClassInfo4DataD2Ev, symObjAddr: 0xC528, symBinAddr: 0x10000D450, symSize: 0xE4 }
  - { offset: 0x772B8, size: 0x8, addend: 0x0, symName: __ZNSt3__16vectorIN9Steinberg10ModuleInfo13CompatibilityENS_9allocatorIS3_EEE18__assign_with_sizeB8ne190102IPS3_S8_EEvT_T0_l, symObjAddr: 0xB6A8, symBinAddr: 0x10000C5D0, symSize: 0x3A4 }
  - { offset: 0x784EA, size: 0x8, addend: 0x0, symName: '__ZZN9Steinberg13ModuleInfoLib10outputJsonERKNS_10ModuleInfoERNSt3__113basic_ostreamIcNS4_11char_traitsIcEEEEENK3$_0clEv', symObjAddr: 0x11C90, symBinAddr: 0x100012B2C, symSize: 0x20C0 }
  - { offset: 0x7E006, size: 0x8, addend: 0x0, symName: __ZN9Steinberg10ModuleInfoD2Ev, symObjAddr: 0xC664, symBinAddr: 0x10000D58C, symSize: 0x170 }
  - { offset: 0x7EC62, size: 0x8, addend: 0x0, symName: _json_parse_ex, symObjAddr: 0xCCC8, symBinAddr: 0x10000DBA0, symSize: 0x130 }
  - { offset: 0x7ED9F, size: 0x8, addend: 0x0, symName: __ZN9Steinberg13ModuleInfoLib12_GLOBAL__N_120ModuleInfoJsonParser18parseCompatibilityERKN4JSON5ValueE, symObjAddr: 0xD180, symBinAddr: 0x10000E058, symSize: 0x954 }
  - { offset: 0x81422, size: 0x8, addend: 0x0, symName: __ZNK9Steinberg13ModuleInfoLib12_GLOBAL__N_120ModuleInfoJsonParser7getTextERKN4JSON5ValueE, symObjAddr: 0xD0B8, symBinAddr: 0x10000DF90, symSize: 0xC8 }
  - { offset: 0x81625, size: 0x8, addend: 0x0, symName: __ZNSt3__112basic_stringIcNS_11char_traitsIcEENS_9allocatorIcEEEC1B8ne190102ILi0EEEPKc, symObjAddr: 0xC930, symBinAddr: 0x10000D808, symSize: 0xA4 }
  - { offset: 0x8187C, size: 0x8, addend: 0x0, symName: __ZN9Steinberg14ModuleInfoTool12_GLOBAL__N_110printUsageERNSt3__113basic_ostreamIcNS2_11char_traitsIcEEEE, symObjAddr: 0xC9D4, symBinAddr: 0x10000D8AC, symSize: 0x44 }
  - { offset: 0x818A5, size: 0x8, addend: 0x0, symName: __ZN9Steinberg13ModuleInfoLib12_GLOBAL__N_111parse_errorC1ERKNSt3__112basic_stringIcNS3_11char_traitsIcEENS3_9allocatorIcEEEERKN4JSON6StringE, symObjAddr: 0xD004, symBinAddr: 0x10000DEDC, symSize: 0xB4 }
  - { offset: 0x81B00, size: 0x8, addend: 0x0, symName: __ZN9Steinberg13ModuleInfoLib12_GLOBAL__N_111parse_errorC1ERKNSt3__112basic_stringIcNS3_11char_traitsIcEENS3_9allocatorIcEEEERKN4JSON5ValueE, symObjAddr: 0xCF0C, symBinAddr: 0x10000DDE4, symSize: 0xB4 }
  - { offset: 0x81D5B, size: 0x8, addend: 0x0, symName: __ZN9Steinberg14ModuleInfoTool12_GLOBAL__N_114validate_errorC1ERKNSt3__112basic_stringIcNS3_11char_traitsIcEENS3_9allocatorIcEEEE, symObjAddr: 0xC824, symBinAddr: 0x10000D6FC, symSize: 0x68 }
  - { offset: 0x81E68, size: 0x8, addend: 0x0, symName: __ZNSt3__16vectorIN4VST37Hosting9ClassInfoENS_9allocatorIS3_EEED1B8ne190102Ev, symObjAddr: 0xC60C, symBinAddr: 0x10000D534, symSize: 0x58 }
  - { offset: 0x82037, size: 0x8, addend: 0x0, symName: __ZNSt3__17variantIJN4JSON8DocumentE19json_parse_result_sEED1B8ne190102Ev, symObjAddr: 0xF564, symBinAddr: 0x10001043C, symSize: 0x58 }
  - { offset: 0x821FB, size: 0x8, addend: 0x0, symName: __ZNSt3__124__optional_destruct_baseINS_6vectorIN9Steinberg10ModuleInfo13CompatibilityENS_9allocatorIS4_EEEELb0EED2B8ne190102Ev, symObjAddr: 0xB43C, symBinAddr: 0x10000C364, symSize: 0xD0 }
  - { offset: 0x82792, size: 0x8, addend: 0x0, symName: __ZNSt3__118basic_stringstreamIcNS_11char_traitsIcEENS_9allocatorIcEEED1Ev, symObjAddr: 0xB50C, symBinAddr: 0x10000C434, symSize: 0x88 }
  - { offset: 0x82933, size: 0x8, addend: 0x0, symName: __ZN9Steinberg11CommandLine11DescriptionD1Ev, symObjAddr: 0xAFB0, symBinAddr: 0x10000BED8, symSize: 0x64 }
  - { offset: 0x82C81, size: 0x8, addend: 0x0, symName: __ZN9Steinberg11CommandLine12DescriptionsD1Ev, symObjAddr: 0xCBE4, symBinAddr: 0x10000DABC, symSize: 0x88 }
  - { offset: 0x83218, size: 0x8, addend: 0x0, symName: __ZNSt3__113basic_filebufIcNS_11char_traitsIcEEEC2Ev, symObjAddr: 0x18084, symBinAddr: 0x100018F0C, symSize: 0x128 }
  - { offset: 0x83308, size: 0x8, addend: 0x0, symName: __ZNSt3__113basic_filebufIcNS_11char_traitsIcEEED2Ev, symObjAddr: 0x181AC, symBinAddr: 0x100019034, symSize: 0xC0 }
  - { offset: 0x833ED, size: 0x8, addend: 0x0, symName: __ZNSt3__114basic_ifstreamIcNS_11char_traitsIcEEED1Ev, symObjAddr: 0x19184, symBinAddr: 0x10001A00C, symSize: 0x54 }
  - { offset: 0x83815, size: 0x8, addend: 0x0, symName: __ZN9Steinberg13ModuleInfoLib12_GLOBAL__N_111parse_error11addLocationERKN4JSON14SourceLocationE, symObjAddr: 0xFC90, symBinAddr: 0x100010B2C, symSize: 0x180 }
  - { offset: 0x84041, size: 0x8, addend: 0x0, symName: __ZN4VST37Hosting9ClassInfoC2ERKN9Steinberg11PClassInfoWE, symObjAddr: 0x13D50, symBinAddr: 0x100014BEC, symSize: 0xDBC }
  - { offset: 0x86F94, size: 0x8, addend: 0x0, symName: __ZN4VST37Hosting9ClassInfoC2ERKN9Steinberg10PClassInfoE, symObjAddr: 0x15D78, symBinAddr: 0x100016C14, symSize: 0xC68 }
  - { offset: 0x89A28, size: 0x8, addend: 0x0, symName: __ZN4VST37Hosting9ClassInfoC2ERKN9Steinberg11PClassInfo2E, symObjAddr: 0x14B0C, symBinAddr: 0x1000159A8, symSize: 0x126C }
  - { offset: 0x8DD6E, size: 0x8, addend: 0x0, symName: __ZN4VST37Hosting9ClassInfo18parseSubCategoriesERKNSt3__112basic_stringIcNS2_11char_traitsIcEENS2_9allocatorIcEEEE, symObjAddr: 0x169F4, symBinAddr: 0x10001787C, symSize: 0x578 }
  - { offset: 0x8DF16, size: 0x8, addend: 0x0, symName: __ZN9Steinberg14ModuleInfoTool12_GLOBAL__N_114validate_errorD1Ev, symObjAddr: 0xC88C, symBinAddr: 0x10000D764, symSize: 0x44 }
  - { offset: 0x8DF3A, size: 0x8, addend: 0x0, symName: __ZN9Steinberg14ModuleInfoTool12_GLOBAL__N_114validate_errorD1Ev, symObjAddr: 0xC88C, symBinAddr: 0x10000D764, symSize: 0x44 }
  - { offset: 0x8E141, size: 0x8, addend: 0x0, symName: __ZN9Steinberg14ModuleInfoTool12_GLOBAL__N_114validate_errorD0Ev, symObjAddr: 0xCC6C, symBinAddr: 0x10000DB44, symSize: 0x40 }
  - { offset: 0x8E2C9, size: 0x8, addend: 0x0, symName: __ZNK9Steinberg14ModuleInfoTool12_GLOBAL__N_114validate_error4whatEv, symObjAddr: 0xCCAC, symBinAddr: 0x10000DB84, symSize: 0x1C }
  - { offset: 0x8E3B0, size: 0x8, addend: 0x0, symName: __Z19json_get_value_sizeP18json_parse_state_si, symObjAddr: 0xFE6C, symBinAddr: 0x100010D08, symSize: 0x8A0 }
  - { offset: 0x8E721, size: 0x8, addend: 0x0, symName: __Z24json_skip_all_skippablesP18json_parse_state_s, symObjAddr: 0x1070C, symBinAddr: 0x1000115A8, symSize: 0x260 }
  - { offset: 0x8E7EC, size: 0x8, addend: 0x0, symName: __Z16json_parse_valueP18json_parse_state_siP12json_value_s, symObjAddr: 0x1096C, symBinAddr: 0x100011808, symSize: 0x3D0 }
  - { offset: 0x8E9AC, size: 0x8, addend: 0x0, symName: __ZN9Steinberg13ModuleInfoLib12_GLOBAL__N_111parse_error11addLocationERKN4JSON14SourceLocationE, symObjAddr: 0xFC90, symBinAddr: 0x100010B2C, symSize: 0x180 }
  - { offset: 0x8F0DF, size: 0x8, addend: 0x0, symName: __ZN9Steinberg13ModuleInfoLib12_GLOBAL__N_111parse_errorD1Ev, symObjAddr: 0xCFC0, symBinAddr: 0x10000DE98, symSize: 0x44 }
  - { offset: 0x8F103, size: 0x8, addend: 0x0, symName: __ZN9Steinberg13ModuleInfoLib12_GLOBAL__N_111parse_errorD1Ev, symObjAddr: 0xCFC0, symBinAddr: 0x10000DE98, symSize: 0x44 }
  - { offset: 0x8FCC8, size: 0x8, addend: 0x0, symName: __ZNSt3__116__variant_detail12__visitation6__base12__dispatcherIJLm0EEE10__dispatchB8ne190102IOZNS0_6__dtorINS0_8__traitsIJN4JSON8DocumentE19json_parse_result_sEEELNS0_6_TraitE1EE9__destroyB8ne190102EvEUlRT_E_JRNS0_6__baseILSC_1EJS9_SA_EEEEEEDcSE_DpT0_, symObjAddr: 0xF5BC, symBinAddr: 0x100010494, symSize: 0x10 }
  - { offset: 0x8FCFA, size: 0x8, addend: 0x0, symName: __ZNSt3__116__variant_detail12__visitation6__base12__dispatcherIJLm0EEE10__dispatchB8ne190102IOZNS0_6__dtorINS0_8__traitsIJN4JSON8DocumentE19json_parse_result_sEEELNS0_6_TraitE1EE9__destroyB8ne190102EvEUlRT_E_JRNS0_6__baseILSC_1EJS9_SA_EEEEEEDcSE_DpT0_, symObjAddr: 0xF5BC, symBinAddr: 0x100010494, symSize: 0x10 }
  - { offset: 0x8FD16, size: 0x8, addend: 0x0, symName: __ZNSt3__116__variant_detail12__visitation6__base12__dispatcherIJLm0EEE10__dispatchB8ne190102IOZNS0_6__dtorINS0_8__traitsIJN4JSON8DocumentE19json_parse_result_sEEELNS0_6_TraitE1EE9__destroyB8ne190102EvEUlRT_E_JRNS0_6__baseILSC_1EJS9_SA_EEEEEEDcSE_DpT0_, symObjAddr: 0xF5BC, symBinAddr: 0x100010494, symSize: 0x10 }
  - { offset: 0x8FD31, size: 0x8, addend: 0x0, symName: __ZNSt3__116__variant_detail12__visitation6__base12__dispatcherIJLm0EEE10__dispatchB8ne190102IOZNS0_6__dtorINS0_8__traitsIJN4JSON8DocumentE19json_parse_result_sEEELNS0_6_TraitE1EE9__destroyB8ne190102EvEUlRT_E_JRNS0_6__baseILSC_1EJS9_SA_EEEEEEDcSE_DpT0_, symObjAddr: 0xF5BC, symBinAddr: 0x100010494, symSize: 0x10 }
  - { offset: 0x8FD4D, size: 0x8, addend: 0x0, symName: __ZNSt3__116__variant_detail12__visitation6__base12__dispatcherIJLm0EEE10__dispatchB8ne190102IOZNS0_6__dtorINS0_8__traitsIJN4JSON8DocumentE19json_parse_result_sEEELNS0_6_TraitE1EE9__destroyB8ne190102EvEUlRT_E_JRNS0_6__baseILSC_1EJS9_SA_EEEEEEDcSE_DpT0_, symObjAddr: 0xF5BC, symBinAddr: 0x100010494, symSize: 0x10 }
  - { offset: 0x8FD69, size: 0x8, addend: 0x0, symName: __ZNSt3__116__variant_detail12__visitation6__base12__dispatcherIJLm0EEE10__dispatchB8ne190102IOZNS0_6__dtorINS0_8__traitsIJN4JSON8DocumentE19json_parse_result_sEEELNS0_6_TraitE1EE9__destroyB8ne190102EvEUlRT_E_JRNS0_6__baseILSC_1EJS9_SA_EEEEEEDcSE_DpT0_, symObjAddr: 0xF5BC, symBinAddr: 0x100010494, symSize: 0x10 }
  - { offset: 0x8FD85, size: 0x8, addend: 0x0, symName: __ZNSt3__116__variant_detail12__visitation6__base12__dispatcherIJLm0EEE10__dispatchB8ne190102IOZNS0_6__dtorINS0_8__traitsIJN4JSON8DocumentE19json_parse_result_sEEELNS0_6_TraitE1EE9__destroyB8ne190102EvEUlRT_E_JRNS0_6__baseILSC_1EJS9_SA_EEEEEEDcSE_DpT0_, symObjAddr: 0xF5BC, symBinAddr: 0x100010494, symSize: 0x10 }
  - { offset: 0x8FDC7, size: 0x8, addend: 0x0, symName: __ZNSt3__116__variant_detail12__visitation6__base12__dispatcherIJLm1EEE10__dispatchB8ne190102IOZNS0_6__dtorINS0_8__traitsIJN4JSON8DocumentE19json_parse_result_sEEELNS0_6_TraitE1EE9__destroyB8ne190102EvEUlRT_E_JRNS0_6__baseILSC_1EJS9_SA_EEEEEEDcSE_DpT0_, symObjAddr: 0xF5CC, symBinAddr: 0x1000104A4, symSize: 0x4 }
  - { offset: 0x901EA, size: 0x8, addend: 0x0, symName: __ZN9Steinberg13ModuleInfoLib12_GLOBAL__N_111parse_errorD0Ev, symObjAddr: 0xFE10, symBinAddr: 0x100010CAC, symSize: 0x40 }
  - { offset: 0x90372, size: 0x8, addend: 0x0, symName: __ZNK9Steinberg13ModuleInfoLib12_GLOBAL__N_111parse_error4whatEv, symObjAddr: 0xFE50, symBinAddr: 0x100010CEC, symSize: 0x1C }
  - { offset: 0x9057B, size: 0x8, addend: 0x0, symName: __Z20json_get_number_sizeP18json_parse_state_s, symObjAddr: 0x11810, symBinAddr: 0x1000126AC, symSize: 0x3D4 }
  - { offset: 0x906B7, size: 0x8, addend: 0x0, symName: __Z20json_get_string_sizeP18json_parse_state_sm, symObjAddr: 0x11498, symBinAddr: 0x100012334, symSize: 0x378 }
  - { offset: 0x907C8, size: 0x8, addend: 0x0, symName: __Z17json_get_key_sizeP18json_parse_state_s, symObjAddr: 0x11BE4, symBinAddr: 0x100012A80, symSize: 0xAC }
  - { offset: 0x90962, size: 0x8, addend: 0x0, symName: __Z17json_parse_objectP18json_parse_state_siP13json_object_s, symObjAddr: 0x10D3C, symBinAddr: 0x100011BD8, symSize: 0x254 }
  - { offset: 0x90B3D, size: 0x8, addend: 0x0, symName: __Z17json_parse_numberP18json_parse_state_sP13json_number_s, symObjAddr: 0x112B8, symBinAddr: 0x100012154, symSize: 0x1E0 }
  - { offset: 0x90C4F, size: 0x8, addend: 0x0, symName: __Z17json_parse_stringP18json_parse_state_sP13json_string_s, symObjAddr: 0x10F90, symBinAddr: 0x100011E2C, symSize: 0x328 }
  - { offset: 0x92173, size: 0x8, addend: 0x0, symName: __ZN4VST37Hosting9ClassInfo18parseSubCategoriesERKNSt3__112basic_stringIcNS2_11char_traitsIcEENS2_9allocatorIcEEEE, symObjAddr: 0x169F4, symBinAddr: 0x10001787C, symSize: 0x578 }
  - { offset: 0x93AD9, size: 0x8, addend: 0x0, symName: __ZNSt3__115wstring_convertINS_18codecvt_utf8_utf16IDsLm1114111ELNS_12codecvt_modeE0EEEDsNS_9allocatorIDsEENS4_IcEEED1Ev, symObjAddr: 0x178C8, symBinAddr: 0x100018750, symSize: 0x60 }
  - { offset: 0x93D4C, size: 0x8, addend: 0x0, symName: __ZNSt11range_errorC1B8ne190102EPKc, symObjAddr: 0x17970, symBinAddr: 0x1000187F8, symSize: 0x2C }
  - { offset: 0x93E0A, size: 0x8, addend: 0x0, symName: __ZNSt3__118codecvt_utf8_utf16IDsLm1114111ELNS_12codecvt_modeE0EED1B8ne190102Ev, symObjAddr: 0x1799C, symBinAddr: 0x100018824, symSize: 0x4 }
  - { offset: 0x93E2C, size: 0x8, addend: 0x0, symName: __ZNSt3__118codecvt_utf8_utf16IDsLm1114111ELNS_12codecvt_modeE0EED1B8ne190102Ev, symObjAddr: 0x1799C, symBinAddr: 0x100018824, symSize: 0x4 }
  - { offset: 0x93E48, size: 0x8, addend: 0x0, symName: __ZNSt3__118codecvt_utf8_utf16IDsLm1114111ELNS_12codecvt_modeE0EED1B8ne190102Ev, symObjAddr: 0x1799C, symBinAddr: 0x100018824, symSize: 0x4 }
  - { offset: 0x93E7E, size: 0x8, addend: 0x0, symName: __ZNSt3__118codecvt_utf8_utf16IDsLm1114111ELNS_12codecvt_modeE0EED0B8ne190102Ev, symObjAddr: 0x179A0, symBinAddr: 0x100018828, symSize: 0x14 }
  - { offset: 0x940D2, size: 0x8, addend: 0x0, symName: __ZNSt3__128__exception_guard_exceptionsINS_29_AllocatorDestroyRangeReverseINS_9allocatorINS_12basic_stringIcNS_11char_traitsIcEENS2_IcEEEEEEPS7_EEED1B8ne190102Ev, symObjAddr: 0x17FA8, symBinAddr: 0x100018E30, symSize: 0x5C }
  - { offset: 0x94501, size: 0x8, addend: 0x0, symName: __ZNSt3__128__exception_guard_exceptionsINS_6vectorINS_12basic_stringIcNS_11char_traitsIcEENS_9allocatorIcEEEENS5_IS7_EEE16__destroy_vectorEED1B8ne190102Ev, symObjAddr: 0x18004, symBinAddr: 0x100018E8C, symSize: 0x80 }
  - { offset: 0x9477E, size: 0x8, addend: 0x0, symName: __ZNSt3__128__exception_guard_exceptionsINS_29_AllocatorDestroyRangeReverseINS_9allocatorIN9Steinberg10ModuleInfo13CompatibilityEEEPS5_EEED1B8ne190102Ev, symObjAddr: 0x17EF0, symBinAddr: 0x100018D78, symSize: 0xB8 }
  - { offset: 0x94E00, size: 0x8, addend: 0x0, symName: __ZNSt3__113basic_filebufIcNS_11char_traitsIcEEE4syncEv, symObjAddr: 0x1826C, symBinAddr: 0x1000190F4, symSize: 0x238 }
  - { offset: 0x95078, size: 0x8, addend: 0x0, symName: __ZNSt3__116__throw_bad_castB8ne190102Ev, symObjAddr: 0x184A4, symBinAddr: 0x10001932C, symSize: 0x28 }
  - { offset: 0x95196, size: 0x8, addend: 0x0, symName: __ZNSt3__113basic_filebufIcNS_11char_traitsIcEEED1Ev, symObjAddr: 0x184CC, symBinAddr: 0x100019354, symSize: 0x4 }
  - { offset: 0x951B8, size: 0x8, addend: 0x0, symName: __ZNSt3__113basic_filebufIcNS_11char_traitsIcEEED1Ev, symObjAddr: 0x184CC, symBinAddr: 0x100019354, symSize: 0x4 }
  - { offset: 0x951C3, size: 0x8, addend: 0x0, symName: __ZNSt3__113basic_filebufIcNS_11char_traitsIcEEED0Ev, symObjAddr: 0x184D0, symBinAddr: 0x100019358, symSize: 0x14 }
  - { offset: 0x95218, size: 0x8, addend: 0x0, symName: __ZNSt3__113basic_filebufIcNS_11char_traitsIcEEE5imbueERKNS_6localeE, symObjAddr: 0x184E4, symBinAddr: 0x10001936C, symSize: 0xEC }
  - { offset: 0x9530E, size: 0x8, addend: 0x0, symName: __ZNSt3__113basic_filebufIcNS_11char_traitsIcEEE6setbufEPcl, symObjAddr: 0x185D0, symBinAddr: 0x100019458, symSize: 0x144 }
  - { offset: 0x953B7, size: 0x8, addend: 0x0, symName: __ZNSt3__113basic_filebufIcNS_11char_traitsIcEEE7seekoffExNS_8ios_base7seekdirEj, symObjAddr: 0x18714, symBinAddr: 0x10001959C, symSize: 0x100 }
  - { offset: 0x954F7, size: 0x8, addend: 0x0, symName: __ZNSt3__113basic_filebufIcNS_11char_traitsIcEEE7seekposENS_4fposI11__mbstate_tEEj, symObjAddr: 0x18814, symBinAddr: 0x10001969C, symSize: 0xB0 }
  - { offset: 0x95515, size: 0x8, addend: 0x0, symName: __ZNSt3__113basic_filebufIcNS_11char_traitsIcEEE7seekposENS_4fposI11__mbstate_tEEj, symObjAddr: 0x18814, symBinAddr: 0x10001969C, symSize: 0xB0 }
  - { offset: 0x95636, size: 0x8, addend: 0x0, symName: __ZNSt3__113basic_filebufIcNS_11char_traitsIcEEE9underflowEv, symObjAddr: 0x188C4, symBinAddr: 0x10001974C, symSize: 0x274 }
  - { offset: 0x95993, size: 0x8, addend: 0x0, symName: __ZNSt3__113basic_filebufIcNS_11char_traitsIcEEE9pbackfailEi, symObjAddr: 0x18B38, symBinAddr: 0x1000199C0, symSize: 0x5C }
  - { offset: 0x959E0, size: 0x8, addend: 0x0, symName: __ZNSt3__113basic_filebufIcNS_11char_traitsIcEEE9pbackfailEi, symObjAddr: 0x18B38, symBinAddr: 0x1000199C0, symSize: 0x5C }
  - { offset: 0x95B27, size: 0x8, addend: 0x0, symName: __ZNSt3__113basic_filebufIcNS_11char_traitsIcEEE8overflowEi, symObjAddr: 0x18B94, symBinAddr: 0x100019A1C, symSize: 0x1F0 }
  - { offset: 0x95E90, size: 0x8, addend: 0x0, symName: __ZNSt3__114basic_ofstreamIcNS_11char_traitsIcEEED1Ev, symObjAddr: 0x18D84, symBinAddr: 0x100019C0C, symSize: 0x54 }
  - { offset: 0x95F0B, size: 0x8, addend: 0x0, symName: __ZNSt3__114basic_ofstreamIcNS_11char_traitsIcEEED0Ev, symObjAddr: 0x18DD8, symBinAddr: 0x100019C60, symSize: 0x54 }
  - { offset: 0x95F86, size: 0x8, addend: 0x0, symName: __ZTv0_n24_NSt3__114basic_ofstreamIcNS_11char_traitsIcEEED1Ev, symObjAddr: 0x18E2C, symBinAddr: 0x100019CB4, symSize: 0x54 }
  - { offset: 0x96013, size: 0x8, addend: 0x0, symName: __ZTv0_n24_NSt3__114basic_ofstreamIcNS_11char_traitsIcEEED0Ev, symObjAddr: 0x18E80, symBinAddr: 0x100019D08, symSize: 0x5C }
  - { offset: 0x960A0, size: 0x8, addend: 0x0, symName: __ZNSt3__118basic_stringstreamIcNS_11char_traitsIcEENS_9allocatorIcEEED0Ev, symObjAddr: 0x18EDC, symBinAddr: 0x100019D64, symSize: 0x88 }
  - { offset: 0x9625D, size: 0x8, addend: 0x0, symName: __ZThn16_NSt3__118basic_stringstreamIcNS_11char_traitsIcEENS_9allocatorIcEEED1Ev, symObjAddr: 0x18F64, symBinAddr: 0x100019DEC, symSize: 0x80 }
  - { offset: 0x9641A, size: 0x8, addend: 0x0, symName: __ZThn16_NSt3__118basic_stringstreamIcNS_11char_traitsIcEENS_9allocatorIcEEED0Ev, symObjAddr: 0x18FE4, symBinAddr: 0x100019E6C, symSize: 0x88 }
  - { offset: 0x965D9, size: 0x8, addend: 0x0, symName: __ZTv0_n24_NSt3__118basic_stringstreamIcNS_11char_traitsIcEENS_9allocatorIcEEED1Ev, symObjAddr: 0x1906C, symBinAddr: 0x100019EF4, symSize: 0x88 }
  - { offset: 0x9678C, size: 0x8, addend: 0x0, symName: __ZTv0_n24_NSt3__118basic_stringstreamIcNS_11char_traitsIcEENS_9allocatorIcEEED0Ev, symObjAddr: 0x190F4, symBinAddr: 0x100019F7C, symSize: 0x90 }
  - { offset: 0x9695B, size: 0x8, addend: 0x0, symName: __ZNSt3__114basic_ifstreamIcNS_11char_traitsIcEEED0Ev, symObjAddr: 0x191D8, symBinAddr: 0x10001A060, symSize: 0x54 }
  - { offset: 0x969D6, size: 0x8, addend: 0x0, symName: __ZTv0_n24_NSt3__114basic_ifstreamIcNS_11char_traitsIcEEED1Ev, symObjAddr: 0x1922C, symBinAddr: 0x10001A0B4, symSize: 0x54 }
  - { offset: 0x96A63, size: 0x8, addend: 0x0, symName: __ZTv0_n24_NSt3__114basic_ifstreamIcNS_11char_traitsIcEEED0Ev, symObjAddr: 0x19280, symBinAddr: 0x10001A108, symSize: 0x5C }
  - { offset: 0x96AF0, size: 0x8, addend: 0x0, symName: _main, symObjAddr: 0x192DC, symBinAddr: 0x10001A164, symSize: 0x4 }
  - { offset: 0x96B2C, size: 0x8, addend: 0x0, symName: _main, symObjAddr: 0x192DC, symBinAddr: 0x10001A164, symSize: 0x4 }
...
